 uws

 Timestamp is 588d111a (Sat Jan 28 16:46:02 2017)

 Preferred load address is 0000000180000000

 Start         Length     Name                   Class
 0001:00000000 000001e0H .text                   CODE
 0001:000001e0 00000100H .text$di                CODE
 0001:000002e0 00040480H .text$mn                CODE
 0001:00040760 00000020H .text$mn$00             CODE
 0001:00040780 00000fb0H .text$x                 CODE
 0001:00041730 00000146H .text$yd                CODE
 0002:00000000 00000428H .idata$5                DATA
 0002:00000428 00000010H .00cfg                  DATA
 0002:00000438 00000008H .CRT$XCA                DATA
 0002:00000440 00000010H .CRT$XCC                DATA
 0002:00000450 00000040H .CRT$XCU                DATA
 0002:00000490 00000008H .CRT$XCZ                DATA
 0002:00000498 00000008H .CRT$XIA                DATA
 0002:000004a0 00000020H .CRT$XIC                DATA
 0002:000004c0 00000008H .CRT$XIZ                DATA
 0002:000004c8 00000008H .CRT$XLA                DATA
 0002:000004d0 00000008H .CRT$XLZ                DATA
 0002:000004d8 00000008H .CRT$XPA                DATA
 0002:000004e0 00000008H .CRT$XPB                DATA
 0002:000004e8 00000010H .CRT$XPX                DATA
 0002:000004f8 00000008H .CRT$XPXA               DATA
 0002:00000500 00000008H .CRT$XPZ                DATA
 0002:00000508 00000008H .CRT$XTA                DATA
 0002:00000510 00000010H .CRT$XTZ                DATA
 0002:00000520 0000c298H .rdata                  DATA
 0002:0000c7b8 00000028H .rdata$T                DATA
 0002:0000c7e0 00002fc8H .rdata$r                DATA
 0002:0000f7a8 00000010H .rdata$zETW0            DATA
 0002:0000f7b8 00000077H .rdata$zETW1            DATA
 0002:0000f82f 0000002cH .rdata$zETW2            DATA
 0002:0000f85b 00000001H .rdata$zETW9            DATA
 0002:0000f85c 00000504H .rdata$zzzdbg           DATA
 0002:0000fd60 00000008H .rtc$IAA                DATA
 0002:0000fd68 00000008H .rtc$IZZ                DATA
 0002:0000fd70 00000008H .rtc$TAA                DATA
 0002:0000fd78 00000008H .rtc$TZZ                DATA
 0002:0000fd80 000049d0H .xdata                  DATA
 0002:00014750 00000ac4H .xdata$x                DATA
 0002:00015214 00000020H .didat$2                DATA
 0002:00015234 00000024H .didat$3                DATA
 0002:00015258 00000280H .didat$4                DATA
 0002:000154d8 00000bc8H .didat$6                DATA
 0002:000160a0 00000280H .didat$7                DATA
 0002:00016320 000021f8H .edata                  DATA
 0002:00018518 0000003cH .idata$2                DATA
 0002:00018554 00000014H .idata$3                DATA
 0002:00018568 00000428H .idata$4                DATA
 0002:00018990 000008c6H .idata$6                DATA
 0003:00000000 00000b00H .data                   DATA
 0003:00000b00 00001d10H .data$r                 DATA
 0003:00002810 00000280H .didat$5                DATA
 0003:00002a90 00001d44H .bss                    DATA
 0004:00000000 00004adcH .pdata                  DATA
 0005:00000000 00000080H .gfids$x                DATA
 0005:00000080 0000096cH .gfids$y                DATA
 0006:00000000 00000010H .tls                    DATA
 0006:00000010 00000041H .tls$                   DATA
 0006:00000051 00000001H .tls$ZZZ                DATA
 0007:00000000 00000060H .rsrc$01                DATA
 0007:00000060 00000180H .rsrc$02                DATA

  Address         Publics by Value              Rva+Base               Lib:Object

 0000:00000000       __dynamic_value_reloc_table 0000000000000000     <absolute>
 0000:00000000       __guard_iat_count          0000000000000000     <absolute>
 0000:00000000       __guard_iat_table          0000000000000000     <absolute>
 0000:00000000       __guard_longjmp_table      0000000000000000     <absolute>
 0000:00000000       __guard_longjmp_count      0000000000000000     <absolute>
 0000:00000000       __guard_fids_count         0000000000000000     <absolute>
 0000:00000000       ___safe_se_handler_table   0000000000000000     <absolute>
 0000:00000000       ___safe_se_handler_count   0000000000000000     <absolute>
 0000:00000000       __guard_fids_table         0000000000000000     <absolute>
 0000:00000100       __guard_flags              0000000000000100     <absolute>
 0000:00000000       __ImageBase                0000000180000000     <linker-defined>
 0001:00000000       ?TraceLoggingRegister@__vcrt_trace_logging_provider@@YAJPEBU_TlgProvider_t@1@PEBU_GUID@@P6AX1KE_K2PEAU_EVENT_FILTER_DESCRIPTOR@@PEAX@Z4@Z 0000000180001000 f i libvcruntime:telemetry.obj
 0001:0000007c       ?_TlgEnableCallback@__vcrt_trace_logging_provider@@YAXPEBU_GUID@@KE_K1PEAU_EVENT_FILTER_DESCRIPTOR@@PEAX@Z 000000018000107c f i libvcruntime:telemetry.obj
 0001:00000140       ?_TlgWrite@__vcrt_trace_logging_provider@@YAJPEBU_TlgProvider_t@1@PEFBXPEBU_GUID@@2IPEAU_EVENT_DATA_DESCRIPTOR@@@Z 0000000180001140 f i libvcruntime:telemetry.obj
 0001:000002e0       ?_Deallocate@std@@YAXPEAX_K1@Z 00000001800012e0 f i Extensions.obj
 0001:00000350       ??0ExtensionsParser@uWS@@QEAA@PEBD_K@Z 0000000180001350 f   Extensions.obj
 0001:00000520       ??1?$basic_string@DU?$char_traits@D@std@@V?$allocator@D@2@@std@@QEAA@XZ 0000000180001520 f i Extensions.obj
 0001:00000560       ??0?$basic_string@DU?$char_traits@D@std@@V?$allocator@D@2@@std@@QEAA@$$QEAV01@@Z 0000000180001560 f i Extensions.obj
 0001:000005e0       ?append@?$basic_string@DU?$char_traits@D@std@@V?$allocator@D@2@@std@@QEAAAEAV12@PEBD_K@Z 00000001800015e0 f i Extensions.obj
 0001:00000730       ?append@?$basic_string@DU?$char_traits@D@std@@V?$allocator@D@2@@std@@QEAAAEAV12@AEBV12@_K1@Z 0000000180001730 f i Extensions.obj
 0001:00000860       ?_Assign_rv@?$basic_string@DU?$char_traits@D@std@@V?$allocator@D@2@@std@@QEAAX$$QEAV12@@Z 0000000180001860 f i Extensions.obj
 0001:000008d0       ?deallocate@?$_Wrap_alloc@V?$allocator@D@std@@@std@@QEAAXPEAD_K@Z 00000001800018d0 f i Extensions.obj
 0001:00000930       ?_Copy@?$basic_string@DU?$char_traits@D@std@@V?$allocator@D@2@@std@@QEAAX_K0@Z 0000000180001930 f i Extensions.obj
 0001:00000a10       ?allocate@?$_Wrap_alloc@V?$allocator@D@std@@@std@@QEAAPEAD_K@Z 0000000180001a10 f i Extensions.obj
 0001:00000a80       ?readOffer@?$ExtensionsNegotiator@$00@uWS@@QEAAXV?$basic_string@DU?$char_traits@D@std@@V?$allocator@D@2@@std@@@Z 0000000180001a80 f i Extensions.obj
 0001:00000b20       ?_Do_call@?$_Func_impl@V<lambda_caac1bcd1aa04a978a1724d6bfd6f36e>@@V?$allocator@H@std@@XU?$WebSocket@$00@uWS@@HPEAD_K@std@@EEAAX$$QEAU?$WebSocket@$00@uWS@@$$QEAH$$QEAPEAD$$QEA_K@Z 0000000180001b20 f i Group.obj
 0001:00000b20       ?destroy@stl_condition_variable_vista@details@Concurrency@@UEAAXXZ 0000000180001b20 f i libcpmt:cond.obj
 0001:00000b20       ?NotifyAffinitizedWork@FairScheduleGroupSegment@details@Concurrency@@UEAAXXZ 0000000180001b20 f i libconcrt:SchedulerBase.obj
 0001:00000b20       ??$destroy@PEAD@?$_Wrap_alloc@V?$allocator@D@std@@@std@@QEAAXPEAPEAD@Z 0000000180001b20 f i Extensions.obj
 0001:00000b20       ?VirtualProcessorActiveNotification@SchedulerBase@details@Concurrency@@MEAAX_NJ@Z 0000000180001b20 f i libconcrt:SchedulerBase.obj
 0001:00000b20       ??1critical_section@Concurrency@@QEAA@XZ 0000000180001b20 f i libconcrt:rtlocks.obj
 0001:00000b20       ?_Do_call@?$_Func_impl@V<lambda_5736c457d53447cfc1bfb3a81f663ee9>@@V?$allocator@H@std@@XU?$WebSocket@$0A@@uWS@@UUpgradeInfo@5@@std@@EEAAX$$QEAU?$WebSocket@$0A@@uWS@@$$QEAUUpgradeInfo@4@@Z 0000000180001b20 f i Group.obj
 0001:00000b20       ?_Do_call@?$_Func_impl@V<lambda_6cf58e420d6c310e5678e01e82a10463>@@V?$allocator@H@std@@XPEAX@std@@EEAAX$$QEAPEAX@Z 0000000180001b20 f i Group.obj
 0001:00000b20       ?Destroy@WaitAnyBlock@details@Concurrency@@UEAAXXZ 0000000180001b20 f i libconcrt:event.obj
 0001:00000b20       ?destroy@stl_condition_variable_win7@details@Concurrency@@UEAAXXZ 0000000180001b20 f i libcpmt:cond.obj
 0001:00000b20       ?NotifyResourcesExternallyIdle@ThreadScheduler@details@Concurrency@@UEAAXPEAPEAUIVirtualProcessorRoot@3@I@Z 0000000180001b20 f i libconcrt:ThreadScheduler.obj
 0001:00000b20       ??3@YAXPEAX0@Z             0000000180001b20 f i libcpmt:mutex.obj
 0001:00000b20       __except_validate_context_record 0000000180001b20 f i libvcruntime:jbcxrval.obj
 0001:00000b20       ?destroy@stl_critical_section_win7@details@Concurrency@@UEAAXXZ 0000000180001b20 f i libcpmt:mutex.obj
 0001:00000b20       ?NotifyResourcesExternallyBusy@ThreadScheduler@details@Concurrency@@UEAAXPEAPEAUIVirtualProcessorRoot@3@I@Z 0000000180001b20 f i libconcrt:ThreadScheduler.obj
 0001:00000b20       ?CreateNodeTopology@ResourceManager@details@Concurrency@@UEAAXIPEAIPEAPEAI0@Z 0000000180001b20 f i libconcrt:ResourceManager.obj
 0001:00000b20       ?_Do_call@?$_Func_impl@V<lambda_f05790a8ac7f1f0c4e43cd67fdc7b60b>@@V?$allocator@H@std@@XU?$WebSocket@$00@uWS@@UUpgradeInfo@5@@std@@EEAAX$$QEAU?$WebSocket@$00@uWS@@$$QEAUUpgradeInfo@4@@Z 0000000180001b20 f i Group.obj
 0001:00000b20       ?cork@Socket@uS@@QEAAXH@Z  0000000180001b20 f i Group.obj
 0001:00000b20       ?_Do_call@?$_Func_impl@V<lambda_920f95ed73d1043375081833dac2d3c1>@@V?$allocator@H@std@@XU?$WebSocket@$00@uWS@@PEAD_KW4OpCode@5@@std@@EEAAX$$QEAU?$WebSocket@$00@uWS@@$$QEAPEAD$$QEA_K$$QEAW4OpCode@4@@Z 0000000180001b20 f i Group.obj
 0001:00000b20       ?_Do_call@?$_Func_impl@V<lambda_e603fd495cf5a235430e5b5080b4caa2>@@V?$allocator@H@std@@XU?$WebSocket@$0A@@uWS@@PEAD_K@std@@EEAAX$$QEAU?$WebSocket@$0A@@uWS@@$$QEAPEAD$$QEA_K@Z 0000000180001b20 f i Group.obj
 0001:00000b20       ?_Do_call@?$_Func_impl@V<lambda_8a3e0fb102bfd2d8e0f223fe18fbe897>@@V?$allocator@H@std@@XU?$WebSocket@$0A@@uWS@@HPEAD_K@std@@EEAAX$$QEAU?$WebSocket@$0A@@uWS@@$$QEAH$$QEAPEAD$$QEA_K@Z 0000000180001b20 f i Group.obj
 0001:00000b20       ?RMAwaken@InternalContextBase@details@Concurrency@@EEAAXXZ 0000000180001b20 f i libconcrt:InternalContextBase.obj
 0001:00000b20       _guard_check_icall_nop     0000000180001b20 f i LIBCMT:guard_support.obj
 0001:00000b20       ?_Do_call@?$_Func_impl@V<lambda_3d86c511e010b43e6f8203b61383b85c>@@V?$allocator@H@std@@XU?$WebSocket@$0A@@uWS@@PEAD_KW4OpCode@5@@std@@EEAAX$$QEAU?$WebSocket@$0A@@uWS@@$$QEAPEAD$$QEA_K$$QEAW4OpCode@4@@Z 0000000180001b20 f i Group.obj
 0001:00000b20       ?_Do_call@?$_Func_impl@V<lambda_daa4108c0f85d8cc00ee44b5f15cb0cf>@@V?$allocator@H@std@@XU?$WebSocket@$00@uWS@@PEAD_K@std@@EEAAX$$QEAU?$WebSocket@$00@uWS@@$$QEAPEAD$$QEA_K@Z 0000000180001b20 f i Group.obj
 0001:00000b20       ?_Do_call@?$_Func_impl@V<lambda_13e57b1e6f46784fe5e88169e8d03d4a>@@V?$allocator@H@std@@XH@std@@EEAAX$$QEAH@Z 0000000180001b20 f i Group.obj
 0001:00000b30       ?passwordCallback@Context@TLS@uS@@CAHPEADHHPEAX@Z 0000000180001b30 f i Group.obj
 0001:00000b80       ??0?$HTTPSocket@$0A@@uWS@@QEAA@VSocket@uS@@@Z 0000000180001b80 f i Hub.obj
 0001:00000b80       ??0Context@TLS@uS@@QEAA@PEAUssl_ctx_st@@@Z 0000000180001b80 f i Group.obj
 0001:00000b80       ??0?$WebSocket@$0A@@uWS@@QEAA@VSocket@uS@@@Z 0000000180001b80 f i Group.obj
 0001:00000b80       ??0Socket@uS@@QEAA@PEAUuv_poll_s@@@Z 0000000180001b80 f i Group.obj
 0001:00000b80       ??0?$WebSocket@$00@uWS@@QEAA@VSocket@uS@@@Z 0000000180001b80 f i Group.obj
 0001:00000b80       ??0?$HTTPSocket@$00@uWS@@QEAA@VSocket@uS@@@Z 0000000180001b80 f i Hub.obj
 0001:00000b90       ??BContext@TLS@uS@@QEAA_NXZ 0000000180001b90 f i Group.obj
 0001:00000ba0       ??C?$shared_ptr@V__ExceptionPtr@@@std@@QEBAPEAV__ExceptionPtr@@XZ 0000000180001ba0 f i libcpmt:excptptr.obj
 0001:00000ba0       ?getNativeContext@Context@TLS@uS@@QEAAPEAUssl_ctx_st@@XZ 0000000180001ba0 f i Group.obj
 0001:00000ba0       ?getPollHandle@?$WebSocket@$00@uWS@@QEBAPEAUuv_poll_s@@XZ 0000000180001ba0 f i WebSocket.obj
 0001:00000ba0       ?getLoop@Node@uS@@QEAAPEAUuv_loop_s@@XZ 0000000180001ba0 f i WebSocketImpl.obj
 0001:00000ba0       ??BSocket@uS@@QEBAPEAUuv_poll_s@@XZ 0000000180001ba0 f i Group.obj
 0001:00000ba0       ?getPollHandle@?$WebSocket@$0A@@uWS@@QEBAPEAUuv_poll_s@@XZ 0000000180001ba0 f i WebSocket.obj
 0001:00000bb0       ??0Context@TLS@uS@@QEAA@XZ 0000000180001bb0 f i Group.obj
 0001:00000bc0       ?getPollCallback@Socket@uS@@QEAAP6AXPEAUuv_poll_s@@HH@ZXZ 0000000180001bc0 f i Group.obj
 0001:00000bd0       ?transfer@Socket@uS@@QEAAXPEAUNodeData@2@P6AXPEAUuv_poll_s@@@Z@Z 0000000180001bd0 f i Group.obj
 0001:00000cc0       ?init@Socket@uS@@SAPEAUuv_poll_s@@PEAUNodeData@2@_KPEAUssl_st@@@Z 0000000180001cc0 f i Group.obj
 0001:00000d70       ?getFd@Socket@uS@@QEAA_KXZ 0000000180001d70 f i Group.obj
 0001:00000d90       ?getSocketData@Socket@uS@@QEAAPEAUSocketData@2@XZ 0000000180001d90 f i Group.obj
 0001:00000d90       ?getData@?$HTTPSocket@$00@uWS@@QEAAPEAUData@12@XZ 0000000180001d90 f i HTTPSocket.obj
 0001:00000d90       ?getData@?$HTTPSocket@$0A@@uWS@@QEAAPEAUData@12@XZ 0000000180001d90 f i HTTPSocket.obj
 0001:00000da0       ?getNodeData@Socket@uS@@QEAAPEAUNodeData@2@PEAUSocketData@2@@Z 0000000180001da0 f i Group.obj
 0001:00000db0       ?getUserData@Socket@uS@@QEAAPEAXXZ 0000000180001db0 f i Group.obj
 0001:00000dc0       ?setUserData@Socket@uS@@QEAAXPEAX@Z 0000000180001dc0 f i Group.obj
 0001:00000dd0       ?isClosed@Socket@uS@@QEAA_NXZ 0000000180001dd0 f i Group.obj
 0001:00000df0       ?isShuttingDown@Socket@uS@@QEAA_NXZ 0000000180001df0 f i Group.obj
 0001:00000e00       ?shutdown@Socket@uS@@QEAAXXZ 0000000180001e00 f i Group.obj
 0001:00000e50       ?cancelTimeout@Socket@uS@@QEAAXXZ 0000000180001e50 f i Group.obj
 0001:00000eb0       ?close@Socket@uS@@QEAAXXZ  0000000180001eb0 f i Group.obj
 0001:00000f10       ?hasEmptyQueue@Socket@uS@@QEAA_NXZ 0000000180001f10 f i Group.obj
 0001:00000f20       ?enqueue@Socket@uS@@QEAAXPEAUMessage@Queue@SocketData@2@@Z 0000000180001f20 f i Group.obj
 0001:00000f50       ?allocMessage@Socket@uS@@QEAAPEAUMessage@Queue@SocketData@2@_KPEBD@Z 0000000180001f50 f i Group.obj
 0001:00000fb0       ?freeMessage@Socket@uS@@QEAAXPEAUMessage@Queue@SocketData@2@@Z 0000000180001fb0 f i Group.obj
 0001:00000fc0       ?changePoll@Socket@uS@@QEAAXPEAUSocketData@2@@Z 0000000180001fc0 f i Group.obj
 0001:00001060       ?write@Socket@uS@@QEAA_NPEAUMessage@Queue@SocketData@2@AEA_N@Z 0000000180002060 f i Group.obj
 0001:00001180       ??4?$HTTPSocket@$0A@@uWS@@QEAAAEAU01@$$QEAU01@@Z 0000000180002180 f i Hub.obj
 0001:00001180       ??4?$HTTPSocket@$00@uWS@@QEAAAEAU01@AEBU01@@Z 0000000180002180 f i Hub.obj
 0001:00001180       ??4?$WebSocket@$00@uWS@@QEAAAEAU01@AEBU01@@Z 0000000180002180 f i Group.obj
 0001:00001180       ??4?$WebSocket@$0A@@uWS@@QEAAAEAU01@AEBU01@@Z 0000000180002180 f i Group.obj
 0001:00001180       ??4Socket@uS@@QEAAAEAV01@$$QEAV01@@Z 0000000180002180 f i Group.obj
 0001:00001180       ??4Socket@uS@@QEAAAEAV01@AEBV01@@Z 0000000180002180 f i Group.obj
 0001:00001180       ??4?$WebSocket@$00@uWS@@QEAAAEAU01@$$QEAU01@@Z 0000000180002180 f i Group.obj
 0001:00001180       ??4?$WebSocket@$0A@@uWS@@QEAAAEAU01@$$QEAU01@@Z 0000000180002180 f i Group.obj
 0001:00001180       ??4?$HTTPSocket@$00@uWS@@QEAAAEAU01@$$QEAU01@@Z 0000000180002180 f i Hub.obj
 0001:00001180       ??4?$HTTPSocket@$0A@@uWS@@QEAAAEAU01@AEBU01@@Z 0000000180002180 f i Hub.obj
 0001:00001190       ??1?$Group@$00@uWS@@QEAA@XZ 0000000180002190 f i Group.obj
 0001:00001300       ??0?$Group@$00@uWS@@QEAA@AEBU01@@Z 0000000180002300 f i Group.obj
 0001:000014d0       ??0?$Group@$00@uWS@@QEAA@$$QEAU01@@Z 00000001800024d0 f i Group.obj
 0001:00001690       ??4?$Group@$00@uWS@@QEAAAEAU01@AEBU01@@Z 0000000180002690 f i Group.obj
 0001:000017b0       ??4?$Group@$00@uWS@@QEAAAEAU01@$$QEAU01@@Z 00000001800027b0 f i Group.obj
 0001:000019f0       ??1NodeData@uS@@QEAA@XZ    00000001800029f0 f i Group.obj
 0001:00001a70       ??0NodeData@uS@@QEAA@AEBU01@@Z 0000000180002a70 f i Group.obj
 0001:00001b00       ??4NodeData@uS@@QEAAAEAU01@AEBU01@@Z 0000000180002b00 f i Group.obj
 0001:00001b90       ??_F?$WebSocket@$0A@@uWS@@QEAAXXZ 0000000180002b90 f i Group.obj
 0001:00001b90       ??_F?$WebSocket@$00@uWS@@QEAAXXZ 0000000180002b90 f i Group.obj
 0001:00001ba0       ??4NodeData@uS@@QEAAAEAU01@$$QEAU01@@Z 0000000180002ba0 f i Group.obj
 0001:00001c80       ??1?$Group@$0A@@uWS@@QEAA@XZ 0000000180002c80 f i Group.obj
 0001:00001dc0       ??0?$Group@$0A@@uWS@@QEAA@AEBU01@@Z 0000000180002dc0 f i Group.obj
 0001:00001f70       ??0?$Group@$0A@@uWS@@QEAA@$$QEAU01@@Z 0000000180002f70 f i Group.obj
 0001:00002130       ??4?$Group@$0A@@uWS@@QEAAAEAU01@AEBU01@@Z 0000000180003130 f i Group.obj
 0001:00002250       ??4?$Group@$0A@@uWS@@QEAAAEAU01@$$QEAU01@@Z 0000000180003250 f i Group.obj
 0001:00002460       ??0?$function@$$A6AXU?$WebSocket@$00@uWS@@HPEAD_K@Z@std@@QEAA@$$QEAV01@@Z 0000000180003460 f i Group.obj
 0001:00002460       ??0?$function@$$A6AXU?$WebSocket@$0A@@uWS@@PEAD_KW4OpCode@2@@Z@std@@QEAA@$$QEAV01@@Z 0000000180003460 f i Group.obj
 0001:00002460       ??0?$function@$$A6AXU?$WebSocket@$00@uWS@@PEAD_K@Z@std@@QEAA@$$QEAV01@@Z 0000000180003460 f i Group.obj
 0001:00002460       ??0?$function@$$A6AXU?$WebSocket@$00@uWS@@UUpgradeInfo@2@@Z@std@@QEAA@$$QEAV01@@Z 0000000180003460 f i Group.obj
 0001:00002460       ??0?$function@$$A6AXU?$WebSocket@$0A@@uWS@@PEAD_K@Z@std@@QEAA@$$QEAV01@@Z 0000000180003460 f i Group.obj
 0001:00002460       ??0?$function@$$A6AXU?$WebSocket@$00@uWS@@PEAD_KW4OpCode@2@@Z@std@@QEAA@$$QEAV01@@Z 0000000180003460 f i Group.obj
 0001:00002460       ??0?$function@$$A6AXPEAX@Z@std@@QEAA@$$QEAV01@@Z 0000000180003460 f i Group.obj
 0001:00002460       ??0?$function@$$A6AXU?$WebSocket@$0A@@uWS@@UUpgradeInfo@2@@Z@std@@QEAA@$$QEAV01@@Z 0000000180003460 f i Group.obj
 0001:00002460       ??0?$function@$$A6AXU?$WebSocket@$0A@@uWS@@HPEAD_K@Z@std@@QEAA@$$QEAV01@@Z 0000000180003460 f i Group.obj
 0001:000024e0       ??4?$function@$$A6AXPEAX@Z@std@@QEAAAEAV01@AEBV01@@Z 00000001800034e0 f i Group.obj
 0001:000024e0       ??4?$function@$$A6AXU?$WebSocket@$00@uWS@@PEAD_KW4OpCode@2@@Z@std@@QEAAAEAV01@AEBV01@@Z 00000001800034e0 f i Group.obj
 0001:000024e0       ??$?4AEAV?$function@$$A6AXU?$WebSocket@$0A@@uWS@@UUpgradeInfo@2@@Z@std@@XX@?$function@$$A6AXU?$WebSocket@$0A@@uWS@@UUpgradeInfo@2@@Z@std@@QEAAAEAV01@AEAV01@@Z 00000001800034e0 f i Group.obj
 0001:000024e0       ??4?$function@$$A6AXU?$WebSocket@$0A@@uWS@@PEAD_K@Z@std@@QEAAAEAV01@AEBV01@@Z 00000001800034e0 f i Group.obj
 0001:000024e0       ??$?4AEAV?$function@$$A6AXU?$WebSocket@$00@uWS@@PEAD_KW4OpCode@2@@Z@std@@XX@?$function@$$A6AXU?$WebSocket@$00@uWS@@PEAD_KW4OpCode@2@@Z@std@@QEAAAEAV01@AEAV01@@Z 00000001800034e0 f i Group.obj
 0001:000024e0       ??$?4AEAV?$function@$$A6AXU?$WebSocket@$00@uWS@@UUpgradeInfo@2@@Z@std@@XX@?$function@$$A6AXU?$WebSocket@$00@uWS@@UUpgradeInfo@2@@Z@std@@QEAAAEAV01@AEAV01@@Z 00000001800034e0 f i Group.obj
 0001:000024e0       ??$?4AEAV?$function@$$A6AXU?$WebSocket@$00@uWS@@PEAD_K@Z@std@@XX@?$function@$$A6AXU?$WebSocket@$00@uWS@@PEAD_K@Z@std@@QEAAAEAV01@AEAV01@@Z 00000001800034e0 f i Group.obj
 0001:000024e0       ??$?4AEAV?$function@$$A6AXU?$WebSocket@$0A@@uWS@@HPEAD_K@Z@std@@XX@?$function@$$A6AXU?$WebSocket@$0A@@uWS@@HPEAD_K@Z@std@@QEAAAEAV01@AEAV01@@Z 00000001800034e0 f i Group.obj
 0001:000024e0       ??4?$function@$$A6AXU?$WebSocket@$0A@@uWS@@PEAD_KW4OpCode@2@@Z@std@@QEAAAEAV01@AEBV01@@Z 00000001800034e0 f i Group.obj
 0001:000024e0       ??4?$function@$$A6AXU?$WebSocket@$0A@@uWS@@HPEAD_K@Z@std@@QEAAAEAV01@AEBV01@@Z 00000001800034e0 f i Group.obj
 0001:000024e0       ??4?$function@$$A6AXU?$WebSocket@$00@uWS@@HPEAD_K@Z@std@@QEAAAEAV01@AEBV01@@Z 00000001800034e0 f i Group.obj
 0001:000024e0       ??$?4AEAV?$function@$$A6AXU?$WebSocket@$00@uWS@@HPEAD_K@Z@std@@XX@?$function@$$A6AXU?$WebSocket@$00@uWS@@HPEAD_K@Z@std@@QEAAAEAV01@AEAV01@@Z 00000001800034e0 f i Group.obj
 0001:000024e0       ??4?$function@$$A6AXU?$WebSocket@$00@uWS@@UUpgradeInfo@2@@Z@std@@QEAAAEAV01@AEBV01@@Z 00000001800034e0 f i Group.obj
 0001:000024e0       ??4?$function@$$A6AXU?$WebSocket@$0A@@uWS@@UUpgradeInfo@2@@Z@std@@QEAAAEAV01@AEBV01@@Z 00000001800034e0 f i Group.obj
 0001:000024e0       ??$?4AEAV?$function@$$A6AXU?$WebSocket@$0A@@uWS@@PEAD_K@Z@std@@XX@?$function@$$A6AXU?$WebSocket@$0A@@uWS@@PEAD_K@Z@std@@QEAAAEAV01@AEAV01@@Z 00000001800034e0 f i Group.obj
 0001:000024e0       ??$?4AEAV?$function@$$A6AXU?$WebSocket@$0A@@uWS@@PEAD_KW4OpCode@2@@Z@std@@XX@?$function@$$A6AXU?$WebSocket@$0A@@uWS@@PEAD_KW4OpCode@2@@Z@std@@QEAAAEAV01@AEAV01@@Z 00000001800034e0 f i Group.obj
 0001:000024e0       ??4?$function@$$A6AXU?$WebSocket@$00@uWS@@PEAD_K@Z@std@@QEAAAEAV01@AEBV01@@Z 00000001800034e0 f i Group.obj
 0001:000024e0       ??$?4AEAV?$function@$$A6AXPEAX@Z@std@@XX@?$function@$$A6AXPEAX@Z@std@@QEAAAEAV01@AEAV01@@Z 00000001800034e0 f i Group.obj
 0001:00002560       ??$?4AEAV?$function@$$A6AXH@Z@std@@XX@?$function@$$A6AXH@Z@std@@QEAAAEAV01@AEAV01@@Z 0000000180003560 f i Group.obj
 0001:00002560       ??4?$function@$$A6AXH@Z@std@@QEAAAEAV01@AEBV01@@Z 0000000180003560 f i Group.obj
 0001:00002620       ?push_back@?$vector@PEAUuv_poll_s@@V?$allocator@PEAUuv_poll_s@@@std@@@std@@QEAAXAEBQEAUuv_poll_s@@@Z 0000000180003620 f i Group.obj
 0001:000026b0       ??4?$vector@PEAUuv_poll_s@@V?$allocator@PEAUuv_poll_s@@@std@@@std@@QEAAAEAV01@AEBV01@@Z 00000001800036b0 f i Group.obj
 0001:000027e0       ??0?$vector@PEAUuv_poll_s@@V?$allocator@PEAUuv_poll_s@@@std@@@std@@QEAA@AEBV01@@Z 00000001800037e0 f i Group.obj
 0001:00002890       ??4?$vector@UTransferData@NodeData@uS@@V?$allocator@UTransferData@NodeData@uS@@@std@@@std@@QEAAAEAV01@AEBV01@@Z 0000000180003890 f i Group.obj
 0001:00002a20       ?push_back@?$vector@UTransferData@NodeData@uS@@V?$allocator@UTransferData@NodeData@uS@@@std@@@std@@QEAAX$$QEAUTransferData@NodeData@uS@@@Z 0000000180003a20 f i Group.obj
 0001:00002af0       ??4?$vector@UTransferData@NodeData@uS@@V?$allocator@UTransferData@NodeData@uS@@@std@@@std@@QEAAAEAV01@$$QEAV01@@Z 0000000180003af0 f i Group.obj
 0001:00002b80       ??0?$vector@UTransferData@NodeData@uS@@V?$allocator@UTransferData@NodeData@uS@@@std@@@std@@QEAA@AEBV01@@Z 0000000180003b80 f i Group.obj
 0001:00002c50       ??4?$basic_string@DU?$char_traits@D@std@@V?$allocator@D@2@@std@@QEAAAEAV01@$$QEAV01@@Z 0000000180003c50 f i Group.obj
 0001:00002cf0       ?_Reset_move@?$_Func_class@XU?$WebSocket@$00@uWS@@PEAD_K@std@@IEAAX$$QEAV12@@Z 0000000180003cf0 f i Group.obj
 0001:00002cf0       ?_Reset_move@?$_Func_class@XU?$WebSocket@$0A@@uWS@@UUpgradeInfo@2@@std@@IEAAX$$QEAV12@@Z 0000000180003cf0 f i Group.obj
 0001:00002cf0       ?_Reset_move@?$_Func_class@XU?$WebSocket@$0A@@uWS@@PEAD_K@std@@IEAAX$$QEAV12@@Z 0000000180003cf0 f i Group.obj
 0001:00002cf0       ?_Reset_move@?$_Func_class@XU?$WebSocket@$0A@@uWS@@HPEAD_K@std@@IEAAX$$QEAV12@@Z 0000000180003cf0 f i Group.obj
 0001:00002cf0       ?_Reset_move@?$_Func_class@XU?$WebSocket@$00@uWS@@HPEAD_K@std@@IEAAX$$QEAV12@@Z 0000000180003cf0 f i Group.obj
 0001:00002cf0       ?_Reset_move@?$_Func_class@XPEAX@std@@IEAAX$$QEAV12@@Z 0000000180003cf0 f i Group.obj
 0001:00002cf0       ?_Reset_move@?$_Func_class@XU?$WebSocket@$00@uWS@@PEAD_KW4OpCode@2@@std@@IEAAX$$QEAV12@@Z 0000000180003cf0 f i Group.obj
 0001:00002cf0       ?_Reset_move@?$_Func_class@XU?$WebSocket@$00@uWS@@UUpgradeInfo@2@@std@@IEAAX$$QEAV12@@Z 0000000180003cf0 f i Group.obj
 0001:00002cf0       ?_Reset_move@?$_Func_class@XU?$WebSocket@$0A@@uWS@@PEAD_KW4OpCode@2@@std@@IEAAX$$QEAV12@@Z 0000000180003cf0 f i Group.obj
 0001:00002d60       ?_Tidy@?$_Func_class@XH@std@@IEAAXXZ 0000000180003d60 f i Group.obj
 0001:00002dc0       ?_Reset_move@?$_Func_class@XH@std@@IEAAX$$QEAV12@@Z 0000000180003dc0 f i Group.obj
 0001:00002e50       ?_Tidy@?$deque@PEAUuv_poll_s@@V?$allocator@PEAUuv_poll_s@@@std@@@std@@IEAAXXZ 0000000180003e50 f i Group.obj
 0001:00002f40       ??4?$deque@PEAUuv_poll_s@@V?$allocator@PEAUuv_poll_s@@@std@@@std@@QEAAAEAV01@AEBV01@@Z 0000000180003f40 f i Group.obj
 0001:00003190       ??4?$deque@PEAUuv_poll_s@@V?$allocator@PEAUuv_poll_s@@@std@@@std@@QEAAAEAV01@$$QEAV01@@Z 0000000180004190 f i Group.obj
 0001:00003210       ??0?$deque@PEAUuv_poll_s@@V?$allocator@PEAUuv_poll_s@@@std@@@std@@QEAA@$$QEAV01@@Z 0000000180004210 f i Group.obj
 0001:000032d0       ??0?$deque@PEAUuv_poll_s@@V?$allocator@PEAUuv_poll_s@@@std@@@std@@QEAA@AEBV01@@Z 00000001800042d0 f i Group.obj
 0001:00003390       ?deallocate@?$_Wrap_alloc@V?$allocator@PEAUuv_poll_s@@@std@@@std@@QEAAXPEAPEAUuv_poll_s@@_K@Z 0000000180004390 f i Group.obj
 0001:00003400       ?_Reserve@?$vector@PEAUuv_poll_s@@V?$allocator@PEAUuv_poll_s@@@std@@@std@@IEAAX_K@Z 0000000180004400 f i Group.obj
 0001:00003490       ?_Buy@?$vector@PEAUuv_poll_s@@V?$allocator@PEAUuv_poll_s@@@std@@@std@@IEAA_N_K@Z 0000000180004490 f i Group.obj
 0001:000034f0       ?deallocate@?$_Wrap_alloc@V?$allocator@UTransferData@NodeData@uS@@@std@@@std@@QEAAXPEAUTransferData@NodeData@uS@@_K@Z 00000001800044f0 f i Group.obj
 0001:00003560       ?_Reserve@?$vector@UTransferData@NodeData@uS@@V?$allocator@UTransferData@NodeData@uS@@@std@@@std@@IEAAX_K@Z 0000000180004560 f i Group.obj
 0001:00003630       ?_Buy@?$vector@UTransferData@NodeData@uS@@V?$allocator@UTransferData@NodeData@uS@@@std@@@std@@IEAA_N_K@Z 0000000180004630 f i Group.obj
 0001:000036a0       ?assign@?$basic_string@DU?$char_traits@D@std@@V?$allocator@D@2@@std@@QEAAAEAV12@AEBV12@_K1@Z 00000001800046a0 f i Group.obj
 0001:000037d0       ?_Swap@?$_Func_class@XU?$WebSocket@$00@uWS@@PEAD_K@std@@IEAAXAEAV12@@Z 00000001800047d0 f i Group.obj
 0001:000037d0       ?_Swap@?$_Func_class@XU?$WebSocket@$0A@@uWS@@UUpgradeInfo@2@@std@@IEAAXAEAV12@@Z 00000001800047d0 f i Group.obj
 0001:000037d0       ?_Swap@?$_Func_class@XU?$WebSocket@$00@uWS@@HPEAD_K@std@@IEAAXAEAV12@@Z 00000001800047d0 f i Group.obj
 0001:000037d0       ?_Swap@?$_Func_class@XU?$WebSocket@$00@uWS@@PEAD_KW4OpCode@2@@std@@IEAAXAEAV12@@Z 00000001800047d0 f i Group.obj
 0001:000037d0       ?_Swap@?$_Func_class@XU?$WebSocket@$00@uWS@@UUpgradeInfo@2@@std@@IEAAXAEAV12@@Z 00000001800047d0 f i Group.obj
 0001:000037d0       ?_Swap@?$_Func_class@XU?$WebSocket@$0A@@uWS@@PEAD_KW4OpCode@2@@std@@IEAAXAEAV12@@Z 00000001800047d0 f i Group.obj
 0001:000037d0       ?_Swap@?$_Func_class@XU?$WebSocket@$0A@@uWS@@PEAD_K@std@@IEAAXAEAV12@@Z 00000001800047d0 f i Group.obj
 0001:000037d0       ?_Swap@?$_Func_class@XPEAX@std@@IEAAXAEAV12@@Z 00000001800047d0 f i Group.obj
 0001:000037d0       ?_Swap@?$_Func_class@XU?$WebSocket@$0A@@uWS@@HPEAD_K@std@@IEAAXAEAV12@@Z 00000001800047d0 f i Group.obj
 0001:00003910       ?_Swap@?$_Func_class@XH@std@@IEAAXAEAV12@@Z 0000000180004910 f i Group.obj
 0001:00003a60       ?erase@?$deque@PEAUuv_poll_s@@V?$allocator@PEAUuv_poll_s@@@std@@@std@@QEAA?AV?$_Deque_iterator@V?$_Deque_val@U?$_Deque_simple_types@PEAUuv_poll_s@@@std@@@std@@@2@V?$_Deque_const_iterator@V?$_Deque_val@U?$_Deque_simple_types@PEAUuv_poll_s@@@std@@@std@@@2@0@Z 0000000180004a60 f i Group.obj
 0001:00003c90       ?_Reallocate@?$vector@PEAUuv_poll_s@@V?$allocator@PEAUuv_poll_s@@@std@@@std@@IEAAX_K@Z 0000000180004c90 f i Group.obj
 0001:00003d10       ?_Reallocate@?$vector@UTransferData@NodeData@uS@@V?$allocator@UTransferData@NodeData@uS@@@std@@@std@@IEAAX_K@Z 0000000180004d10 f i Group.obj
 0001:00003dd0       ?erase@?$basic_string@DU?$char_traits@D@std@@V?$allocator@D@2@@std@@QEAAAEAV12@_K0@Z 0000000180004dd0 f i Group.obj
 0001:00003ea0       ?allocate@?$allocator@PEAUuv_poll_s@@@std@@QEAAPEAPEAUuv_poll_s@@_K@Z 0000000180004ea0 f i Group.obj
 0001:00003f20       ?allocate@?$allocator@UTransferData@NodeData@uS@@@std@@QEAAPEAUTransferData@NodeData@uS@@_K@Z 0000000180004f20 f i Group.obj
 0001:00003fa0       ?setUserData@?$Group@$0A@@uWS@@QEAAXPEAX@Z 0000000180004fa0 f i Group.obj
 0001:00003fa0       ?setUserData@?$Group@$00@uWS@@QEAAXPEAX@Z 0000000180004fa0 f i Group.obj
 0001:00003fb0       ?getUserData@?$Group@$00@uWS@@QEAAPEAXXZ 0000000180004fb0 f i Group.obj
 0001:00003fb0       ?getUserData@?$Group@$0A@@uWS@@QEAAPEAXXZ 0000000180004fb0 f i Group.obj
 0001:00003fc0       ?startAutoPing@?$Group@$00@uWS@@QEAAXHV?$basic_string@DU?$char_traits@D@std@@V?$allocator@D@2@@std@@@Z 0000000180004fc0 f i Group.obj
 0001:00004070       ?timerCallback@?$Group@$00@uWS@@SAXPEAUuv_timer_s@@@Z 0000000180005070 f i Group.obj
 0001:000041b0       ?addWebSocket@?$Group@$00@uWS@@QEAAXPEAUuv_poll_s@@@Z 00000001800051b0 f i Group.obj
 0001:000041b0       ?addWebSocket@?$Group@$0A@@uWS@@QEAAXPEAUuv_poll_s@@@Z 00000001800051b0 f i Group.obj
 0001:000041e0       ?removeWebSocket@?$Group@$0A@@uWS@@QEAAXPEAUuv_poll_s@@@Z 00000001800051e0 f i Group.obj
 0001:000041e0       ?removeWebSocket@?$Group@$00@uWS@@QEAAXPEAUuv_poll_s@@@Z 00000001800051e0 f i Group.obj
 0001:000042a0       ??0?$Group@$00@uWS@@IEAA@HPEAUHub@1@PEAUNodeData@uS@@@Z 00000001800052a0 f i Group.obj
 0001:00004510       ?stopListening@?$Group@$00@uWS@@IEAAXXZ 0000000180005510 f i Group.obj
 0001:000045e0       ?onConnection@?$Group@$00@uWS@@QEAAXV?$function@$$A6AXU?$WebSocket@$00@uWS@@UUpgradeInfo@2@@Z@std@@@Z 00000001800055e0 f i Group.obj
 0001:000045e0       ?onConnection@?$Group@$0A@@uWS@@QEAAXV?$function@$$A6AXU?$WebSocket@$0A@@uWS@@UUpgradeInfo@2@@Z@std@@@Z 00000001800055e0 f i Group.obj
 0001:00004620       ?onMessage@?$Group@$00@uWS@@QEAAXV?$function@$$A6AXU?$WebSocket@$00@uWS@@PEAD_KW4OpCode@2@@Z@std@@@Z 0000000180005620 f i Group.obj
 0001:00004620       ?onMessage@?$Group@$0A@@uWS@@QEAAXV?$function@$$A6AXU?$WebSocket@$0A@@uWS@@PEAD_KW4OpCode@2@@Z@std@@@Z 0000000180005620 f i Group.obj
 0001:00004660       ?onDisconnection@?$Group@$0A@@uWS@@QEAAXV?$function@$$A6AXU?$WebSocket@$0A@@uWS@@HPEAD_K@Z@std@@@Z 0000000180005660 f i Group.obj
 0001:00004660       ?onDisconnection@?$Group@$00@uWS@@QEAAXV?$function@$$A6AXU?$WebSocket@$00@uWS@@HPEAD_K@Z@std@@@Z 0000000180005660 f i Group.obj
 0001:000046a0       ?onPing@?$Group@$0A@@uWS@@QEAAXV?$function@$$A6AXU?$WebSocket@$0A@@uWS@@PEAD_K@Z@std@@@Z 00000001800056a0 f i Group.obj
 0001:000046a0       ?onPing@?$Group@$00@uWS@@QEAAXV?$function@$$A6AXU?$WebSocket@$00@uWS@@PEAD_K@Z@std@@@Z 00000001800056a0 f i Group.obj
 0001:000046e0       ?onPong@?$Group@$0A@@uWS@@QEAAXV?$function@$$A6AXU?$WebSocket@$0A@@uWS@@PEAD_K@Z@std@@@Z 00000001800056e0 f i Group.obj
 0001:000046e0       ?onPong@?$Group@$00@uWS@@QEAAXV?$function@$$A6AXU?$WebSocket@$00@uWS@@PEAD_K@Z@std@@@Z 00000001800056e0 f i Group.obj
 0001:00004720       ?onError@?$Group@$00@uWS@@QEAAXV?$function@$$A6AXH@Z@std@@@Z 0000000180005720 f i Group.obj
 0001:00004790       ?broadcast@?$Group@$00@uWS@@QEAAXPEBD_KW4OpCode@2@@Z 0000000180005790 f i Group.obj
 0001:00004800       ?terminate@?$Group@$00@uWS@@QEAAXXZ 0000000180005800 f i Group.obj
 0001:00004820       ?close@?$Group@$00@uWS@@QEAAXHPEAD_K@Z 0000000180005820 f i Group.obj
 0001:00004880       ?startAutoPing@?$Group@$0A@@uWS@@QEAAXHV?$basic_string@DU?$char_traits@D@std@@V?$allocator@D@2@@std@@@Z 0000000180005880 f i Group.obj
 0001:00004930       ?timerCallback@?$Group@$0A@@uWS@@SAXPEAUuv_timer_s@@@Z 0000000180005930 f i Group.obj
 0001:00004a30       ??0?$Group@$0A@@uWS@@IEAA@HPEAUHub@1@PEAUNodeData@uS@@@Z 0000000180005a30 f i Group.obj
 0001:00004c90       ?stopListening@?$Group@$0A@@uWS@@IEAAXXZ 0000000180005c90 f i Group.obj
 0001:00004cb0       ?onError@?$Group@$0A@@uWS@@QEAAXV?$function@$$A6AXPEAX@Z@std@@@Z 0000000180005cb0 f i Group.obj
 0001:00004cf0       ?broadcast@?$Group@$0A@@uWS@@QEAAXPEBD_KW4OpCode@2@@Z 0000000180005cf0 f i Group.obj
 0001:00004d60       ?terminate@?$Group@$0A@@uWS@@QEAAXXZ 0000000180005d60 f i Group.obj
 0001:00004d90       ?close@?$Group@$0A@@uWS@@QEAAXHPEAD_K@Z 0000000180005d90 f i Group.obj
 0001:00004e00       ??$copy@V?$_Deque_const_iterator@V?$_Deque_val@U?$_Deque_simple_types@PEAUuv_poll_s@@@std@@@std@@@std@@V?$_Deque_iterator@V?$_Deque_val@U?$_Deque_simple_types@PEAUuv_poll_s@@@std@@@std@@@2@@std@@YA?AV?$_Deque_iterator@V?$_Deque_val@U?$_Deque_simple_types@PEAUuv_poll_s@@@std@@@std@@@0@V?$_Deque_const_iterator@V?$_Deque_val@U?$_Deque_simple_types@PEAUuv_poll_s@@@std@@@std@@@0@0V10@@Z 0000000180005e00 f i Group.obj
 0001:00004ea0       ??$insert@V?$_Deque_const_iterator@V?$_Deque_val@U?$_Deque_simple_types@PEAUuv_poll_s@@@std@@@std@@@std@@@?$deque@PEAUuv_poll_s@@V?$allocator@PEAUuv_poll_s@@@std@@@std@@QEAA?AV?$_Deque_iterator@V?$_Deque_val@U?$_Deque_simple_types@PEAUuv_poll_s@@@std@@@std@@@1@V?$_Deque_const_iterator@V?$_Deque_val@U?$_Deque_simple_types@PEAUuv_poll_s@@@std@@@std@@@1@00@Z 0000000180005ea0 f i Group.obj
 0001:00005150       ??$move_backward@V?$_Deque_iterator@V?$_Deque_val@U?$_Deque_simple_types@PEAUuv_poll_s@@@std@@@std@@@std@@V12@@std@@YA?AV?$_Deque_iterator@V?$_Deque_val@U?$_Deque_simple_types@PEAUuv_poll_s@@@std@@@std@@@0@V10@00@Z 0000000180006150 f i Group.obj
 0001:00005230       ??D?$_Deque_const_iterator@V?$_Deque_val@U?$_Deque_simple_types@PEAUuv_poll_s@@@std@@@std@@@std@@QEBAAEBQEAUuv_poll_s@@XZ 0000000180006230 f i Group.obj
 0001:00005270       ?push_back@?$deque@PEAUuv_poll_s@@V?$allocator@PEAUuv_poll_s@@@std@@@std@@QEAAXAEBQEAUuv_poll_s@@@Z 0000000180006270 f i Group.obj
 0001:00005270       ??$emplace_back@AEBQEAUuv_poll_s@@@?$deque@PEAUuv_poll_s@@V?$allocator@PEAUuv_poll_s@@@std@@@std@@QEAAXAEBQEAUuv_poll_s@@@Z 0000000180006270 f i Group.obj
 0001:00005340       ?push_front@?$deque@PEAUuv_poll_s@@V?$allocator@PEAUuv_poll_s@@@std@@@std@@QEAAXAEBQEAUuv_poll_s@@@Z 0000000180006340 f i Group.obj
 0001:00005420       ?_Growmap@?$deque@PEAUuv_poll_s@@V?$allocator@PEAUuv_poll_s@@@std@@@std@@IEAAX_K@Z 0000000180006420 f i Group.obj
 0001:00005680       ??$forEach@V<lambda_c2edf0e2dc9e10054d72e65ebb088755>@@@?$Group@$00@uWS@@QEAAXAEBV<lambda_c2edf0e2dc9e10054d72e65ebb088755>@@@Z 0000000180006680 f i Group.obj
 0001:000057d0       ??$forEach@V<lambda_0650baab1db549251dd31798d15c929b>@@@?$Group@$0A@@uWS@@QEAAXAEBV<lambda_0650baab1db549251dd31798d15c929b>@@@Z 00000001800067d0 f i Group.obj
 0001:000057d0       ??$forEach@V<lambda_d787a518b6beed356ed63566ee1cbe4d>@@@?$Group@$00@uWS@@QEAAXAEBV<lambda_d787a518b6beed356ed63566ee1cbe4d>@@@Z 00000001800067d0 f i Group.obj
 0001:00005930       ??$forEach@V<lambda_49e54e2a1dbef38bd6f58e82ae859242>@@@?$Group@$00@uWS@@QEAAXAEBV<lambda_49e54e2a1dbef38bd6f58e82ae859242>@@@Z 0000000180006930 f i Group.obj
 0001:00005a70       ??$forEach@V<lambda_869c9161dc3019e76c26fea210f73502>@@@?$Group@$00@uWS@@QEAAXAEBV<lambda_869c9161dc3019e76c26fea210f73502>@@@Z 0000000180006a70 f i Group.obj
 0001:00005bd0       ??$forEach@V<lambda_52936f14fe3bd153dc0d4faf9b8126b7>@@@?$Group@$0A@@uWS@@QEAAXAEBV<lambda_52936f14fe3bd153dc0d4faf9b8126b7>@@@Z 0000000180006bd0 f i Group.obj
 0001:00005d20       ??$forEach@V<lambda_6875d533c175add33c19e721db1dd900>@@@?$Group@$0A@@uWS@@QEAAXAEBV<lambda_6875d533c175add33c19e721db1dd900>@@@Z 0000000180006d20 f i Group.obj
 0001:00005e60       ??$forEach@V<lambda_d5f8ffc71ab5690f74f9e75d076fc5d9>@@@?$Group@$0A@@uWS@@QEAAXAEBV<lambda_d5f8ffc71ab5690f74f9e75d076fc5d9>@@@Z 0000000180006e60 f i Group.obj
 0001:00005fc0       ??$_Copy_no_deprecate@V?$_Deque_const_iterator@V?$_Deque_val@U?$_Deque_simple_types@PEAUuv_poll_s@@@std@@@std@@@std@@V?$_Deque_iterator@V?$_Deque_val@U?$_Deque_simple_types@PEAUuv_poll_s@@@std@@@std@@@2@@std@@YA?AV?$_Deque_iterator@V?$_Deque_val@U?$_Deque_simple_types@PEAUuv_poll_s@@@std@@@std@@@0@V?$_Deque_const_iterator@V?$_Deque_val@U?$_Deque_simple_types@PEAUuv_poll_s@@@std@@@std@@@0@0V10@@Z 0000000180006fc0 f i Group.obj
 0001:00005fc0       ??$_Move_no_deprecate@V?$_Deque_iterator@V?$_Deque_val@U?$_Deque_simple_types@PEAUuv_poll_s@@@std@@@std@@@std@@V12@@std@@YA?AV?$_Deque_iterator@V?$_Deque_val@U?$_Deque_simple_types@PEAUuv_poll_s@@@std@@@std@@@0@V10@00@Z 0000000180006fc0 f i Group.obj
 0001:000060a0       ??$reverse@V?$_Deque_iterator@V?$_Deque_val@U?$_Deque_simple_types@PEAUuv_poll_s@@@std@@@std@@@std@@@std@@YAXV?$_Deque_iterator@V?$_Deque_val@U?$_Deque_simple_types@PEAUuv_poll_s@@@std@@@std@@@0@0@Z 00000001800070a0 f i Group.obj
 0001:000061a0       ??$rotate@V?$_Deque_iterator@V?$_Deque_val@U?$_Deque_simple_types@PEAUuv_poll_s@@@std@@@std@@@std@@@std@@YA?AV?$_Deque_iterator@V?$_Deque_val@U?$_Deque_simple_types@PEAUuv_poll_s@@@std@@@std@@@0@V10@00@Z 00000001800071a0 f i Group.obj
 0001:00006330       ??$_Move_backward1@V?$_Deque_unchecked_iterator@V?$_Deque_val@U?$_Deque_simple_types@PEAUuv_poll_s@@@std@@@std@@@std@@V?$_Deque_iterator@V?$_Deque_val@U?$_Deque_simple_types@PEAUuv_poll_s@@@std@@@std@@@2@@std@@YA?AV?$_Deque_iterator@V?$_Deque_val@U?$_Deque_simple_types@PEAUuv_poll_s@@@std@@@std@@@0@V?$_Deque_unchecked_iterator@V?$_Deque_val@U?$_Deque_simple_types@PEAUuv_poll_s@@@std@@@std@@@0@0V10@Urandom_access_iterator_tag@0@2@Z 0000000180007330 f i Group.obj
 0001:00006460       ??$_Move_no_deprecate1@V?$_Deque_unchecked_iterator@V?$_Deque_val@U?$_Deque_simple_types@PEAUuv_poll_s@@@std@@@std@@@std@@V?$_Deque_iterator@V?$_Deque_val@U?$_Deque_simple_types@PEAUuv_poll_s@@@std@@@std@@@2@@std@@YA?AV?$_Deque_iterator@V?$_Deque_val@U?$_Deque_simple_types@PEAUuv_poll_s@@@std@@@std@@@0@V?$_Deque_unchecked_iterator@V?$_Deque_val@U?$_Deque_simple_types@PEAUuv_poll_s@@@std@@@std@@@0@0V10@Urandom_access_iterator_tag@0@2@Z 0000000180007460 f i Group.obj
 0001:00006460       ??$_Copy_no_deprecate1@V?$_Deque_unchecked_const_iterator@V?$_Deque_val@U?$_Deque_simple_types@PEAUuv_poll_s@@@std@@@std@@@std@@V?$_Deque_iterator@V?$_Deque_val@U?$_Deque_simple_types@PEAUuv_poll_s@@@std@@@std@@@2@@std@@YA?AV?$_Deque_iterator@V?$_Deque_val@U?$_Deque_simple_types@PEAUuv_poll_s@@@std@@@std@@@0@V?$_Deque_unchecked_const_iterator@V?$_Deque_val@U?$_Deque_simple_types@PEAUuv_poll_s@@@std@@@std@@@0@0V10@Urandom_access_iterator_tag@0@2@Z 0000000180007460 f i Group.obj
 0001:00006590       ??$_Rotate@V?$_Deque_unchecked_iterator@V?$_Deque_val@U?$_Deque_simple_types@PEAUuv_poll_s@@@std@@@std@@@std@@@std@@YA?AV?$_Deque_unchecked_iterator@V?$_Deque_val@U?$_Deque_simple_types@PEAUuv_poll_s@@@std@@@std@@@0@V10@00Urandom_access_iterator_tag@0@@Z 0000000180007590 f i Group.obj
 0001:000067c0       ?_Delete_this@?$_Func_impl@V<lambda_5340ffcb4045c7e221e6ed34d69e440b>@@V?$allocator@H@std@@XU?$WebSocket@$00@uWS@@PEAD_K@std@@EEAAX_N@Z 00000001800077c0 f i addon.obj
 0001:000067c0       ?_Delete_this@?$_Func_impl@V<lambda_13e57b1e6f46784fe5e88169e8d03d4a>@@V?$allocator@H@std@@XH@std@@EEAAX_N@Z 00000001800077c0 f i Group.obj
 0001:000067c0       ?_Delete_this@?$_Func_impl@V<lambda_1df6e9150329589b41c0fe6f8b1f264e>@@V?$allocator@H@std@@XU?$WebSocket@$0A@@uWS@@HPEAD_K@std@@EEAAX_N@Z 00000001800077c0 f i addon.obj
 0001:000067c0       ?_Delete_this@?$_Func_impl@V<lambda_e603fd495cf5a235430e5b5080b4caa2>@@V?$allocator@H@std@@XU?$WebSocket@$0A@@uWS@@PEAD_K@std@@EEAAX_N@Z 00000001800077c0 f i Group.obj
 0001:000067c0       ?_Delete_this@?$_Func_impl@V<lambda_2084e076f6151854c0db1be6acabce48>@@V?$allocator@H@std@@XPEAX@std@@EEAAX_N@Z 00000001800077c0 f i addon.obj
 0001:000067c0       ?_Delete_this@?$_Func_impl@V<lambda_920f95ed73d1043375081833dac2d3c1>@@V?$allocator@H@std@@XU?$WebSocket@$00@uWS@@PEAD_KW4OpCode@5@@std@@EEAAX_N@Z 00000001800077c0 f i Group.obj
 0001:000067c0       ?_Delete_this@?$_Func_impl@V<lambda_c9a652ce08ab70a880491b309a6e9b7f>@@V?$allocator@H@std@@XU?$WebSocket@$0A@@uWS@@PEAD_KW4OpCode@5@@std@@EEAAX_N@Z 00000001800077c0 f i addon.obj
 0001:000067c0       ?_Delete_this@?$_Func_impl@V<lambda_a0d45c30ed7d53f13017b910323e74db>@@V?$allocator@H@std@@XU?$WebSocket@$0A@@uWS@@UUpgradeInfo@5@@std@@EEAAX_N@Z 00000001800077c0 f i addon.obj
 0001:000067c0       ?_Delete_this@?$_Func_impl@V<lambda_253b4a1404c612c2f71c88eb2317caa4>@@V?$allocator@H@std@@XU?$WebSocket@$00@uWS@@PEAD_KW4OpCode@5@@std@@EEAAX_N@Z 00000001800077c0 f i addon.obj
 0001:000067c0       ?_Delete_this@?$_Func_impl@V<lambda_3d86c511e010b43e6f8203b61383b85c>@@V?$allocator@H@std@@XU?$WebSocket@$0A@@uWS@@PEAD_KW4OpCode@5@@std@@EEAAX_N@Z 00000001800077c0 f i Group.obj
 0001:000067c0       ?_Delete_this@?$_Func_impl@V<lambda_d7bdfb5a58f2c1f8ad741cf189cc386b>@@V?$allocator@H@std@@XU?$WebSocket@$00@uWS@@HPEAD_K@std@@EEAAX_N@Z 00000001800077c0 f i addon.obj
 0001:000067c0       ?_Delete_this@?$_Func_impl@V<lambda_f05790a8ac7f1f0c4e43cd67fdc7b60b>@@V?$allocator@H@std@@XU?$WebSocket@$00@uWS@@UUpgradeInfo@5@@std@@EEAAX_N@Z 00000001800077c0 f i Group.obj
 0001:000067c0       ?_Delete_this@?$_Func_impl@V<lambda_30da2cf7fb27dca016834439ea08639b>@@V?$allocator@H@std@@XU?$WebSocket@$0A@@uWS@@PEAD_K@std@@EEAAX_N@Z 00000001800077c0 f i addon.obj
 0001:000067c0       ?_Delete_this@?$_Func_impl@V<lambda_a6cfd1bcc674317fad83658b5d0786e9>@@V?$allocator@H@std@@XU?$WebSocket@$00@uWS@@PEAD_K@std@@EEAAX_N@Z 00000001800077c0 f i addon.obj
 0001:000067c0       ?_Delete_this@?$_Func_impl@V<lambda_daa4108c0f85d8cc00ee44b5f15cb0cf>@@V?$allocator@H@std@@XU?$WebSocket@$00@uWS@@PEAD_K@std@@EEAAX_N@Z 00000001800077c0 f i Group.obj
 0001:000067c0       ?_Delete_this@?$_Func_impl@V<lambda_5736c457d53447cfc1bfb3a81f663ee9>@@V?$allocator@H@std@@XU?$WebSocket@$0A@@uWS@@UUpgradeInfo@5@@std@@EEAAX_N@Z 00000001800077c0 f i Group.obj
 0001:000067c0       ?_Delete_this@?$_Func_impl@V<lambda_6cf58e420d6c310e5678e01e82a10463>@@V?$allocator@H@std@@XPEAX@std@@EEAAX_N@Z 00000001800077c0 f i Group.obj
 0001:000067c0       ?_Delete_this@?$_Func_impl@V<lambda_185a28332b424bb2e46d1162c88273d4>@@V?$allocator@H@std@@XU?$WebSocket@$0A@@uWS@@PEAD_K@std@@EEAAX_N@Z 00000001800077c0 f i addon.obj
 0001:000067c0       ?_Delete_this@?$_Func_impl@V<lambda_9f4f12a84d8f5559c2caf0fccde4cecf>@@V?$allocator@H@std@@XU?$WebSocket@$00@uWS@@UUpgradeInfo@5@@std@@EEAAX_N@Z 00000001800077c0 f i addon.obj
 0001:000067c0       ?_Delete_this@?$_Func_impl@V<lambda_8a3e0fb102bfd2d8e0f223fe18fbe897>@@V?$allocator@H@std@@XU?$WebSocket@$0A@@uWS@@HPEAD_K@std@@EEAAX_N@Z 00000001800077c0 f i Group.obj
 0001:000067c0       ?_Delete_this@?$_Func_impl@V<lambda_caac1bcd1aa04a978a1724d6bfd6f36e>@@V?$allocator@H@std@@XU?$WebSocket@$00@uWS@@HPEAD_K@std@@EEAAX_N@Z 00000001800077c0 f i Group.obj
 0001:000067e0       ?_Get@?$_Func_impl@V<lambda_f05790a8ac7f1f0c4e43cd67fdc7b60b>@@V?$allocator@H@std@@XU?$WebSocket@$00@uWS@@UUpgradeInfo@5@@std@@EEBAPEBXXZ 00000001800077e0 f i Group.obj
 0001:000067e0       ?_Get@?$_Func_impl@V<lambda_2084e076f6151854c0db1be6acabce48>@@V?$allocator@H@std@@XPEAX@std@@EEBAPEBXXZ 00000001800077e0 f i addon.obj
 0001:000067e0       ?_Get@?$_Func_impl@V<lambda_8a3e0fb102bfd2d8e0f223fe18fbe897>@@V?$allocator@H@std@@XU?$WebSocket@$0A@@uWS@@HPEAD_K@std@@EEBAPEBXXZ 00000001800077e0 f i Group.obj
 0001:000067e0       ?_Get@?$_Func_impl@V<lambda_9f4f12a84d8f5559c2caf0fccde4cecf>@@V?$allocator@H@std@@XU?$WebSocket@$00@uWS@@UUpgradeInfo@5@@std@@EEBAPEBXXZ 00000001800077e0 f i addon.obj
 0001:000067e0       ?_Get@?$_Func_impl@V<lambda_30da2cf7fb27dca016834439ea08639b>@@V?$allocator@H@std@@XU?$WebSocket@$0A@@uWS@@PEAD_K@std@@EEBAPEBXXZ 00000001800077e0 f i addon.obj
 0001:000067e0       ?_Get@?$_Func_impl@V<lambda_13e57b1e6f46784fe5e88169e8d03d4a>@@V?$allocator@H@std@@XH@std@@EEBAPEBXXZ 00000001800077e0 f i Group.obj
 0001:000067e0       ?_Get@?$_Func_impl@V<lambda_6cf58e420d6c310e5678e01e82a10463>@@V?$allocator@H@std@@XPEAX@std@@EEBAPEBXXZ 00000001800077e0 f i Group.obj
 0001:000067e0       ?_Get@?$_Func_impl@V<lambda_a6cfd1bcc674317fad83658b5d0786e9>@@V?$allocator@H@std@@XU?$WebSocket@$00@uWS@@PEAD_K@std@@EEBAPEBXXZ 00000001800077e0 f i addon.obj
 0001:000067e0       ?_Get@?$_Func_impl@V<lambda_c9a652ce08ab70a880491b309a6e9b7f>@@V?$allocator@H@std@@XU?$WebSocket@$0A@@uWS@@PEAD_KW4OpCode@5@@std@@EEBAPEBXXZ 00000001800077e0 f i addon.obj
 0001:000067e0       ?_Get@?$_Func_impl@V<lambda_185a28332b424bb2e46d1162c88273d4>@@V?$allocator@H@std@@XU?$WebSocket@$0A@@uWS@@PEAD_K@std@@EEBAPEBXXZ 00000001800077e0 f i addon.obj
 0001:000067e0       ?_Get@?$_Func_impl@V<lambda_253b4a1404c612c2f71c88eb2317caa4>@@V?$allocator@H@std@@XU?$WebSocket@$00@uWS@@PEAD_KW4OpCode@5@@std@@EEBAPEBXXZ 00000001800077e0 f i addon.obj
 0001:000067e0       ?_Get@?$_Func_impl@V<lambda_5340ffcb4045c7e221e6ed34d69e440b>@@V?$allocator@H@std@@XU?$WebSocket@$00@uWS@@PEAD_K@std@@EEBAPEBXXZ 00000001800077e0 f i addon.obj
 0001:000067e0       ?_Get@?$_Func_impl@V<lambda_1df6e9150329589b41c0fe6f8b1f264e>@@V?$allocator@H@std@@XU?$WebSocket@$0A@@uWS@@HPEAD_K@std@@EEBAPEBXXZ 00000001800077e0 f i addon.obj
 0001:000067e0       _Mtx_getconcrtcs           00000001800077e0 f i libcpmt:mutex.obj
 0001:000067e0       ?_Get@?$_Func_impl@V<lambda_d7bdfb5a58f2c1f8ad741cf189cc386b>@@V?$allocator@H@std@@XU?$WebSocket@$00@uWS@@HPEAD_K@std@@EEBAPEBXXZ 00000001800077e0 f i addon.obj
 0001:000067e0       ?_Get@?$_Func_impl@V<lambda_5736c457d53447cfc1bfb3a81f663ee9>@@V?$allocator@H@std@@XU?$WebSocket@$0A@@uWS@@UUpgradeInfo@5@@std@@EEBAPEBXXZ 00000001800077e0 f i Group.obj
 0001:000067e0       ?_Get@?$_Func_impl@V<lambda_3d86c511e010b43e6f8203b61383b85c>@@V?$allocator@H@std@@XU?$WebSocket@$0A@@uWS@@PEAD_KW4OpCode@5@@std@@EEBAPEBXXZ 00000001800077e0 f i Group.obj
 0001:000067e0       ?_Get@?$_Func_impl@V<lambda_a0d45c30ed7d53f13017b910323e74db>@@V?$allocator@H@std@@XU?$WebSocket@$0A@@uWS@@UUpgradeInfo@5@@std@@EEBAPEBXXZ 00000001800077e0 f i addon.obj
 0001:000067e0       ?_Get@?$_Func_impl@V<lambda_920f95ed73d1043375081833dac2d3c1>@@V?$allocator@H@std@@XU?$WebSocket@$00@uWS@@PEAD_KW4OpCode@5@@std@@EEBAPEBXXZ 00000001800077e0 f i Group.obj
 0001:000067e0       ?_Get@?$_Func_impl@V<lambda_e603fd495cf5a235430e5b5080b4caa2>@@V?$allocator@H@std@@XU?$WebSocket@$0A@@uWS@@PEAD_K@std@@EEBAPEBXXZ 00000001800077e0 f i Group.obj
 0001:000067e0       ?_Get@?$_Func_impl@V<lambda_daa4108c0f85d8cc00ee44b5f15cb0cf>@@V?$allocator@H@std@@XU?$WebSocket@$00@uWS@@PEAD_K@std@@EEBAPEBXXZ 00000001800077e0 f i Group.obj
 0001:000067e0       ?_Get@?$_Func_impl@V<lambda_caac1bcd1aa04a978a1724d6bfd6f36e>@@V?$allocator@H@std@@XU?$WebSocket@$00@uWS@@HPEAD_K@std@@EEBAPEBXXZ 00000001800077e0 f i Group.obj
 0001:000067f0       ?_Target_type@?$_Func_impl@V<lambda_6cf58e420d6c310e5678e01e82a10463>@@V?$allocator@H@std@@XPEAX@std@@EEBAAEBVtype_info@@XZ 00000001800077f0 f i Group.obj
 0001:00006800       ?_Move@?$_Func_impl@V<lambda_6cf58e420d6c310e5678e01e82a10463>@@V?$allocator@H@std@@XPEAX@std@@EEAAPEAV?$_Func_base@XPEAX@2@PEAX@Z 0000000180007800 f i Group.obj
 0001:00006800       ?_Copy@?$_Func_impl@V<lambda_6cf58e420d6c310e5678e01e82a10463>@@V?$allocator@H@std@@XPEAX@std@@EEBAPEAV?$_Func_base@XPEAX@2@PEAX@Z 0000000180007800 f i Group.obj
 0001:00006820       ?_Target_type@?$_Func_impl@V<lambda_e603fd495cf5a235430e5b5080b4caa2>@@V?$allocator@H@std@@XU?$WebSocket@$0A@@uWS@@PEAD_K@std@@EEBAAEBVtype_info@@XZ 0000000180007820 f i Group.obj
 0001:00006830       ?_Copy@?$_Func_impl@V<lambda_e603fd495cf5a235430e5b5080b4caa2>@@V?$allocator@H@std@@XU?$WebSocket@$0A@@uWS@@PEAD_K@std@@EEBAPEAV?$_Func_base@XU?$WebSocket@$0A@@uWS@@PEAD_K@2@PEAX@Z 0000000180007830 f i Group.obj
 0001:00006830       ?_Move@?$_Func_impl@V<lambda_e603fd495cf5a235430e5b5080b4caa2>@@V?$allocator@H@std@@XU?$WebSocket@$0A@@uWS@@PEAD_K@std@@EEAAPEAV?$_Func_base@XU?$WebSocket@$0A@@uWS@@PEAD_K@2@PEAX@Z 0000000180007830 f i Group.obj
 0001:00006850       ?_Target_type@?$_Func_impl@V<lambda_8a3e0fb102bfd2d8e0f223fe18fbe897>@@V?$allocator@H@std@@XU?$WebSocket@$0A@@uWS@@HPEAD_K@std@@EEBAAEBVtype_info@@XZ 0000000180007850 f i Group.obj
 0001:00006860       ?_Move@?$_Func_impl@V<lambda_8a3e0fb102bfd2d8e0f223fe18fbe897>@@V?$allocator@H@std@@XU?$WebSocket@$0A@@uWS@@HPEAD_K@std@@EEAAPEAV?$_Func_base@XU?$WebSocket@$0A@@uWS@@HPEAD_K@2@PEAX@Z 0000000180007860 f i Group.obj
 0001:00006860       ?_Copy@?$_Func_impl@V<lambda_8a3e0fb102bfd2d8e0f223fe18fbe897>@@V?$allocator@H@std@@XU?$WebSocket@$0A@@uWS@@HPEAD_K@std@@EEBAPEAV?$_Func_base@XU?$WebSocket@$0A@@uWS@@HPEAD_K@2@PEAX@Z 0000000180007860 f i Group.obj
 0001:00006880       ?_Target_type@?$_Func_impl@V<lambda_3d86c511e010b43e6f8203b61383b85c>@@V?$allocator@H@std@@XU?$WebSocket@$0A@@uWS@@PEAD_KW4OpCode@5@@std@@EEBAAEBVtype_info@@XZ 0000000180007880 f i Group.obj
 0001:00006890       ?_Move@?$_Func_impl@V<lambda_3d86c511e010b43e6f8203b61383b85c>@@V?$allocator@H@std@@XU?$WebSocket@$0A@@uWS@@PEAD_KW4OpCode@5@@std@@EEAAPEAV?$_Func_base@XU?$WebSocket@$0A@@uWS@@PEAD_KW4OpCode@2@@2@PEAX@Z 0000000180007890 f i Group.obj
 0001:00006890       ?_Copy@?$_Func_impl@V<lambda_3d86c511e010b43e6f8203b61383b85c>@@V?$allocator@H@std@@XU?$WebSocket@$0A@@uWS@@PEAD_KW4OpCode@5@@std@@EEBAPEAV?$_Func_base@XU?$WebSocket@$0A@@uWS@@PEAD_KW4OpCode@2@@2@PEAX@Z 0000000180007890 f i Group.obj
 0001:000068b0       ?_Target_type@?$_Func_impl@V<lambda_5736c457d53447cfc1bfb3a81f663ee9>@@V?$allocator@H@std@@XU?$WebSocket@$0A@@uWS@@UUpgradeInfo@5@@std@@EEBAAEBVtype_info@@XZ 00000001800078b0 f i Group.obj
 0001:000068c0       ?_Move@?$_Func_impl@V<lambda_5736c457d53447cfc1bfb3a81f663ee9>@@V?$allocator@H@std@@XU?$WebSocket@$0A@@uWS@@UUpgradeInfo@5@@std@@EEAAPEAV?$_Func_base@XU?$WebSocket@$0A@@uWS@@UUpgradeInfo@2@@2@PEAX@Z 00000001800078c0 f i Group.obj
 0001:000068c0       ?_Copy@?$_Func_impl@V<lambda_5736c457d53447cfc1bfb3a81f663ee9>@@V?$allocator@H@std@@XU?$WebSocket@$0A@@uWS@@UUpgradeInfo@5@@std@@EEBAPEAV?$_Func_base@XU?$WebSocket@$0A@@uWS@@UUpgradeInfo@2@@2@PEAX@Z 00000001800078c0 f i Group.obj
 0001:000068e0       ?_Target_type@?$_Func_impl@V<lambda_13e57b1e6f46784fe5e88169e8d03d4a>@@V?$allocator@H@std@@XH@std@@EEBAAEBVtype_info@@XZ 00000001800078e0 f i Group.obj
 0001:000068f0       ?_Copy@?$_Func_impl@V<lambda_13e57b1e6f46784fe5e88169e8d03d4a>@@V?$allocator@H@std@@XH@std@@EEBAPEAV?$_Func_base@XH@2@PEAX@Z 00000001800078f0 f i Group.obj
 0001:000068f0       ?_Move@?$_Func_impl@V<lambda_13e57b1e6f46784fe5e88169e8d03d4a>@@V?$allocator@H@std@@XH@std@@EEAAPEAV?$_Func_base@XH@2@PEAX@Z 00000001800078f0 f i Group.obj
 0001:00006910       ?_Target_type@?$_Func_impl@V<lambda_daa4108c0f85d8cc00ee44b5f15cb0cf>@@V?$allocator@H@std@@XU?$WebSocket@$00@uWS@@PEAD_K@std@@EEBAAEBVtype_info@@XZ 0000000180007910 f i Group.obj
 0001:00006920       ?_Move@?$_Func_impl@V<lambda_daa4108c0f85d8cc00ee44b5f15cb0cf>@@V?$allocator@H@std@@XU?$WebSocket@$00@uWS@@PEAD_K@std@@EEAAPEAV?$_Func_base@XU?$WebSocket@$00@uWS@@PEAD_K@2@PEAX@Z 0000000180007920 f i Group.obj
 0001:00006920       ?_Copy@?$_Func_impl@V<lambda_daa4108c0f85d8cc00ee44b5f15cb0cf>@@V?$allocator@H@std@@XU?$WebSocket@$00@uWS@@PEAD_K@std@@EEBAPEAV?$_Func_base@XU?$WebSocket@$00@uWS@@PEAD_K@2@PEAX@Z 0000000180007920 f i Group.obj
 0001:00006940       ?_Target_type@?$_Func_impl@V<lambda_caac1bcd1aa04a978a1724d6bfd6f36e>@@V?$allocator@H@std@@XU?$WebSocket@$00@uWS@@HPEAD_K@std@@EEBAAEBVtype_info@@XZ 0000000180007940 f i Group.obj
 0001:00006950       ?_Move@?$_Func_impl@V<lambda_caac1bcd1aa04a978a1724d6bfd6f36e>@@V?$allocator@H@std@@XU?$WebSocket@$00@uWS@@HPEAD_K@std@@EEAAPEAV?$_Func_base@XU?$WebSocket@$00@uWS@@HPEAD_K@2@PEAX@Z 0000000180007950 f i Group.obj
 0001:00006950       ?_Copy@?$_Func_impl@V<lambda_caac1bcd1aa04a978a1724d6bfd6f36e>@@V?$allocator@H@std@@XU?$WebSocket@$00@uWS@@HPEAD_K@std@@EEBAPEAV?$_Func_base@XU?$WebSocket@$00@uWS@@HPEAD_K@2@PEAX@Z 0000000180007950 f i Group.obj
 0001:00006970       ?_Target_type@?$_Func_impl@V<lambda_920f95ed73d1043375081833dac2d3c1>@@V?$allocator@H@std@@XU?$WebSocket@$00@uWS@@PEAD_KW4OpCode@5@@std@@EEBAAEBVtype_info@@XZ 0000000180007970 f i Group.obj
 0001:00006980       ?_Move@?$_Func_impl@V<lambda_920f95ed73d1043375081833dac2d3c1>@@V?$allocator@H@std@@XU?$WebSocket@$00@uWS@@PEAD_KW4OpCode@5@@std@@EEAAPEAV?$_Func_base@XU?$WebSocket@$00@uWS@@PEAD_KW4OpCode@2@@2@PEAX@Z 0000000180007980 f i Group.obj
 0001:00006980       ?_Copy@?$_Func_impl@V<lambda_920f95ed73d1043375081833dac2d3c1>@@V?$allocator@H@std@@XU?$WebSocket@$00@uWS@@PEAD_KW4OpCode@5@@std@@EEBAPEAV?$_Func_base@XU?$WebSocket@$00@uWS@@PEAD_KW4OpCode@2@@2@PEAX@Z 0000000180007980 f i Group.obj
 0001:000069a0       ?_Target_type@?$_Func_impl@V<lambda_f05790a8ac7f1f0c4e43cd67fdc7b60b>@@V?$allocator@H@std@@XU?$WebSocket@$00@uWS@@UUpgradeInfo@5@@std@@EEBAAEBVtype_info@@XZ 00000001800079a0 f i Group.obj
 0001:000069b0       ?_Copy@?$_Func_impl@V<lambda_f05790a8ac7f1f0c4e43cd67fdc7b60b>@@V?$allocator@H@std@@XU?$WebSocket@$00@uWS@@UUpgradeInfo@5@@std@@EEBAPEAV?$_Func_base@XU?$WebSocket@$00@uWS@@UUpgradeInfo@2@@2@PEAX@Z 00000001800079b0 f i Group.obj
 0001:000069b0       ?_Move@?$_Func_impl@V<lambda_f05790a8ac7f1f0c4e43cd67fdc7b60b>@@V?$allocator@H@std@@XU?$WebSocket@$00@uWS@@UUpgradeInfo@5@@std@@EEAAPEAV?$_Func_base@XU?$WebSocket@$00@uWS@@UUpgradeInfo@2@@2@PEAX@Z 00000001800079b0 f i Group.obj
 0001:000069d0       ntohll                     00000001800079d0 f i WebSocketImpl.obj
 0001:00006a60       ??_FNode@uS@@QEAAXXZ       0000000180007a60 f i WebSocketImpl.obj
 0001:00006a80       ??0Hub@uWS@@QEAA@H_N@Z     0000000180007a80 f i WebSocketImpl.obj
 0001:00006b40       ??1Hub@uWS@@QEAA@XZ        0000000180007b40 f i WebSocketImpl.obj
 0001:00006bc0       ??_FHub@uWS@@QEAAXXZ       0000000180007bc0 f i WebSocketImpl.obj
 0001:00006bd0       ?consume@?$WebSocketProtocol@$0A@@uWS@@QEAAXPEADIPEAX@Z 0000000180007bd0 f i WebSocketImpl.obj
 0001:00006da0       ?formatMessage@?$WebSocketProtocol@$0A@@uWS@@SA_KPEADPEBD_KW4OpCode@2@2_N@Z 0000000180007da0 f i WebSocketImpl.obj
 0001:00006f30       ?parseClosePayload@?$WebSocketProtocol@$0A@@uWS@@SA?AUCloseFrame@12@PEAD_K@Z 0000000180007f30 f i WebSocketImpl.obj
 0001:00006f30       ?parseClosePayload@?$WebSocketProtocol@$00@uWS@@SA?AUCloseFrame@12@PEAD_K@Z 0000000180007f30 f i WebSocketImpl.obj
 0001:00007000       ?isValidUtf8@?$WebSocketProtocol@$00@uWS@@SA_NPEAE_K@Z 0000000180008000 f i WebSocketImpl.obj
 0001:00007000       ?isValidUtf8@?$WebSocketProtocol@$0A@@uWS@@SA_NPEAE_K@Z 0000000180008000 f i WebSocketImpl.obj
 0001:00007140       ?consumeContinuation@?$WebSocketProtocol@$0A@@uWS@@AEAA_NAEAPEADAEAIPEAX@Z 0000000180008140 f i WebSocketImpl.obj
 0001:00007210       ?consume@?$WebSocketProtocol@$00@uWS@@QEAAXPEADIPEAX@Z 0000000180008210 f i WebSocketImpl.obj
 0001:000073e0       ?formatMessage@?$WebSocketProtocol@$00@uWS@@SA_KPEADPEBD_KW4OpCode@2@2_N@Z 00000001800083e0 f i WebSocketImpl.obj
 0001:00007520       ?consumeContinuation@?$WebSocketProtocol@$00@uWS@@AEAA_NAEAPEADAEAIPEAX@Z 0000000180008520 f i WebSocketImpl.obj
 0001:00007700       ?unmaskImpreciseCopyMask@?$WebSocketProtocol@$00@uWS@@CAXPEAD00I@Z 0000000180008700 f i WebSocketImpl.obj
 0001:00007760       ?unmaskImprecise@?$WebSocketProtocol@$00@uWS@@CAXPEAD00I@Z 0000000180008760 f i WebSocketImpl.obj
 0001:000077b0       ?handleFragment@?$WebSocketProtocol@$00@uWS@@QEAA_NPEAD_KIH_NPEAX@Z 00000001800087b0 f i WebSocketImpl.obj
 0001:00007bb0       ?handleFragment@?$WebSocketProtocol@$0A@@uWS@@QEAA_NPEAD_KIH_NPEAX@Z 0000000180008bb0 f i WebSocketImpl.obj
 0001:00007fb0       ??$consumeMessage@$01E@?$WebSocketProtocol@$0A@@uWS@@AEAA_NEAEAPEADAEAIGPEAX@Z 0000000180008fb0 f i WebSocketImpl.obj
 0001:00008100       ??$consumeMessage@$03G@?$WebSocketProtocol@$0A@@uWS@@AEAA_NGAEAPEADAEAIGPEAX@Z 0000000180009100 f i WebSocketImpl.obj
 0001:00008250       ??$consumeMessage@$09_K@?$WebSocketProtocol@$0A@@uWS@@AEAA_N_KAEAPEADAEAIGPEAX@Z 0000000180009250 f i WebSocketImpl.obj
 0001:00008390       ??$consumeMessage@$05E@?$WebSocketProtocol@$00@uWS@@AEAA_NEAEAPEADAEAIGPEAX@Z 0000000180009390 f i WebSocketImpl.obj
 0001:00008570       ??$consumeMessage@$07G@?$WebSocketProtocol@$00@uWS@@AEAA_NGAEAPEADAEAIGPEAX@Z 0000000180009570 f i WebSocketImpl.obj
 0001:00008750       ??$consumeMessage@$0O@_K@?$WebSocketProtocol@$00@uWS@@AEAA_N_KAEAPEADAEAIGPEAX@Z 0000000180009750 f i WebSocketImpl.obj
 0001:00008910       ??0Context@TLS@uS@@QEAA@AEBV012@@Z 0000000180009910 f   Networking.obj
 0001:00008930       ??4Context@TLS@uS@@QEAAAEAV012@AEBV012@@Z 0000000180009930 f   Networking.obj
 0001:00008950       ??1Context@TLS@uS@@QEAA@XZ 0000000180009950 f   Networking.obj
 0001:00008960       ?inflate@Hub@uWS@@QEAAPEADPEADAEA_K@Z 0000000180009960 f   Hub.obj
 0001:00008ab0       ?onServerAccept@Hub@uWS@@SAXVSocket@uS@@@Z 0000000180009ab0 f   Hub.obj
 0001:00008bd0       ?onClientConnection@Hub@uWS@@SAXVSocket@uS@@_N@Z 0000000180009bd0 f   Hub.obj
 0001:00008c90       ??1Data@?$HTTPSocket@$0A@@uWS@@QEAA@XZ 0000000180009c90 f i Hub.obj
 0001:00008c90       ??1Data@?$HTTPSocket@$00@uWS@@QEAA@XZ 0000000180009c90 f i Hub.obj
 0001:00008d40       ?listen@Hub@uWS@@QEAA_NHVContext@TLS@uS@@HPEAU?$Group@$00@2@@Z 0000000180009d40 f   Hub.obj
 0001:00008e00       ?connect@Hub@uWS@@QEAAXV?$basic_string@DU?$char_traits@D@std@@V?$allocator@D@2@@std@@PEAXHPEAU?$Group@$0A@@2@@Z 0000000180009e00 f   Hub.obj
 0001:00009430       ?upgrade@Hub@uWS@@QEAA_N_KPEBDPEAUssl_st@@1010PEAU?$Group@$00@2@@Z 000000018000a430 f   Hub.obj
 0001:00009850       ?find_first_of@?$basic_string@DU?$char_traits@D@std@@V?$allocator@D@2@@std@@QEBA_KPEBD_K1@Z 000000018000a850 f i Hub.obj
 0001:00009900       ?find@?$basic_string@DU?$char_traits@D@std@@V?$allocator@D@2@@std@@QEBA_KPEBD_K1@Z 000000018000a900 f i Hub.obj
 0001:000099f0       ?assign@?$basic_string@DU?$char_traits@D@std@@V?$allocator@D@2@@std@@QEAAAEAV12@PEBD_K@Z 000000018000a9f0 f i Hub.obj
 0001:00009b30       ??$_Integral_to_string@DH@std@@YA?AV?$basic_string@DU?$char_traits@D@std@@V?$allocator@D@2@@0@H@Z 000000018000ab30 f i Hub.obj
 0001:00009c60       ??$listen@$1?onServerAccept@Hub@uWS@@SAXVSocket@uS@@@Z@Node@uS@@QEAA_NHVContext@TLS@1@HPEAUNodeData@1@PEAX@Z 000000018000ac60 f i Hub.obj
 0001:00009ef0       ??$connect@$1?onClientConnection@Hub@uWS@@SAXVSocket@uS@@_N@Z@Node@uS@@QEAA?AVSocket@1@PEBDH_NPEAUSocketData@1@@Z 000000018000aef0 f i Hub.obj
 0001:0000a120       ??$startTimeout@$1?onEnd@?$HTTPSocket@$0A@@uWS@@CAXVSocket@uS@@@Z@Socket@uS@@QEAAXH@Z 000000018000b120 f i Hub.obj
 0001:0000a1f0       ??$ssl_io_cb@U?$HTTPSocket@$00@uWS@@@Socket@uS@@SAXPEAUuv_poll_s@@HH@Z 000000018000b1f0 f i Hub.obj
 0001:0000a3d0       ??$io_cb@U?$HTTPSocket@$00@uWS@@@Socket@uS@@SAXPEAUuv_poll_s@@HH@Z 000000018000b3d0 f i Hub.obj
 0001:0000a550       ??$ssl_io_cb@U?$HTTPSocket@$0A@@uWS@@@Socket@uS@@SAXPEAUuv_poll_s@@HH@Z 000000018000b550 f i Hub.obj
 0001:0000a730       ??$io_cb@U?$HTTPSocket@$0A@@uWS@@@Socket@uS@@SAXPEAUuv_poll_s@@HH@Z 000000018000b730 f i Hub.obj
 0001:0000a8b0       ??$accept_cb@$1?onServerAccept@Hub@uWS@@SAXVSocket@uS@@@Z@Node@uS@@SAXPEAUuv_poll_s@@HH@Z 000000018000b8b0 f i Hub.obj
 0001:0000a9b0       ??$connect_cb@$1?onClientConnection@Hub@uWS@@SAXVSocket@uS@@_N@Z@Node@uS@@SAXPEAUuv_poll_s@@HH@Z 000000018000b9b0 f i Hub.obj
 0001:0000a9c0       ??$ssl_io_cb@U?$WebSocket@$00@uWS@@@Socket@uS@@SAXPEAUuv_poll_s@@HH@Z 000000018000b9c0 f i Hub.obj
 0001:0000abc0       ??$io_cb@U?$WebSocket@$00@uWS@@@Socket@uS@@SAXPEAUuv_poll_s@@HH@Z 000000018000bbc0 f i Hub.obj
 0001:0000ad70       ?asyncCallback@NodeData@uS@@SAXPEAUuv_async_s@@@Z 000000018000bd70 f   Node.obj
 0001:0000aea0       ??0Node@uS@@QEAA@HHH_N@Z   000000018000bea0 f   Node.obj
 0001:0000b070       ?run@Node@uS@@QEAAXXZ      000000018000c070 f   Node.obj
 0001:0000b0a0       ??1Node@uS@@QEAA@XZ        000000018000c0a0 f   Node.obj
 0001:0000b2a0       ??M?$WebSocket@$00@uWS@@QEBA_NAEBU01@@Z 000000018000c2a0 f i WebSocket.obj
 0001:0000b2a0       ??M?$WebSocket@$0A@@uWS@@QEBA_NAEBU01@@Z 000000018000c2a0 f i WebSocket.obj
 0001:0000b2b0       ??8?$WebSocket@$0A@@uWS@@QEBA_NAEBU01@@Z 000000018000c2b0 f i WebSocket.obj
 0001:0000b2b0       ??8?$WebSocket@$00@uWS@@QEBA_NAEBU01@@Z 000000018000c2b0 f i WebSocket.obj
 0001:0000b2c0       ?send@?$WebSocket@$0A@@uWS@@QEAAXPEBDW4OpCode@2@@Z 000000018000c2c0 f i WebSocket.obj
 0001:0000b2f0       ?ping@?$WebSocket@$0A@@uWS@@QEAAXPEBD@Z 000000018000c2f0 f i WebSocket.obj
 0001:0000b330       ?transfer@?$WebSocket@$00@uWS@@QEAAXPEAU?$Group@$00@2@@Z 000000018000c330 f i WebSocket.obj
 0001:0000b330       ?transfer@?$WebSocket@$0A@@uWS@@QEAAXPEAU?$Group@$0A@@2@@Z 000000018000c330 f i WebSocket.obj
 0001:0000b3a0       ?send@?$WebSocket@$00@uWS@@QEAAXPEBDW4OpCode@2@@Z 000000018000c3a0 f i WebSocket.obj
 0001:0000b3d0       ?ping@?$WebSocket@$00@uWS@@QEAAXPEBD@Z 000000018000c3d0 f i WebSocket.obj
 0001:0000b410       ?terminate@?$WebSocket@$00@uWS@@QEAAXXZ 000000018000c410 f i WebSocket.obj
 0001:0000b420       ?close@?$WebSocket@$00@uWS@@QEAAXHPEAD_K@Z 000000018000c420 f i WebSocket.obj
 0001:0000b600       ?send@?$WebSocket@$00@uWS@@QEAAXPEBD_KW4OpCode@2@P6AXPEAX3_N3@Z3@Z 000000018000c600 f i WebSocket.obj
 0001:0000b860       ?prepareMessage@?$WebSocket@$00@uWS@@SAPEAUPreparedMessage@12@PEAD_KW4OpCode@2@_NP6AXPEAX434@Z@Z 000000018000c860 f i WebSocket.obj
 0001:0000b8f0       ?sendPrepared@?$WebSocket@$00@uWS@@QEAAXPEAUPreparedMessage@12@PEAX@Z 000000018000c8f0 f i WebSocket.obj
 0001:0000b8f0       ?sendPrepared@?$WebSocket@$0A@@uWS@@QEAAXPEAUPreparedMessage@12@PEAX@Z 000000018000c8f0 f i WebSocket.obj
 0001:0000ba30       ?finalizeMessage@?$WebSocket@$00@uWS@@SAXPEAUPreparedMessage@12@@Z 000000018000ca30 f i WebSocket.obj
 0001:0000ba30       ?finalizeMessage@?$WebSocket@$0A@@uWS@@SAXPEAUPreparedMessage@12@@Z 000000018000ca30 f i WebSocket.obj
 0001:0000ba60       ?onData@?$WebSocket@$00@uWS@@CAXVSocket@uS@@PEADH@Z 000000018000ca60 f i WebSocket.obj
 0001:0000baa0       ?onEnd@?$WebSocket@$00@uWS@@CAXVSocket@uS@@@Z 000000018000caa0 f i WebSocket.obj
 0001:0000bc10       ?terminate@?$WebSocket@$0A@@uWS@@QEAAXXZ 000000018000cc10 f i WebSocket.obj
 0001:0000bc20       ?close@?$WebSocket@$0A@@uWS@@QEAAXHPEAD_K@Z 000000018000cc20 f i WebSocket.obj
 0001:0000bdb0       ?send@?$WebSocket@$0A@@uWS@@QEAAXPEBD_KW4OpCode@2@P6AXPEAX3_N3@Z3@Z 000000018000cdb0 f i WebSocket.obj
 0001:0000c010       ?prepareMessage@?$WebSocket@$0A@@uWS@@SAPEAUPreparedMessage@12@PEAD_KW4OpCode@2@_NP6AXPEAX434@Z@Z 000000018000d010 f i WebSocket.obj
 0001:0000c0a0       ?onData@?$WebSocket@$0A@@uWS@@CAXVSocket@uS@@PEADH@Z 000000018000d0a0 f i WebSocket.obj
 0001:0000c0e0       ?onEnd@?$WebSocket@$0A@@uWS@@CAXVSocket@uS@@@Z 000000018000d0e0 f i WebSocket.obj
 0001:0000c250       ??1Data@?$WebSocket@$00@uWS@@QEAA@XZ 000000018000d250 f i WebSocket.obj
 0001:0000c2d0       ??1Data@?$WebSocket@$0A@@uWS@@QEAA@XZ 000000018000d2d0 f i WebSocket.obj
 0001:0000c3f0       ??0HTTPParser@uWS@@QEAA@PEAD@Z 000000018000d3f0 f i HTTPSocket.obj
 0001:0000c4c0       ??EHTTPParser@uWS@@QEAAAEAU01@H@Z 000000018000d4c0 f i HTTPSocket.obj
 0001:0000c690       ?append@?$basic_string@DU?$char_traits@D@std@@V?$allocator@D@2@@std@@QEAAAEAV12@_KD@Z 000000018000d690 f i HTTPSocket.obj
 0001:0000c7b0       ?upgrade@?$HTTPSocket@$00@uWS@@QEAA_NPEBD0_K01@Z 000000018000d7b0 f i HTTPSocket.obj
 0001:0000ca10       ?onData@?$HTTPSocket@$00@uWS@@CAXVSocket@uS@@PEADH@Z 000000018000da10 f i HTTPSocket.obj
 0001:0000cf60       ?onEnd@?$HTTPSocket@$00@uWS@@CAXVSocket@uS@@@Z 000000018000df60 f i HTTPSocket.obj
 0001:0000d020       ?upgrade@?$HTTPSocket@$0A@@uWS@@QEAA_NPEBD0_K01@Z 000000018000e020 f i HTTPSocket.obj
 0001:0000d3b0       ?onData@?$HTTPSocket@$0A@@uWS@@CAXVSocket@uS@@PEADH@Z 000000018000e3b0 f i HTTPSocket.obj
 0001:0000d760       ?onEnd@?$HTTPSocket@$0A@@uWS@@CAXVSocket@uS@@@Z 000000018000e760 f i HTTPSocket.obj
 0001:0000d840       ??$ssl_io_cb@U?$WebSocket@$0A@@uWS@@@Socket@uS@@SAXPEAUuv_poll_s@@HH@Z 000000018000e840 f i HTTPSocket.obj
 0001:0000da40       ??$io_cb@U?$WebSocket@$0A@@uWS@@@Socket@uS@@SAXPEAUuv_poll_s@@HH@Z 000000018000ea40 f i HTTPSocket.obj
 0001:0000dbf0       ?getAddress@Socket@uS@@QEAA?AUAddress@12@XZ 000000018000ebf0 f   Socket.obj
 0001:0000dd10       ?dup@@YA_K_K@Z             000000018000ed10 f i addon.obj
 0001:0000dda0       ?NODE_SET_METHOD@node@@YAXV?$Local@VObject@v8@@@v8@@PEBDP6AXAEBV?$FunctionCallbackInfo@VValue@v8@@@3@@Z@Z 000000018000eda0 f i addon.obj
 0001:0000df30       ??0NativeString@@QEAA@AEBV?$Local@VValue@v8@@@v8@@@Z 000000018000ef30 f i addon.obj
 0001:0000e0a0       ??0GroupData@@QEAA@XZ      000000018000f0a0 f i addon.obj
 0001:0000e120       ??1GroupData@@QEAA@XZ      000000018000f120 f i addon.obj
 0001:0000e1b0       ?sendCallback@@YAXPEAX0_N0@Z 000000018000f1b0 f   addon.obj
 0001:0000e270       ?connect@@YAXAEBV?$FunctionCallbackInfo@VValue@v8@@@v8@@@Z 000000018000f270 f   addon.obj
 0001:0000e3b0       ?upgrade@@YAXAEBV?$FunctionCallbackInfo@VValue@v8@@@v8@@@Z 000000018000f3b0 f   addon.obj
 0001:0000e590       ?transfer@@YAXAEBV?$FunctionCallbackInfo@VValue@v8@@@v8@@@Z 000000018000f590 f   addon.obj
 0001:0000e740       ?onError@@YAXAEBV?$FunctionCallbackInfo@VValue@v8@@@v8@@@Z 000000018000f740 f   addon.obj
 0001:0000e920       ?forEach@@YAXAEBV?$FunctionCallbackInfo@VValue@v8@@@v8@@@Z 000000018000f920 f   addon.obj
 0001:0000e9a0       ?getSize@@YAXAEBV?$FunctionCallbackInfo@VValue@v8@@@v8@@@Z 000000018000f9a0 f   addon.obj
 0001:0000ea10       ?startAutoPing@@YAXAEBV?$FunctionCallbackInfo@VValue@v8@@@v8@@@Z 000000018000fa10 f   addon.obj
 0001:0000eb10       ?setNoop@@YAXAEBV?$FunctionCallbackInfo@VValue@v8@@@v8@@@Z 000000018000fb10 f   addon.obj
 0001:0000eb80       ?Main@@YAXV?$Local@VObject@v8@@@v8@@@Z 000000018000fb80 f   addon.obj
 0001:0000f130       ??0?$Namespace@$0A@@@QEAA@PEAVIsolate@v8@@@Z 0000000180010130 f i addon.obj
 0001:0000f340       ??0?$Namespace@$00@@QEAA@PEAVIsolate@v8@@@Z 0000000180010340 f i addon.obj
 0001:0000f580       ??$forEach@V<lambda_5e52f6799e6ec88a4e48747f6fc0f78f>@@@?$Group@$00@uWS@@QEAAXAEBV<lambda_5e52f6799e6ec88a4e48747f6fc0f78f>@@@Z 0000000180010580 f i addon.obj
 0001:0000f720       ??$setUserData@$00@@YAXAEBV?$FunctionCallbackInfo@VValue@v8@@@v8@@@Z 0000000180010720 f i addon.obj
 0001:0000f810       ??$getUserData@$00@@YAXAEBV?$FunctionCallbackInfo@VValue@v8@@@v8@@@Z 0000000180010810 f i addon.obj
 0001:0000f8b0       ??$clearUserData@$00@@YAXAEBV?$FunctionCallbackInfo@VValue@v8@@@v8@@@Z 00000001800108b0 f i addon.obj
 0001:0000f920       ??$getAddress@$00@@YAXAEBV?$FunctionCallbackInfo@VValue@v8@@@v8@@@Z 0000000180010920 f i addon.obj
 0001:0000fa30       ??$send@$0A@@@YAXAEBV?$FunctionCallbackInfo@VValue@v8@@@v8@@@Z 0000000180010a30 f i addon.obj
 0001:0000fbc0       ??$closeSocket@$0A@@@YAXAEBV?$FunctionCallbackInfo@VValue@v8@@@v8@@@Z 0000000180010bc0 f i addon.obj
 0001:0000fcc0       ??$terminateSocket@$0A@@@YAXAEBV?$FunctionCallbackInfo@VValue@v8@@@v8@@@Z 0000000180010cc0 f i addon.obj
 0001:0000fd00       ??$prepareMessage@$0A@@@YAXAEBV?$FunctionCallbackInfo@VValue@v8@@@v8@@@Z 0000000180010d00 f i addon.obj
 0001:0000fe00       ??$sendPrepared@$00@@YAXAEBV?$FunctionCallbackInfo@VValue@v8@@@v8@@@Z 0000000180010e00 f i addon.obj
 0001:0000fe00       ??$sendPrepared@$0A@@@YAXAEBV?$FunctionCallbackInfo@VValue@v8@@@v8@@@Z 0000000180010e00 f i addon.obj
 0001:0000fe70       ??$finalizeMessage@$00@@YAXAEBV?$FunctionCallbackInfo@VValue@v8@@@v8@@@Z 0000000180010e70 f i addon.obj
 0001:0000fe70       ??$finalizeMessage@$0A@@@YAXAEBV?$FunctionCallbackInfo@VValue@v8@@@v8@@@Z 0000000180010e70 f i addon.obj
 0001:0000fec0       ??$onConnection@$0A@@@YAXAEBV?$FunctionCallbackInfo@VValue@v8@@@v8@@@Z 0000000180010ec0 f i addon.obj
 0001:000100b0       ??$onMessage@$0A@@@YAXAEBV?$FunctionCallbackInfo@VValue@v8@@@v8@@@Z 00000001800110b0 f i addon.obj
 0001:000102e0       ??$onDisconnection@$0A@@@YAXAEBV?$FunctionCallbackInfo@VValue@v8@@@v8@@@Z 00000001800112e0 f i addon.obj
 0001:00010560       ??$onPing@$0A@@@YAXAEBV?$FunctionCallbackInfo@VValue@v8@@@v8@@@Z 0000000180011560 f i addon.obj
 0001:00010770       ??$onPong@$0A@@@YAXAEBV?$FunctionCallbackInfo@VValue@v8@@@v8@@@Z 0000000180011770 f i addon.obj
 0001:00010870       ??$createGroup@$0A@@@YAXAEBV?$FunctionCallbackInfo@VValue@v8@@@v8@@@Z 0000000180011870 f i addon.obj
 0001:00010920       ??$deleteGroup@$0A@@@YAXAEBV?$FunctionCallbackInfo@VValue@v8@@@v8@@@Z 0000000180011920 f i addon.obj
 0001:00010990       ??$closeGroup@$0A@@@YAXAEBV?$FunctionCallbackInfo@VValue@v8@@@v8@@@Z 0000000180011990 f i addon.obj
 0001:00010ac0       ??$terminateGroup@$0A@@@YAXAEBV?$FunctionCallbackInfo@VValue@v8@@@v8@@@Z 0000000180011ac0 f i addon.obj
 0001:00010b10       ??$broadcast@$0A@@@YAXAEBV?$FunctionCallbackInfo@VValue@v8@@@v8@@@Z 0000000180011b10 f i addon.obj
 0001:00010c30       ??$send@$00@@YAXAEBV?$FunctionCallbackInfo@VValue@v8@@@v8@@@Z 0000000180011c30 f i addon.obj
 0001:00010dc0       ??$closeSocket@$00@@YAXAEBV?$FunctionCallbackInfo@VValue@v8@@@v8@@@Z 0000000180011dc0 f i addon.obj
 0001:00010ec0       ??$terminateSocket@$00@@YAXAEBV?$FunctionCallbackInfo@VValue@v8@@@v8@@@Z 0000000180011ec0 f i addon.obj
 0001:00010f00       ??$prepareMessage@$00@@YAXAEBV?$FunctionCallbackInfo@VValue@v8@@@v8@@@Z 0000000180011f00 f i addon.obj
 0001:00011000       ??$onConnection@$00@@YAXAEBV?$FunctionCallbackInfo@VValue@v8@@@v8@@@Z 0000000180012000 f i addon.obj
 0001:00011120       ??$onMessage@$00@@YAXAEBV?$FunctionCallbackInfo@VValue@v8@@@v8@@@Z 0000000180012120 f i addon.obj
 0001:00011220       ??$onDisconnection@$00@@YAXAEBV?$FunctionCallbackInfo@VValue@v8@@@v8@@@Z 0000000180012220 f i addon.obj
 0001:00011340       ??$onPing@$00@@YAXAEBV?$FunctionCallbackInfo@VValue@v8@@@v8@@@Z 0000000180012340 f i addon.obj
 0001:00011440       ??$onPong@$00@@YAXAEBV?$FunctionCallbackInfo@VValue@v8@@@v8@@@Z 0000000180012440 f i addon.obj
 0001:00011540       ??$createGroup@$00@@YAXAEBV?$FunctionCallbackInfo@VValue@v8@@@v8@@@Z 0000000180012540 f i addon.obj
 0001:000115f0       ??$deleteGroup@$00@@YAXAEBV?$FunctionCallbackInfo@VValue@v8@@@v8@@@Z 00000001800125f0 f i addon.obj
 0001:00011660       ??$closeGroup@$00@@YAXAEBV?$FunctionCallbackInfo@VValue@v8@@@v8@@@Z 0000000180012660 f i addon.obj
 0001:00011790       ??$terminateGroup@$00@@YAXAEBV?$FunctionCallbackInfo@VValue@v8@@@v8@@@Z 0000000180012790 f i addon.obj
 0001:000117d0       ??$broadcast@$00@@YAXAEBV?$FunctionCallbackInfo@VValue@v8@@@v8@@@Z 00000001800127d0 f i addon.obj
 0001:000118f0       ?_Target_type@?$_Func_impl@V<lambda_2084e076f6151854c0db1be6acabce48>@@V?$allocator@H@std@@XPEAX@std@@EEBAAEBVtype_info@@XZ 00000001800128f0 f i addon.obj
 0001:00011900       ?_Do_call@?$_Func_impl@V<lambda_2084e076f6151854c0db1be6acabce48>@@V?$allocator@H@std@@XPEAX@std@@EEAAX$$QEAPEAX@Z 0000000180012900 f i addon.obj
 0001:00011910       ?_Move@?$_Func_impl@V<lambda_2084e076f6151854c0db1be6acabce48>@@V?$allocator@H@std@@XPEAX@std@@EEAAPEAV?$_Func_base@XPEAX@2@PEAX@Z 0000000180012910 f i addon.obj
 0001:00011910       ?_Copy@?$_Func_impl@V<lambda_2084e076f6151854c0db1be6acabce48>@@V?$allocator@H@std@@XPEAX@std@@EEBAPEAV?$_Func_base@XPEAX@2@PEAX@Z 0000000180012910 f i addon.obj
 0001:00011930       ?_Target_type@?$_Func_impl@V<lambda_a6cfd1bcc674317fad83658b5d0786e9>@@V?$allocator@H@std@@XU?$WebSocket@$00@uWS@@PEAD_K@std@@EEBAAEBVtype_info@@XZ 0000000180012930 f i addon.obj
 0001:00011940       ?_Do_call@?$_Func_impl@V<lambda_5340ffcb4045c7e221e6ed34d69e440b>@@V?$allocator@H@std@@XU?$WebSocket@$00@uWS@@PEAD_K@std@@EEAAX$$QEAU?$WebSocket@$00@uWS@@$$QEAPEAD$$QEA_K@Z 0000000180012940 f i addon.obj
 0001:00011940       ?_Do_call@?$_Func_impl@V<lambda_185a28332b424bb2e46d1162c88273d4>@@V?$allocator@H@std@@XU?$WebSocket@$0A@@uWS@@PEAD_K@std@@EEAAX$$QEAU?$WebSocket@$0A@@uWS@@$$QEAPEAD$$QEA_K@Z 0000000180012940 f i addon.obj
 0001:00011940       ?_Do_call@?$_Func_impl@V<lambda_a6cfd1bcc674317fad83658b5d0786e9>@@V?$allocator@H@std@@XU?$WebSocket@$00@uWS@@PEAD_K@std@@EEAAX$$QEAU?$WebSocket@$00@uWS@@$$QEAPEAD$$QEA_K@Z 0000000180012940 f i addon.obj
 0001:00011940       ?_Do_call@?$_Func_impl@V<lambda_30da2cf7fb27dca016834439ea08639b>@@V?$allocator@H@std@@XU?$WebSocket@$0A@@uWS@@PEAD_K@std@@EEAAX$$QEAU?$WebSocket@$0A@@uWS@@$$QEAPEAD$$QEA_K@Z 0000000180012940 f i addon.obj
 0001:00011960       ?_Copy@?$_Func_impl@V<lambda_a6cfd1bcc674317fad83658b5d0786e9>@@V?$allocator@H@std@@XU?$WebSocket@$00@uWS@@PEAD_K@std@@EEBAPEAV?$_Func_base@XU?$WebSocket@$00@uWS@@PEAD_K@2@PEAX@Z 0000000180012960 f i addon.obj
 0001:00011960       ?_Move@?$_Func_impl@V<lambda_a6cfd1bcc674317fad83658b5d0786e9>@@V?$allocator@H@std@@XU?$WebSocket@$00@uWS@@PEAD_K@std@@EEAAPEAV?$_Func_base@XU?$WebSocket@$00@uWS@@PEAD_K@2@PEAX@Z 0000000180012960 f i addon.obj
 0001:00011980       ?_Target_type@?$_Func_impl@V<lambda_5340ffcb4045c7e221e6ed34d69e440b>@@V?$allocator@H@std@@XU?$WebSocket@$00@uWS@@PEAD_K@std@@EEBAAEBVtype_info@@XZ 0000000180012980 f i addon.obj
 0001:00011990       ?_Move@?$_Func_impl@V<lambda_5340ffcb4045c7e221e6ed34d69e440b>@@V?$allocator@H@std@@XU?$WebSocket@$00@uWS@@PEAD_K@std@@EEAAPEAV?$_Func_base@XU?$WebSocket@$00@uWS@@PEAD_K@2@PEAX@Z 0000000180012990 f i addon.obj
 0001:00011990       ?_Copy@?$_Func_impl@V<lambda_5340ffcb4045c7e221e6ed34d69e440b>@@V?$allocator@H@std@@XU?$WebSocket@$00@uWS@@PEAD_K@std@@EEBAPEAV?$_Func_base@XU?$WebSocket@$00@uWS@@PEAD_K@2@PEAX@Z 0000000180012990 f i addon.obj
 0001:000119b0       ?_Target_type@?$_Func_impl@V<lambda_d7bdfb5a58f2c1f8ad741cf189cc386b>@@V?$allocator@H@std@@XU?$WebSocket@$00@uWS@@HPEAD_K@std@@EEBAAEBVtype_info@@XZ 00000001800129b0 f i addon.obj
 0001:000119c0       ?_Do_call@?$_Func_impl@V<lambda_1df6e9150329589b41c0fe6f8b1f264e>@@V?$allocator@H@std@@XU?$WebSocket@$0A@@uWS@@HPEAD_K@std@@EEAAX$$QEAU?$WebSocket@$0A@@uWS@@$$QEAH$$QEAPEAD$$QEA_K@Z 00000001800129c0 f i addon.obj
 0001:000119c0       ?_Do_call@?$_Func_impl@V<lambda_d7bdfb5a58f2c1f8ad741cf189cc386b>@@V?$allocator@H@std@@XU?$WebSocket@$00@uWS@@HPEAD_K@std@@EEAAX$$QEAU?$WebSocket@$00@uWS@@$$QEAH$$QEAPEAD$$QEA_K@Z 00000001800129c0 f i addon.obj
 0001:000119e0       ?_Copy@?$_Func_impl@V<lambda_d7bdfb5a58f2c1f8ad741cf189cc386b>@@V?$allocator@H@std@@XU?$WebSocket@$00@uWS@@HPEAD_K@std@@EEBAPEAV?$_Func_base@XU?$WebSocket@$00@uWS@@HPEAD_K@2@PEAX@Z 00000001800129e0 f i addon.obj
 0001:000119e0       ?_Move@?$_Func_impl@V<lambda_d7bdfb5a58f2c1f8ad741cf189cc386b>@@V?$allocator@H@std@@XU?$WebSocket@$00@uWS@@HPEAD_K@std@@EEAAPEAV?$_Func_base@XU?$WebSocket@$00@uWS@@HPEAD_K@2@PEAX@Z 00000001800129e0 f i addon.obj
 0001:00011a10       ?_Target_type@?$_Func_impl@V<lambda_253b4a1404c612c2f71c88eb2317caa4>@@V?$allocator@H@std@@XU?$WebSocket@$00@uWS@@PEAD_KW4OpCode@5@@std@@EEBAAEBVtype_info@@XZ 0000000180012a10 f i addon.obj
 0001:00011a20       ?_Do_call@?$_Func_impl@V<lambda_c9a652ce08ab70a880491b309a6e9b7f>@@V?$allocator@H@std@@XU?$WebSocket@$0A@@uWS@@PEAD_KW4OpCode@5@@std@@EEAAX$$QEAU?$WebSocket@$0A@@uWS@@$$QEAPEAD$$QEA_K$$QEAW4OpCode@4@@Z 0000000180012a20 f i addon.obj
 0001:00011a20       ?_Do_call@?$_Func_impl@V<lambda_253b4a1404c612c2f71c88eb2317caa4>@@V?$allocator@H@std@@XU?$WebSocket@$00@uWS@@PEAD_KW4OpCode@5@@std@@EEAAX$$QEAU?$WebSocket@$00@uWS@@$$QEAPEAD$$QEA_K$$QEAW4OpCode@4@@Z 0000000180012a20 f i addon.obj
 0001:00011a40       ?_Copy@?$_Func_impl@V<lambda_253b4a1404c612c2f71c88eb2317caa4>@@V?$allocator@H@std@@XU?$WebSocket@$00@uWS@@PEAD_KW4OpCode@5@@std@@EEBAPEAV?$_Func_base@XU?$WebSocket@$00@uWS@@PEAD_KW4OpCode@2@@2@PEAX@Z 0000000180012a40 f i addon.obj
 0001:00011a40       ?_Move@?$_Func_impl@V<lambda_253b4a1404c612c2f71c88eb2317caa4>@@V?$allocator@H@std@@XU?$WebSocket@$00@uWS@@PEAD_KW4OpCode@5@@std@@EEAAPEAV?$_Func_base@XU?$WebSocket@$00@uWS@@PEAD_KW4OpCode@2@@2@PEAX@Z 0000000180012a40 f i addon.obj
 0001:00011a60       ?_Target_type@?$_Func_impl@V<lambda_9f4f12a84d8f5559c2caf0fccde4cecf>@@V?$allocator@H@std@@XU?$WebSocket@$00@uWS@@UUpgradeInfo@5@@std@@EEBAAEBVtype_info@@XZ 0000000180012a60 f i addon.obj
 0001:00011a70       ?_Do_call@?$_Func_impl@V<lambda_9f4f12a84d8f5559c2caf0fccde4cecf>@@V?$allocator@H@std@@XU?$WebSocket@$00@uWS@@UUpgradeInfo@5@@std@@EEAAX$$QEAU?$WebSocket@$00@uWS@@$$QEAUUpgradeInfo@4@@Z 0000000180012a70 f i addon.obj
 0001:00011a70       ?_Do_call@?$_Func_impl@V<lambda_a0d45c30ed7d53f13017b910323e74db>@@V?$allocator@H@std@@XU?$WebSocket@$0A@@uWS@@UUpgradeInfo@5@@std@@EEAAX$$QEAU?$WebSocket@$0A@@uWS@@$$QEAUUpgradeInfo@4@@Z 0000000180012a70 f i addon.obj
 0001:00011aa0       ?_Copy@?$_Func_impl@V<lambda_9f4f12a84d8f5559c2caf0fccde4cecf>@@V?$allocator@H@std@@XU?$WebSocket@$00@uWS@@UUpgradeInfo@5@@std@@EEBAPEAV?$_Func_base@XU?$WebSocket@$00@uWS@@UUpgradeInfo@2@@2@PEAX@Z 0000000180012aa0 f i addon.obj
 0001:00011aa0       ?_Move@?$_Func_impl@V<lambda_9f4f12a84d8f5559c2caf0fccde4cecf>@@V?$allocator@H@std@@XU?$WebSocket@$00@uWS@@UUpgradeInfo@5@@std@@EEAAPEAV?$_Func_base@XU?$WebSocket@$00@uWS@@UUpgradeInfo@2@@2@PEAX@Z 0000000180012aa0 f i addon.obj
 0001:00011ad0       ?_Target_type@?$_Func_impl@V<lambda_30da2cf7fb27dca016834439ea08639b>@@V?$allocator@H@std@@XU?$WebSocket@$0A@@uWS@@PEAD_K@std@@EEBAAEBVtype_info@@XZ 0000000180012ad0 f i addon.obj
 0001:00011ae0       ?_Move@?$_Func_impl@V<lambda_30da2cf7fb27dca016834439ea08639b>@@V?$allocator@H@std@@XU?$WebSocket@$0A@@uWS@@PEAD_K@std@@EEAAPEAV?$_Func_base@XU?$WebSocket@$0A@@uWS@@PEAD_K@2@PEAX@Z 0000000180012ae0 f i addon.obj
 0001:00011ae0       ?_Copy@?$_Func_impl@V<lambda_30da2cf7fb27dca016834439ea08639b>@@V?$allocator@H@std@@XU?$WebSocket@$0A@@uWS@@PEAD_K@std@@EEBAPEAV?$_Func_base@XU?$WebSocket@$0A@@uWS@@PEAD_K@2@PEAX@Z 0000000180012ae0 f i addon.obj
 0001:00011b00       ?_Target_type@?$_Func_impl@V<lambda_185a28332b424bb2e46d1162c88273d4>@@V?$allocator@H@std@@XU?$WebSocket@$0A@@uWS@@PEAD_K@std@@EEBAAEBVtype_info@@XZ 0000000180012b00 f i addon.obj
 0001:00011b10       ?_Move@?$_Func_impl@V<lambda_185a28332b424bb2e46d1162c88273d4>@@V?$allocator@H@std@@XU?$WebSocket@$0A@@uWS@@PEAD_K@std@@EEAAPEAV?$_Func_base@XU?$WebSocket@$0A@@uWS@@PEAD_K@2@PEAX@Z 0000000180012b10 f i addon.obj
 0001:00011b10       ?_Copy@?$_Func_impl@V<lambda_185a28332b424bb2e46d1162c88273d4>@@V?$allocator@H@std@@XU?$WebSocket@$0A@@uWS@@PEAD_K@std@@EEBAPEAV?$_Func_base@XU?$WebSocket@$0A@@uWS@@PEAD_K@2@PEAX@Z 0000000180012b10 f i addon.obj
 0001:00011b30       ?_Target_type@?$_Func_impl@V<lambda_1df6e9150329589b41c0fe6f8b1f264e>@@V?$allocator@H@std@@XU?$WebSocket@$0A@@uWS@@HPEAD_K@std@@EEBAAEBVtype_info@@XZ 0000000180012b30 f i addon.obj
 0001:00011b40       ?_Copy@?$_Func_impl@V<lambda_1df6e9150329589b41c0fe6f8b1f264e>@@V?$allocator@H@std@@XU?$WebSocket@$0A@@uWS@@HPEAD_K@std@@EEBAPEAV?$_Func_base@XU?$WebSocket@$0A@@uWS@@HPEAD_K@2@PEAX@Z 0000000180012b40 f i addon.obj
 0001:00011b40       ?_Move@?$_Func_impl@V<lambda_1df6e9150329589b41c0fe6f8b1f264e>@@V?$allocator@H@std@@XU?$WebSocket@$0A@@uWS@@HPEAD_K@std@@EEAAPEAV?$_Func_base@XU?$WebSocket@$0A@@uWS@@HPEAD_K@2@PEAX@Z 0000000180012b40 f i addon.obj
 0001:00011b70       ?_Target_type@?$_Func_impl@V<lambda_c9a652ce08ab70a880491b309a6e9b7f>@@V?$allocator@H@std@@XU?$WebSocket@$0A@@uWS@@PEAD_KW4OpCode@5@@std@@EEBAAEBVtype_info@@XZ 0000000180012b70 f i addon.obj
 0001:00011b80       ?_Move@?$_Func_impl@V<lambda_c9a652ce08ab70a880491b309a6e9b7f>@@V?$allocator@H@std@@XU?$WebSocket@$0A@@uWS@@PEAD_KW4OpCode@5@@std@@EEAAPEAV?$_Func_base@XU?$WebSocket@$0A@@uWS@@PEAD_KW4OpCode@2@@2@PEAX@Z 0000000180012b80 f i addon.obj
 0001:00011b80       ?_Copy@?$_Func_impl@V<lambda_c9a652ce08ab70a880491b309a6e9b7f>@@V?$allocator@H@std@@XU?$WebSocket@$0A@@uWS@@PEAD_KW4OpCode@5@@std@@EEBAPEAV?$_Func_base@XU?$WebSocket@$0A@@uWS@@PEAD_KW4OpCode@2@@2@PEAX@Z 0000000180012b80 f i addon.obj
 0001:00011ba0       ?_Target_type@?$_Func_impl@V<lambda_a0d45c30ed7d53f13017b910323e74db>@@V?$allocator@H@std@@XU?$WebSocket@$0A@@uWS@@UUpgradeInfo@5@@std@@EEBAAEBVtype_info@@XZ 0000000180012ba0 f i addon.obj
 0001:00011bb0       ?_Copy@?$_Func_impl@V<lambda_a0d45c30ed7d53f13017b910323e74db>@@V?$allocator@H@std@@XU?$WebSocket@$0A@@uWS@@UUpgradeInfo@5@@std@@EEBAPEAV?$_Func_base@XU?$WebSocket@$0A@@uWS@@UUpgradeInfo@2@@2@PEAX@Z 0000000180012bb0 f i addon.obj
 0001:00011bb0       ?_Move@?$_Func_impl@V<lambda_a0d45c30ed7d53f13017b910323e74db>@@V?$allocator@H@std@@XU?$WebSocket@$0A@@uWS@@UUpgradeInfo@5@@std@@EEAAPEAV?$_Func_base@XU?$WebSocket@$0A@@uWS@@UUpgradeInfo@2@@2@PEAX@Z 0000000180012bb0 f i addon.obj
 0001:00011c2c       __imp_load_uv_close        0000000180012c2c f   node:node.exe
 0001:00011c38       __tailMerge_node_exe       0000000180012c38 f i node:node.exe
 0001:00011cb1       __imp_load_SSL_free        0000000180012cb1 f   node:node.exe
 0001:00011cbd       __imp_load_uv_poll_stop    0000000180012cbd f   node:node.exe
 0001:00011cc9       __imp_load_uv_timer_init   0000000180012cc9 f   node:node.exe
 0001:00011cd5       __imp_load_uv_timer_stop   0000000180012cd5 f   node:node.exe
 0001:00011ce1       __imp_load_uv_is_closing   0000000180012ce1 f   node:node.exe
 0001:00011ced       __imp_load_SSL_set_fd      0000000180012ced f   node:node.exe
 0001:00011cf9       __imp_load_uv_fileno       0000000180012cf9 f   node:node.exe
 0001:00011d05       __imp_load_uv_timer_start  0000000180012d05 f   node:node.exe
 0001:00011d11       __imp_load_uv_poll_init_socket 0000000180012d11 f   node:node.exe
 0001:00011d1d       __imp_load_SSL_write       0000000180012d1d f   node:node.exe
 0001:00011d29       __imp_load_SSL_ctrl        0000000180012d29 f   node:node.exe
 0001:00011d35       __imp_load_uv_async_send   0000000180012d35 f   node:node.exe
 0001:00011d41       __imp_load_uv_poll_start   0000000180012d41 f   node:node.exe
 0001:00011d4d       __imp_load_SSL_shutdown    0000000180012d4d f   node:node.exe
 0001:00011d59       __imp_load_SSL_get_error   0000000180012d59 f   node:node.exe
 0001:00011d65       __imp_load_inflateEnd      0000000180012d65 f   node:node.exe
 0001:00011d71       __imp_load_inflateInit2_   0000000180012d71 f   node:node.exe
 0001:00011d7d       __imp_load_SSL_CTX_free    0000000180012d7d f   node:node.exe
 0001:00011d89       __imp_load_SSL_CTX_ctrl    0000000180012d89 f   node:node.exe
 0001:00011d95       __imp_load_SSL_library_init 0000000180012d95 f   node:node.exe
 0001:00011da1       __imp_load_SSL_CTX_new     0000000180012da1 f   node:node.exe
 0001:00011dad       __imp_load_SSL_new         0000000180012dad f   node:node.exe
 0001:00011db9       __imp_load_SSL_want        0000000180012db9 f   node:node.exe
 0001:00011dc5       __imp_load_inflate         0000000180012dc5 f   node:node.exe
 0001:00011dd1       __imp_load_SSL_pending     0000000180012dd1 f   node:node.exe
 0001:00011ddd       __imp_load_SSL_read        0000000180012ddd f   node:node.exe
 0001:00011de9       __imp_load_SSL_set_accept_state 0000000180012de9 f   node:node.exe
 0001:00011df5       __imp_load_inflateReset    0000000180012df5 f   node:node.exe
 0001:00011e01       __imp_load_SSL_set_connect_state 0000000180012e01 f   node:node.exe
 0001:00011e0d       __imp_load_uv_run          0000000180012e0d f   node:node.exe
 0001:00011e19       __imp_load_uv_loop_new     0000000180012e19 f   node:node.exe
 0001:00011e25       __imp_load_SSLv23_client_method 0000000180012e25 f   node:node.exe
 0001:00011e31       __imp_load_uv_loop_delete  0000000180012e31 f   node:node.exe
 0001:00011e3d       __imp_load_uv_default_loop 0000000180012e3d f   node:node.exe
 0001:00011e49       __imp_load_SHA1            0000000180012e49 f   node:node.exe
 0001:00011e55       __imp_load_uv_unref        0000000180012e55 f   node:node.exe
 0001:00011e61       __imp_load_?Global@Context@v8@@QEAA?AV?$Local@VObject@v8@@@2@XZ 0000000180012e61 f   node:node.exe
 0001:00011e6d       __imp_load_?Value@External@v8@@QEBAPEAXXZ 0000000180012e6d f   node:node.exe
 0001:00011e79       __imp_load_?New@External@v8@@SA?AV?$Local@VExternal@v8@@@2@PEAVIsolate@2@PEAX@Z 0000000180012e79 f   node:node.exe
 0001:00011e85       __imp_load_?New@Integer@v8@@SA?AV?$Local@VInteger@v8@@@2@PEAVIsolate@2@H@Z 0000000180012e85 f   node:node.exe
 0001:00011e91       __imp_load_?GetCurrentContext@Isolate@v8@@QEAA?AV?$Local@VContext@v8@@@2@XZ 0000000180012e91 f   node:node.exe
 0001:00011e9d       __imp_load_?GetCurrent@Isolate@v8@@SAPEAV12@XZ 0000000180012e9d f   node:node.exe
 0001:00011ea9       __imp_load_?CreateHandle@HandleScope@v8@@KAPEAPEAVObject@internal@2@PEAVIsolate@42@PEAV342@@Z 0000000180012ea9 f   node:node.exe
 0001:00011eb5       __imp_load_??1HandleScope@v8@@QEAA@XZ 0000000180012eb5 f   node:node.exe
 0001:00011ec1       __imp_load_??0HandleScope@v8@@QEAA@PEAVIsolate@1@@Z 0000000180012ec1 f   node:node.exe
 0001:00011ecd       __imp_load_?Buffer@ArrayBufferView@v8@@QEAA?AV?$Local@VArrayBuffer@v8@@@2@XZ 0000000180012ecd f   node:node.exe
 0001:00011ed9       __imp_load_?New@Array@v8@@SA?AV?$Local@VArray@v8@@@2@PEAVIsolate@2@H@Z 0000000180012ed9 f   node:node.exe
 0001:00011ee5       __imp_load_?GetFunction@FunctionTemplate@v8@@QEAA?AV?$Local@VFunction@v8@@@2@XZ 0000000180012ee5 f   node:node.exe
 0001:00011ef1       __imp_load_?New@FunctionTemplate@v8@@SA?AV?$Local@VFunctionTemplate@v8@@@2@PEAVIsolate@2@P6AXAEBV?$FunctionCallbackInfo@VValue@v8@@@2@@ZV?$Local@VValue@v8@@@2@V?$Local@VSignature@v8@@@2@HW4ConstructorBehavior@2@@Z 0000000180012ef1 f   node:node.exe
 0001:00011efd       __imp_load_?GetContents@ArrayBuffer@v8@@QEAA?AVContents@12@XZ 0000000180012efd f   node:node.exe
 0001:00011f09       __imp_load_?New@ArrayBuffer@v8@@SA?AV?$Local@VArrayBuffer@v8@@@2@PEAVIsolate@2@PEAX_KW4ArrayBufferCreationMode@2@@Z 0000000180012f09 f   node:node.exe
 0001:00011f15       __imp_load_?DisposeGlobal@V8@v8@@CAXPEAPEAVObject@internal@2@@Z 0000000180012f15 f   node:node.exe
 0001:00011f21       __imp_load_?GlobalizeReference@V8@v8@@CAPEAPEAVObject@internal@2@PEAVIsolate@42@PEAPEAV342@@Z 0000000180012f21 f   node:node.exe
 0001:00011f2d       __imp_load_?IntegerValue@Value@v8@@QEBA_JXZ 0000000180012f2d f   node:node.exe
 0001:00011f39       __imp_load_?BooleanValue@Value@v8@@QEBA_NXZ 0000000180012f39 f   node:node.exe
 0001:00011f45       __imp_load_?IsTypedArray@Value@v8@@QEBA_NXZ 0000000180012f45 f   node:node.exe
 0001:00011f51       __imp_load_?IsArrayBuffer@Value@v8@@QEBA_NXZ 0000000180012f51 f   node:node.exe
 0001:00011f5d       __imp_load_?IsExternal@Value@v8@@QEBA_NXZ 0000000180012f5d f   node:node.exe
 0001:00011f69       __imp_load_?IsObject@Value@v8@@QEBA_NXZ 0000000180012f69 f   node:node.exe
 0001:00011f75       __imp_load_?IsFunction@Value@v8@@QEBA_NXZ 0000000180012f75 f   node:node.exe
 0001:00011f81       __imp_load_??1Utf8Value@String@v8@@QEAA@XZ 0000000180012f81 f   node:node.exe
 0001:00011f8d       __imp_load_??0Utf8Value@String@v8@@QEAA@V?$Local@VValue@v8@@@2@@Z 0000000180012f8d f   node:node.exe
 0001:00011f99       __imp_load_?NewFromUtf8@String@v8@@SA?AV?$Local@VString@v8@@@2@PEAVIsolate@2@PEBDW4NewStringType@12@H@Z 0000000180012f99 f   node:node.exe
 0001:00011fa5       __imp_load_?SlowGetAlignedPointerFromInternalField@Object@v8@@AEAAPEAXH@Z 0000000180012fa5 f   node:node.exe
 0001:00011fb1       __imp_load_?New@Object@v8@@SA?AV?$Local@VObject@v8@@@2@PEAVIsolate@2@@Z 0000000180012fb1 f   node:node.exe
 0001:00011fbd       __imp_load_?GetIsolate@Object@v8@@QEAAPEAVIsolate@2@XZ 0000000180012fbd f   node:node.exe
 0001:00011fc9       __imp_load_?Set@Object@v8@@QEAA_NV?$Local@VValue@v8@@@2@0@Z 0000000180012fc9 f   node:node.exe
 0001:00011fd5       __imp_load_?Set@Object@v8@@QEAA_NIV?$Local@VValue@v8@@@2@@Z 0000000180012fd5 f   node:node.exe
 0001:00011fe1       __imp_load_?SetName@Function@v8@@QEAAXV?$Local@VString@v8@@@2@@Z 0000000180012fe1 f   node:node.exe
 0001:00011fed       __imp_load_?Call@Function@v8@@QEAA?AV?$Local@VValue@v8@@@2@V32@HQEAV32@@Z 0000000180012fed f   node:node.exe
 0001:00011ff9       __imp_load_node_module_register 0000000180012ff9 f   node:node.exe
 0001:00012005       __imp_load_?HasInstance@Buffer@node@@YA_NV?$Local@VValue@v8@@@v8@@@Z 0000000180013005 f   node:node.exe
 0001:00012011       __imp_load_?Data@Buffer@node@@YAPEADV?$Local@VValue@v8@@@v8@@@Z 0000000180013011 f   node:node.exe
 0001:0001201d       __imp_load_?Length@Buffer@node@@YA_KV?$Local@VValue@v8@@@v8@@@Z 000000018001301d f   node:node.exe
 0001:00012029       __imp_load_?MakeCallback@node@@YA?AV?$Local@VValue@v8@@@v8@@PEAVIsolate@3@V?$Local@VObject@v8@@@3@V?$Local@VFunction@v8@@@3@HPEAV23@@Z 0000000180013029 f   node:node.exe
 0001:00012035       __imp_load_uv_check_init   0000000180013035 f   node:node.exe
 0001:00012041       __imp_load_uv_check_start  0000000180013041 f   node:node.exe
 0001:0001204d       __imp_load_?ToObject@Value@v8@@QEBA?AV?$Local@VObject@v8@@@2@XZ 000000018001304d f   node:node.exe
 0001:0001205c       ??0bad_alloc@std@@QEAA@AEBV01@@Z 000000018001305c f i libcpmt:xthrow.obj
 0001:0001209c       ??0bad_alloc@std@@QEAA@XZ  000000018001309c f i libcpmt:xthrow.obj
 0001:000120bc       ??0bad_function_call@std@@QEAA@AEBV01@@Z 00000001800130bc f i libcpmt:xthrow.obj
 0001:000120fc       ??0bad_function_call@std@@QEAA@XZ 00000001800130fc f i libcpmt:xthrow.obj
 0001:00012114       ??0exception@std@@QEAA@AEBV01@@Z 0000000180013114 f i libcpmt:xthrow.obj
 0001:0001214c       ??0invalid_argument@std@@QEAA@AEBV01@@Z 000000018001314c f i libcpmt:xthrow.obj
 0001:0001218c       ??0invalid_argument@std@@QEAA@PEBD@Z 000000018001318c f i libcpmt:xthrow.obj
 0001:000121d8       ??0length_error@std@@QEAA@AEBV01@@Z 00000001800131d8 f i libcpmt:xthrow.obj
 0001:00012218       ??0length_error@std@@QEAA@PEBD@Z 0000000180013218 f i libcpmt:xthrow.obj
 0001:00012264       ??0logic_error@std@@QEAA@AEBV01@@Z 0000000180013264 f i libcpmt:xthrow.obj
 0001:000122a4       ??0out_of_range@std@@QEAA@AEBV01@@Z 00000001800132a4 f i libcpmt:xthrow.obj
 0001:000122e4       ??0out_of_range@std@@QEAA@PEBD@Z 00000001800132e4 f i libcpmt:xthrow.obj
 0001:00012330       ??0runtime_error@std@@QEAA@AEBV01@@Z 0000000180013330 f i libcpmt:xthrow.obj
 0001:00012370       ?_Xbad_function_call@std@@YAXXZ 0000000180013370 f   libcpmt:xthrow.obj
 0001:00012390       ?_Xinvalid_argument@std@@YAXPEBD@Z 0000000180013390 f   libcpmt:xthrow.obj
 0001:000123b4       ?_Xlength_error@std@@YAXPEBD@Z 00000001800133b4 f   libcpmt:xthrow.obj
 0001:000123d8       ?_Xout_of_range@std@@YAXPEBD@Z 00000001800133d8 f   libcpmt:xthrow.obj
 0001:000123fc       ?what@bad_function_call@std@@UEBAPEBDXZ 00000001800133fc f i libcpmt:xthrow.obj
 0001:00012404       ?what@exception@std@@UEBAPEBDXZ 0000000180013404 f i libcpmt:xthrow.obj
 0001:00012418       ??0_System_error@std@@IEAA@Verror_code@1@AEBV?$basic_string@DU?$char_traits@D@std@@V?$allocator@D@2@@1@@Z 0000000180013418 f i libcpmt:thread0.obj
 0001:00012500       ??0_System_error@std@@QEAA@AEBV01@@Z 0000000180013500 f i libcpmt:thread0.obj
 0001:00012554       ??0system_error@std@@QEAA@AEBV01@@Z 0000000180013554 f i libcpmt:thread0.obj
 0001:000125b0       ??0system_error@std@@QEAA@HAEBVerror_category@1@PEBD@Z 00000001800135b0 f i libcpmt:thread0.obj
 0001:0001267c       ??_Esystem_error@std@@UEAAPEAXI@Z 000000018001367c f i libcpmt:thread0.obj
 0001:0001267c       ??_E_System_error@std@@UEAAPEAXI@Z 000000018001367c f i libcpmt:thread0.obj
 0001:0001267c       ??_G_System_error@std@@UEAAPEAXI@Z 000000018001367c f i libcpmt:thread0.obj
 0001:0001267c       ??_Gsystem_error@std@@UEAAPEAXI@Z 000000018001367c f i libcpmt:thread0.obj
 0001:000126c0       ??_G_Generic_error_category@std@@UEAAPEAXI@Z 00000001800136c0 f i libcpmt:thread0.obj
 0001:000126c0       ??_E_Generic_error_category@std@@UEAAPEAXI@Z 00000001800136c0 f i libcpmt:thread0.obj
 0001:000126c0       ??_Eerror_category@std@@UEAAPEAXI@Z 00000001800136c0 f i libcpmt:thread0.obj
 0001:000126c0       ??_Gerror_category@std@@UEAAPEAXI@Z 00000001800136c0 f i libcpmt:thread0.obj
 0001:000126ec       ?_Makestr@_System_error@std@@CA?AV?$basic_string@DU?$char_traits@D@std@@V?$allocator@D@2@@2@Verror_code@2@V32@@Z 00000001800136ec f i libcpmt:thread0.obj
 0001:000127f4       ?_Throw_C_error@std@@YAXH@Z 00000001800137f4 f   libcpmt:thread0.obj
 0001:00012830       ?_Throw_Cpp_error@std@@YAXH@Z 0000000180013830 f   libcpmt:thread0.obj
 0001:00012878       ?default_error_condition@error_category@std@@UEBA?AVerror_condition@2@H@Z 0000000180013878 f i libcpmt:thread0.obj
 0001:00012884       ?equivalent@error_category@std@@UEBA_NAEBVerror_code@2@H@Z 0000000180013884 f i libcpmt:thread0.obj
 0001:000128a0       ?equivalent@error_category@std@@UEBA_NHAEBVerror_condition@2@@Z 00000001800138a0 f i libcpmt:thread0.obj
 0001:00012910       ?generic_category@std@@YAAEBVerror_category@1@XZ 0000000180013910 f i libcpmt:thread0.obj
 0001:00012958       ?message@_Generic_error_category@std@@UEBA?AV?$basic_string@DU?$char_traits@D@std@@V?$allocator@D@2@@2@H@Z 0000000180013958 f i libcpmt:thread0.obj
 0001:000129b0       ?message@error_code@std@@QEBA?AV?$basic_string@DU?$char_traits@D@std@@V?$allocator@D@2@@2@XZ 00000001800139b0 f i libcpmt:thread0.obj
 0001:00012a08       ?name@_Generic_error_category@std@@UEBAPEBDXZ 0000000180013a08 f i libcpmt:thread0.obj
 0001:00012a10       ??1GlobalCore@details@Concurrency@@QEAA@XZ 0000000180013a10 f i libcpmt:mutex.obj
 0001:00012a20       ?create_stl_critical_section@details@Concurrency@@YAXPEAVstl_critical_section_interface@12@@Z 0000000180013a20 f i libcpmt:mutex.obj
 0001:00012ac8       ?destroy@stl_critical_section_concrt@details@Concurrency@@UEAAXXZ 0000000180013ac8 f i libcpmt:mutex.obj
 0001:00012ad4       ?destroy@stl_critical_section_vista@details@Concurrency@@UEAAXXZ 0000000180013ad4 f i libcpmt:mutex.obj
 0001:00012ae0       ?lock@stl_critical_section_concrt@details@Concurrency@@UEAAXXZ 0000000180013ae0 f i libcpmt:mutex.obj
 0001:00012aec       ?lock@stl_critical_section_vista@details@Concurrency@@UEAAXXZ 0000000180013aec f i libcpmt:mutex.obj
 0001:00012af8       ?lock@stl_critical_section_win7@details@Concurrency@@UEAAXXZ 0000000180013af8 f i libcpmt:mutex.obj
 0001:00012c98       ?try_lock@stl_critical_section_concrt@details@Concurrency@@UEAA_NXZ 0000000180013c98 f i libcpmt:mutex.obj
 0001:00012ca4       ?try_lock@stl_critical_section_win7@details@Concurrency@@UEAA_NXZ 0000000180013ca4 f i libcpmt:mutex.obj
 0001:00012ca4       ?try_lock_for@stl_critical_section_win7@details@Concurrency@@UEAA_NI@Z 0000000180013ca4 f i libcpmt:mutex.obj
 0001:00012cbc       ?try_lock_for@stl_critical_section_concrt@details@Concurrency@@UEAA_NI@Z 0000000180013cbc f i libcpmt:mutex.obj
 0001:00012cc8       ?try_lock_for@stl_critical_section_vista@details@Concurrency@@UEAA_NI@Z 0000000180013cc8 f i libcpmt:mutex.obj
 0001:00012cc8       ?try_lock@stl_critical_section_vista@details@Concurrency@@UEAA_NXZ 0000000180013cc8 f i libcpmt:mutex.obj
 0001:00012ce0       ?unlock@stl_critical_section_concrt@details@Concurrency@@UEAAXXZ 0000000180013ce0 f i libcpmt:mutex.obj
 0001:00012cec       ?unlock@stl_critical_section_vista@details@Concurrency@@UEAAXXZ 0000000180013cec f i libcpmt:mutex.obj
 0001:00012cf8       ?unlock@stl_critical_section_win7@details@Concurrency@@UEAAXXZ 0000000180013cf8 f i libcpmt:mutex.obj
 0001:00012d04       _Mtx_clear_owner           0000000180013d04 f   libcpmt:mutex.obj
 0001:00012d0c       _Mtx_destroy_in_situ       0000000180013d0c f   libcpmt:mutex.obj
 0001:00012d3c       _Mtx_init_in_situ          0000000180013d3c f   libcpmt:mutex.obj
 0001:00012d6c       _Mtx_lock                  0000000180013d6c f   libcpmt:mutex.obj
 0001:00012d74       _Mtx_reset_owner           0000000180013d74 f   libcpmt:mutex.obj
 0001:00012d90       _Mtx_unlock                0000000180013d90 f   libcpmt:mutex.obj
 0001:00012dcc       ?_Syserror_map@std@@YAPEBDH@Z 0000000180013dcc f   libcpmt:syserror.obj
 0001:00012df4       _Xtime_diff_to_millis2     0000000180013df4 f   libcpmt:xtime.obj
 0001:00012ec0       _Xtime_get_ticks           0000000180013ec0 f   libcpmt:xtime.obj
 0001:00012ef0       xtime_get                  0000000180013ef0 f   libcpmt:xtime.obj
 0001:00013418       __crtAcquireSRWLockExclusive 0000000180014418 f   libcpmt:winapisupp.obj
 0001:00013450       __crtCloseThreadpoolTimer  0000000180014450 f   libcpmt:winapisupp.obj
 0001:00013488       __crtCloseThreadpoolWait   0000000180014488 f   libcpmt:winapisupp.obj
 0001:000134c0       __crtCreateEventExW        00000001800144c0 f   libcpmt:winapisupp.obj
 0001:0001353c       __crtCreateSemaphoreExW    000000018001453c f   libcpmt:winapisupp.obj
 0001:000135dc       __crtCreateThreadpoolTimer 00000001800145dc f   libcpmt:winapisupp.obj
 0001:00013638       __crtCreateThreadpoolWait  0000000180014638 f   libcpmt:winapisupp.obj
 0001:00013694       __crtFlushProcessWriteBuffers 0000000180014694 f   libcpmt:winapisupp.obj
 0001:000136bc       __crtFreeLibraryWhenCallbackReturns 00000001800146bc f   libcpmt:winapisupp.obj
 0001:00013704       __crtGetCurrentProcessorNumber 0000000180014704 f   libcpmt:winapisupp.obj
 0001:00013738       __crtGetSystemTimePreciseAsFileTime 0000000180014738 f   libcpmt:winapisupp.obj
 0001:00013778       __crtGetTickCount64        0000000180014778 f   libcpmt:winapisupp.obj
 0001:000137b0       __crtInitializeConditionVariable 00000001800147b0 f   libcpmt:winapisupp.obj
 0001:000137e8       __crtInitializeCriticalSectionEx 00000001800147e8 f   libcpmt:winapisupp.obj
 0001:00013848       __crtInitializeSRWLock     0000000180014848 f   libcpmt:winapisupp.obj
 0001:00013880       __crtReleaseSRWLockExclusive 0000000180014880 f   libcpmt:winapisupp.obj
 0001:000138b8       __crtSetThreadpoolTimer    00000001800148b8 f   libcpmt:winapisupp.obj
 0001:00013920       __crtSetThreadpoolWait     0000000180014920 f   libcpmt:winapisupp.obj
 0001:00013978       __crtSleepConditionVariableCS 0000000180014978 f   libcpmt:winapisupp.obj
 0001:000139d0       __crtSleepConditionVariableSRW 00000001800149d0 f   libcpmt:winapisupp.obj
 0001:00013a38       __crtTryAcquireSRWLockExclusive 0000000180014a38 f   libcpmt:winapisupp.obj
 0001:00013a70       __crtWaitForThreadpoolTimerCallbacks 0000000180014a70 f   libcpmt:winapisupp.obj
 0001:00013ab4       __crtWakeAllConditionVariable 0000000180014ab4 f   libcpmt:winapisupp.obj
 0001:00013aec       __crtWakeConditionVariable 0000000180014aec f   libcpmt:winapisupp.obj
 0001:00013b40       __security_check_cookie    0000000180014b40 f   LIBCMT:_amdsecgs_.obj
 0001:00013b64       ??2@YAPEAX_K@Z             0000000180014b64 f   LIBCMT:new_scalar.obj
 0001:00013ba0       ??3@YAXPEAX@Z              0000000180014ba0 f   LIBCMT:delete_scalar.obj
 0001:00013ba8       ??_V@YAXPEAX@Z             0000000180014ba8 f   LIBCMT:delete_array.obj
 0001:00013ba8       ??3@YAXPEAX_K@Z            0000000180014ba8 f   LIBCMT:delete_scalar_size.obj
 0001:00013bb0       ??_U@YAPEAX_K@Z            0000000180014bb0 f   LIBCMT:new_array.obj
 0001:00013bb8       ??_Etype_info@@UEAAPEAXI@Z 0000000180014bb8 f i LIBCMT:std_type_info_static.obj
 0001:00013bb8       ??_Gtype_info@@UEAAPEAXI@Z 0000000180014bb8 f i LIBCMT:std_type_info_static.obj
 0001:00013be4       __scrt_acquire_startup_lock 0000000180014be4 f   LIBCMT:utility.obj
 0001:00013c20       __scrt_dllmain_after_initialize_c 0000000180014c20 f   LIBCMT:utility.obj
 0001:00013c54       __scrt_dllmain_before_initialize_c 0000000180014c54 f   LIBCMT:utility.obj
 0001:00013c6c       __scrt_dllmain_crt_thread_attach 0000000180014c6c f   LIBCMT:utility.obj
 0001:00013c94       __scrt_dllmain_crt_thread_detach 0000000180014c94 f   LIBCMT:utility.obj
 0001:00013cac       __scrt_dllmain_exception_filter 0000000180014cac f   LIBCMT:utility.obj
 0001:00013d10       __scrt_dllmain_uninitialize_c 0000000180014d10 f   LIBCMT:utility.obj
 0001:00013d40       __scrt_dllmain_uninitialize_critical 0000000180014d40 f   LIBCMT:utility.obj
 0001:00013d54       __scrt_initialize_crt      0000000180014d54 f   LIBCMT:utility.obj
 0001:00013da0       __scrt_initialize_onexit_tables 0000000180014da0 f   LIBCMT:utility.obj
 0001:00013e6c       __scrt_is_nonwritable_in_current_image 0000000180014e6c f   LIBCMT:utility.obj
 0001:00013f08       __scrt_release_startup_lock 0000000180014f08 f   LIBCMT:utility.obj
 0001:00013f2c       __scrt_uninitialize_crt    0000000180014f2c f   LIBCMT:utility.obj
 0001:00013f58       _onexit                    0000000180014f58 f   LIBCMT:utility.obj
 0001:00013fa8       atexit                     0000000180014fa8 f   LIBCMT:utility.obj
 0001:00014330       _DllMainCRTStartup         0000000180015330 f   LIBCMT:dll_dllmain.obj
 0001:00014370       __GSHandlerCheck           0000000180015370 f   LIBCMT:_gshandler_.obj
 0001:00014390       __GSHandlerCheckCommon     0000000180015390 f   LIBCMT:_gshandler_.obj
 0001:000143ec       __GSHandlerCheck_EH        00000001800153ec f   LIBCMT:gshandlereh.obj
 0001:0001447c       _guard_check_icall         000000018001547c f i LIBCMT:checkcfg.obj
 0001:00014484       ??_M@YAXPEAX_K1P6AX0@Z@Z   0000000180015484 f   LIBCMT:ehvecdtr.obj
 0001:000144f0       ?__ArrayUnwind@@YAXPEAX_K1P6AX0@Z@Z 00000001800154f0 f   LIBCMT:ehvecdtr.obj
 0001:00014554       ??_V@YAXPEAX_K@Z           0000000180015554 f   LIBCMT:delete_array_size.obj
 0001:0001455c       __raise_securityfailure    000000018001555c f   LIBCMT:gs_report.obj
 0001:00014590       __report_gsfailure         0000000180015590 f   LIBCMT:gs_report.obj
 0001:00014664       __report_rangecheckfailure 0000000180015664 f   LIBCMT:gs_report.obj
 0001:00014678       __report_securityfailure   0000000180015678 f   LIBCMT:gs_report.obj
 0001:000147f8       ??0bad_array_new_length@std@@QEAA@AEBV01@@Z 00000001800157f8 f i LIBCMT:throw_bad_alloc.obj
 0001:00014838       ??0bad_array_new_length@std@@QEAA@XZ 0000000180015838 f i LIBCMT:throw_bad_alloc.obj
 0001:00014858       ?__scrt_throw_std_bad_alloc@@YAXXZ 0000000180015858 f   LIBCMT:throw_bad_alloc.obj
 0001:00014858       ?_Xbad_alloc@std@@YAXXZ    0000000180015858 f   libcpmt:xthrow.obj
 0001:00014878       ?__scrt_throw_std_bad_array_new_length@@YAXXZ 0000000180015878 f   LIBCMT:throw_bad_alloc.obj
 0001:00014898       __isa_available_init       0000000180015898 f   LIBCMT:_cpu_disp_.obj
 0001:00014a5c       __scrt_is_ucrt_dll_in_use  0000000180015a5c f   LIBCMT:ucrt_detection.obj
 0001:00014a68       __crt_debugger_hook        0000000180015a68 f   LIBCMT:utility_desktop.obj
 0001:00014a70       __scrt_fastfail            0000000180015a70 f   LIBCMT:utility_desktop.obj
 0001:00014bb8       __security_init_cookie     0000000180015bb8 f   LIBCMT:gs_support.obj
 0001:00014c64       _get_startup_argv_mode     0000000180015c64 f   LIBCMT:argv_mode.obj
 0001:00014c64       DllMain                    0000000180015c64 f   LIBCMT:dll_dllmain_stub.obj
 0001:00014c64       ?GetContextKind@ThreadInternalContext@details@Concurrency@@UEBA?AW4ContextKind@ContextBase@23@XZ 0000000180015c64 f   libconcrt:ThreadScheduler.obj
 0001:00014c6c       ?__scrt_initialize_type_info@@YAXXZ 0000000180015c6c f   LIBCMT:tncleanup.obj
 0001:00014c7c       ?__scrt_uninitialize_type_info@@YAXXZ 0000000180015c7c f   LIBCMT:tncleanup.obj
 0001:00014c88       __local_stdio_printf_options 0000000180015c88 f i LIBCMT:default_local_stdio_options.obj
 0001:00014c90       __local_stdio_scanf_options 0000000180015c90 f i LIBCMT:default_local_stdio_options.obj
 0001:00014c98       __scrt_initialize_default_local_stdio_options 0000000180015c98 f   LIBCMT:default_local_stdio_options.obj
 0001:00014cb4       __scrt_get_dyn_tls_init_callback 0000000180015cb4 f   LIBCMT:dyn_tls_init.obj
 0001:00014cbc       _RTC_Initialize            0000000180015cbc f   LIBCMT:_initsect_.obj
 0001:00014d08       _RTC_Terminate             0000000180015d08 f   LIBCMT:_initsect_.obj
 0001:00014d60       ??0LockQueueNode@details@Concurrency@@QEAA@I@Z 0000000180015d60 f i libconcrt:rtlocks.obj
 0001:00014e68       ??0_NonReentrantBlockingLock@details@Concurrency@@QEAA@XZ 0000000180015e68 f   libconcrt:rtlocks.obj
 0001:00014e68       ??0_ReentrantBlockingLock@details@Concurrency@@QEAA@XZ 0000000180015e68 f   libconcrt:rtlocks.obj
 0001:00014e88       ??0_ReaderWriterLock@details@Concurrency@@QEAA@XZ 0000000180015e88 f   libconcrt:rtlocks.obj
 0001:00014e9c       ??0critical_section@Concurrency@@QEAA@XZ 0000000180015e9c f   libconcrt:rtlocks.obj
 0001:00014ec4       ??0improper_lock@Concurrency@@QEAA@AEBV01@@Z 0000000180015ec4 f i libconcrt:rtlocks.obj
 0001:00014f04       ??0scoped_lock@critical_section@Concurrency@@QEAA@AEAV12@@Z 0000000180015f04 f   libconcrt:rtlocks.obj
 0001:00014f58       ??1_ReentrantBlockingLock@details@Concurrency@@QEAA@XZ 0000000180015f58 f   libconcrt:rtlocks.obj
 0001:00014f58       ??1_NonReentrantBlockingLock@details@Concurrency@@QEAA@XZ 0000000180015f58 f   libconcrt:rtlocks.obj
 0001:00014f60       ??1scoped_lock@critical_section@Concurrency@@QEAA@XZ 0000000180015f60 f   libconcrt:rtlocks.obj
 0001:00014f7c       ?Block@LockQueueNode@details@Concurrency@@QEAAXI@Z 0000000180015f7c f i libconcrt:rtlocks.obj
 0001:0001502c       ?DispatchNodeTimeoutTimer@LockQueueNode@details@Concurrency@@SAXPEAU_TP_CALLBACK_INSTANCE@@PEAXPEAU_TP_TIMER@@@Z 000000018001602c f i libconcrt:rtlocks.obj
 0001:000150b4       ?DispatchNodeTimeoutTimerXP@LockQueueNode@details@Concurrency@@SAXPEAXE@Z 00000001800160b4 f i libconcrt:rtlocks.obj
 0001:0001512c       ?UpdateQueuePosition@LockQueueNode@details@Concurrency@@QEAAXPEAV123@@Z 000000018001612c f i libconcrt:rtlocks.obj
 0001:000151b0       ?_Acquire@_ReentrantBlockingLock@details@Concurrency@@QEAAXXZ 00000001800161b0 f   libconcrt:rtlocks.obj
 0001:000151b0       ?_Acquire@_NonReentrantBlockingLock@details@Concurrency@@QEAAXXZ 00000001800161b0 f   libconcrt:rtlocks.obj
 0001:000151b8       ?_AcquireRead@_ReaderWriterLock@details@Concurrency@@QEAAXXZ 00000001800161b8 f   libconcrt:rtlocks.obj
 0001:000151f8       ?_AcquireWrite@_ReaderWriterLock@details@Concurrency@@QEAAXXZ 00000001800161f8 f   libconcrt:rtlocks.obj
 0001:00015234       ?_Acquire_lock@critical_section@Concurrency@@QEAA_NPEAX_N@Z 0000000180016234 f   libconcrt:rtlocks.obj
 0001:00015350       ?_FlushWriteOwners@_ReaderWriterLock@details@Concurrency@@QEAAXXZ 0000000180016350 f   libconcrt:rtlocks.obj
 0001:00015370       ?_Flush_current_owner@critical_section@Concurrency@@QEAAXXZ 0000000180016370 f   libconcrt:rtlocks.obj
 0001:00015398       ?_Initialize@_SpinCount@details@Concurrency@@SAXXZ 0000000180016398 f   libconcrt:rtlocks.obj
 0001:000153bc       ?_Release@_NonReentrantBlockingLock@details@Concurrency@@QEAAXXZ 00000001800163bc f   libconcrt:rtlocks.obj
 0001:000153bc       ?_Release@_ReentrantBlockingLock@details@Concurrency@@QEAAXXZ 00000001800163bc f   libconcrt:rtlocks.obj
 0001:000153c4       ?_ReleaseRead@_ReaderWriterLock@details@Concurrency@@QEAAXXZ 00000001800163c4 f   libconcrt:rtlocks.obj
 0001:000153c8       ?_ReleaseWrite@_ReaderWriterLock@details@Concurrency@@QEAAXXZ 00000001800163c8 f   libconcrt:rtlocks.obj
 0001:000153d4       ?_SpinOnce@?$_SpinWait@$00@details@Concurrency@@QEAA_NXZ 00000001800163d4 f i libconcrt:rtlocks.obj
 0001:00015494       ?_SpinOnce@?$_SpinWait@$0A@@details@Concurrency@@QEAA_NXZ 0000000180016494 f i libconcrt:rtlocks.obj
 0001:00015534       ?_Switch_to_active@critical_section@Concurrency@@AEAAXPEAX@Z 0000000180016534 f   libconcrt:rtlocks.obj
 0001:000155bc       ?_TryAcquireWrite@_ReaderWriterLock@details@Concurrency@@QEAA_NXZ 00000001800165bc f   libconcrt:rtlocks.obj
 0001:000155d4       ?_WaitEquals@_ReaderWriterLock@details@Concurrency@@CAXAEDJJJ@Z 00000001800165d4 f   libconcrt:rtlocks.obj
 0001:00015648       ?lock@critical_section@Concurrency@@QEAAXXZ 0000000180016648 f   libconcrt:rtlocks.obj
 0001:00015684       ?try_lock@critical_section@Concurrency@@QEAA_NXZ 0000000180016684 f   libconcrt:rtlocks.obj
 0001:000156e0       ?try_lock_for@critical_section@Concurrency@@QEAA_NI@Z 00000001800166e0 f   libconcrt:rtlocks.obj
 0001:000157a0       ?unlock@critical_section@Concurrency@@QEAAXXZ 00000001800167a0 f   libconcrt:rtlocks.obj
 0001:000158c8       ??0scheduler_resource_allocation_error@Concurrency@@QEAA@AEBV01@@Z 00000001800168c8 f i libconcrt:Platform.obj
 0001:00015918       ??1DefaultWaiterPool@platform@details@Concurrency@@QEAA@XZ 0000000180016918 f i libconcrt:Platform.obj
 0001:00015980       ?InitializeSystemFunctionPointers@platform@details@Concurrency@@YAXXZ 0000000180016980 f   libconcrt:Platform.obj
 0001:00015a8c       ?__ChangeTimerQueueTimer@platform@details@Concurrency@@YAHPEAX0KK@Z 0000000180016a8c f   libconcrt:Platform.obj
 0001:00015a94       ?__CloseThreadHandle@platform@details@Concurrency@@YAXPEAX@Z 0000000180016a94 f   libconcrt:Platform.obj
 0001:00015a9c       ?__CreateAutoResetEvent@platform@details@Concurrency@@YAPEAX_N@Z 0000000180016a9c f   libconcrt:Platform.obj
 0001:00015af8       ?__CreateThread@platform@details@Concurrency@@YAPEAXPEAU_SECURITY_ATTRIBUTES@@_KP6AKPEAX@Z2KPEAK@Z 0000000180016af8 f   libconcrt:Platform.obj
 0001:00015b00       ?__CreateTimerQueueTimer@platform@details@Concurrency@@YAHPEAPEAXPEAXP6AX1E@Z1KKK@Z 0000000180016b00 f   libconcrt:Platform.obj
 0001:00015b08       ?__DeleteTimerQueueTimer@platform@details@Concurrency@@YAXPEAX00@Z 0000000180016b08 f   libconcrt:Platform.obj
 0001:00015b68       ?__GetCurrentProcessorNumberEx@platform@details@Concurrency@@YAXPEAU_PROCESSOR_NUMBER@@@Z 0000000180016b68 f   libconcrt:Platform.obj
 0001:00015ba0       ?__GetLogicalProcessorInformation@platform@details@Concurrency@@YAPEAU_SYSTEM_LOGICAL_PROCESSOR_INFORMATION@@PEAK@Z 0000000180016ba0 f   libconcrt:Platform.obj
 0001:00015c6c       ?__GetLogicalProcessorInformationEx@platform@details@Concurrency@@YAPEAU_SYSTEM_LOGICAL_PROCESSOR_INFORMATION_EX@@W4_LOGICAL_PROCESSOR_RELATIONSHIP@@PEAK@Z 0000000180016c6c f   libconcrt:Platform.obj
 0001:00015db8       ?__GetNumaHighestNodeNumber@platform@details@Concurrency@@YAKXZ 0000000180016db8 f   libconcrt:Platform.obj
 0001:00015e04       ?__GetThreadGroupAffinity@platform@details@Concurrency@@YAHPEAXPEAU_GROUP_AFFINITY@@@Z 0000000180016e04 f   libconcrt:Platform.obj
 0001:00015e80       ?__GetThreadPriority@platform@details@Concurrency@@YAHPEAX@Z 0000000180016e80 f   libconcrt:Platform.obj
 0001:00015e88       ?__GetTickCount64@platform@details@Concurrency@@YA_KXZ 0000000180016e88 f   libconcrt:Platform.obj
 0001:00015e90       ?__InitializeCriticalSectionEx@platform@details@Concurrency@@YAHPEAU_RTL_CRITICAL_SECTION@@K@Z 0000000180016e90 f   libconcrt:Platform.obj
 0001:00015e98       ?__RegisterWaitForSingleObject@platform@details@Concurrency@@YAPEAXPEAXP6AX0E@Z0@Z 0000000180016e98 f   libconcrt:Platform.obj
 0001:00015efc       ?__SetThreadGroupAffinity@platform@details@Concurrency@@YAHPEAXPEBU_GROUP_AFFINITY@@@Z 0000000180016efc f   libconcrt:Platform.obj
 0001:00015f60       ?__SetThreadPriority@platform@details@Concurrency@@YAXPEAXH@Z 0000000180016f60 f   libconcrt:Platform.obj
 0001:00015fa4       ?__SignalObjectAndWait@platform@details@Concurrency@@YAKPEAX0KH@Z 0000000180016fa4 f   libconcrt:Platform.obj
 0001:00015fac       ?__Sleep@platform@details@Concurrency@@YAXK@Z 0000000180016fac f   libconcrt:Platform.obj
 0001:00015fb4       ?__SwitchToThread@platform@details@Concurrency@@YAXXZ 0000000180016fb4 f   libconcrt:Platform.obj
 0001:00015fbc       ?__TlsAlloc@platform@details@Concurrency@@YAKXZ 0000000180016fbc f   libconcrt:Platform.obj
 0001:00016000       ?__TlsFree@platform@details@Concurrency@@YAXK@Z 0000000180017000 f   libconcrt:Platform.obj
 0001:00016008       ?__TlsGetValue@platform@details@Concurrency@@YAPEAXK@Z 0000000180017008 f   libconcrt:Platform.obj
 0001:00016010       ?__TlsSetValue@platform@details@Concurrency@@YAXKPEAX@Z 0000000180017010 f   libconcrt:Platform.obj
 0001:00016054       ?__UnregisterWait@platform@details@Concurrency@@YAXPEAX@Z 0000000180017054 f   libconcrt:Platform.obj
 0001:0001605c       ?__WaitForThread@platform@details@Concurrency@@YAKPEAXK@Z 000000018001705c f   libconcrt:Platform.obj
 0001:00016068       _concrt_static_cleanup     0000000180017068 f   libconcrt:utils.obj
 0001:00016080       ?DeleteAsyncTimerAndUnloadLibrary@details@Concurrency@@YAXPEAU_TP_TIMER@@@Z 0000000180017080 f   libconcrt:utils.obj
 0001:000160c8       ?DecodePointer@Security@details@Concurrency@@SAPEAXPEAX@Z 00000001800170c8 f   libconcrt:utils.obj
 0001:000160c8       ?EncodePointer@Security@details@Concurrency@@SAPEAXPEAX@Z 00000001800170c8 f   libconcrt:utils.obj
 0001:000160d4       ?FreeLibraryAndDestroyThread@details@Concurrency@@YAXK@Z 00000001800170d4 f   libconcrt:utils.obj
 0001:0001610c       ?InitializeCookie@Security@details@Concurrency@@SA_KXZ 000000018001710c f   libconcrt:utils.obj
 0001:00016170       ?LoadLibraryAndCreateThread@details@Concurrency@@YAPEAXPEAU_SECURITY_ATTRIBUTES@@_KP6AKPEAX@Z2KPEAK@Z 0000000180017170 f   libconcrt:utils.obj
 0001:000161c0       ?ReferenceLoadLibrary@details@Concurrency@@YAXXZ 00000001800171c0 f   libconcrt:utils.obj
 0001:00016268       ?RegisterAsyncTimerAndLoadLibrary@details@Concurrency@@YAPEAU_TP_TIMER@@KP6AXPEAU_TP_CALLBACK_INSTANCE@@PEAXPEAU3@@Z1_N@Z 0000000180017268 f   libconcrt:utils.obj
 0001:000162dc       ?RegisterAsyncWaitAndLoadLibrary@details@Concurrency@@YAPEAU_TP_WAIT@@PEAXP6AXPEAU_TP_CALLBACK_INSTANCE@@0PEAU3@K@Z0@Z 00000001800172dc f   libconcrt:utils.obj
 0001:00016330       ?UnRegisterAsyncTimerAndUnloadLibrary@details@Concurrency@@YAXPEAU_TP_CALLBACK_INSTANCE@@PEAU_TP_TIMER@@@Z 0000000180017330 f   libconcrt:utils.obj
 0001:0001637c       ?UnRegisterAsyncWaitAndUnloadLibrary@details@Concurrency@@YAXPEAU_TP_CALLBACK_INSTANCE@@PEAU_TP_WAIT@@@Z 000000018001737c f   libconcrt:utils.obj
 0001:000163c8       ?_Acquire@_CriticalNonReentrantLock@details@Concurrency@@QEAAXXZ 00000001800173c8 f   libconcrt:utils.obj
 0001:00016410       ?_Acquire@_HyperNonReentrantLock@details@Concurrency@@QEAAXXZ 0000000180017410 f   libconcrt:utils.obj
 0001:00016458       ?_Release@_HyperNonReentrantLock@details@Concurrency@@QEAAXXZ 0000000180017458 f   libconcrt:utils.obj
 0001:00016458       ?_Release@_CriticalNonReentrantLock@details@Concurrency@@QEAAXXZ 0000000180017458 f   libconcrt:utils.obj
 0001:00016464       ?_Sleep0@details@Concurrency@@YAXXZ 0000000180017464 f   libconcrt:utils.obj
 0001:0001646c       ?_TryAcquire@_CriticalNonReentrantLock@details@Concurrency@@QEAA_NXZ 000000018001746c f   libconcrt:utils.obj
 0001:000164a4       ?_UnderlyingYield@details@Concurrency@@YAXXZ 00000001800174a4 f   libconcrt:utils.obj
 0001:000164e4       ??0context_self_unblock@Concurrency@@QEAA@XZ 00000001800174e4 f   libconcrt:Exceptions.obj
 0001:000164fc       ??0context_unblock_unbalanced@Concurrency@@QEAA@XZ 00000001800174fc f   libconcrt:Exceptions.obj
 0001:00016514       ??0improper_lock@Concurrency@@QEAA@PEBD@Z 0000000180017514 f   libconcrt:Exceptions.obj
 0001:00016560       ??0improper_scheduler_attach@Concurrency@@QEAA@XZ 0000000180017560 f   libconcrt:Exceptions.obj
 0001:00016578       ??0improper_scheduler_reference@Concurrency@@QEAA@XZ 0000000180017578 f   libconcrt:Exceptions.obj
 0001:00016590       ??0invalid_oversubscribe_operation@Concurrency@@QEAA@XZ 0000000180017590 f   libconcrt:Exceptions.obj
 0001:000165a8       ??0invalid_scheduler_policy_key@Concurrency@@QEAA@PEBD@Z 00000001800175a8 f   libconcrt:Exceptions.obj
 0001:000165f4       ??0invalid_scheduler_policy_thread_specification@Concurrency@@QEAA@XZ 00000001800175f4 f   libconcrt:Exceptions.obj
 0001:0001660c       ??0invalid_scheduler_policy_value@Concurrency@@QEAA@PEBD@Z 000000018001760c f   libconcrt:Exceptions.obj
 0001:00016658       ??0missing_wait@Concurrency@@QEAA@XZ 0000000180017658 f   libconcrt:Exceptions.obj
 0001:00016670       ??0nested_scheduler_missing_detach@Concurrency@@QEAA@XZ 0000000180017670 f   libconcrt:Exceptions.obj
 0001:00016688       ??0scheduler_resource_allocation_error@Concurrency@@QEAA@J@Z 0000000180017688 f   libconcrt:Exceptions.obj
 0001:000166a4       ??0scheduler_worker_creation_error@Concurrency@@QEAA@J@Z 00000001800176a4 f   libconcrt:Exceptions.obj
 0001:000166c0       ??0unsupported_os@Concurrency@@QEAA@XZ 00000001800176c0 f   libconcrt:Exceptions.obj
 0001:000166d8       ??1invalid_scheduler_policy_thread_specification@Concurrency@@UEAA@XZ 00000001800176d8 f i libconcrt:Exceptions.obj
 0001:000166d8       ??1bad_cast@std@@UEAA@XZ   00000001800176d8 f i libvcruntime:rtti.obj
 0001:000166d8       ??1_Interruption_exception@details@Concurrency@@UEAA@XZ 00000001800176d8 f i libconcrt:TaskCollection.obj
 0001:000166d8       ??1bad_alloc@std@@UEAA@XZ  00000001800176d8 f i libcpmt:xthrow.obj
 0001:000166d8       ??1unsupported_os@Concurrency@@UEAA@XZ 00000001800176d8 f i libconcrt:Exceptions.obj
 0001:000166d8       ??1invalid_argument@std@@UEAA@XZ 00000001800176d8 f i libcpmt:xthrow.obj
 0001:000166d8       ??1length_error@std@@UEAA@XZ 00000001800176d8 f i libcpmt:xthrow.obj
 0001:000166d8       ??1invalid_oversubscribe_operation@Concurrency@@UEAA@XZ 00000001800176d8 f i libconcrt:Exceptions.obj
 0001:000166d8       ??1context_unblock_unbalanced@Concurrency@@UEAA@XZ 00000001800176d8 f i libconcrt:Exceptions.obj
 0001:000166d8       ??1nested_scheduler_missing_detach@Concurrency@@UEAA@XZ 00000001800176d8 f i libconcrt:Exceptions.obj
 0001:000166d8       ??1improper_scheduler_reference@Concurrency@@UEAA@XZ 00000001800176d8 f i libconcrt:Exceptions.obj
 0001:000166d8       ??1__non_rtti_object@std@@UEAA@XZ 00000001800176d8 f i libvcruntime:rtti.obj
 0001:000166d8       ??1context_self_unblock@Concurrency@@UEAA@XZ 00000001800176d8 f i libconcrt:Exceptions.obj
 0001:000166d8       ??1scheduler_worker_creation_error@Concurrency@@UEAA@XZ 00000001800176d8 f i libconcrt:Exceptions.obj
 0001:000166d8       ??1improper_scheduler_attach@Concurrency@@UEAA@XZ 00000001800176d8 f i libconcrt:Exceptions.obj
 0001:000166d8       ??1invalid_scheduler_policy_value@Concurrency@@UEAA@XZ 00000001800176d8 f i libconcrt:Exceptions.obj
 0001:000166d8       ??1bad_exception@std@@UEAA@XZ 00000001800176d8 f i libvcruntime:frame.obj
 0001:000166d8       ??1system_error@std@@UEAA@XZ 00000001800176d8 f i libcpmt:thread0.obj
 0001:000166d8       ??1bad_array_new_length@std@@UEAA@XZ 00000001800176d8 f i LIBCMT:throw_bad_alloc.obj
 0001:000166d8       ??1invalid_operation@Concurrency@@UEAA@XZ 00000001800176d8 f i libconcrt:ResourceManager.obj
 0001:000166d8       ??1out_of_range@std@@UEAA@XZ 00000001800176d8 f i libcpmt:xthrow.obj
 0001:000166d8       ??1bad_function_call@std@@UEAA@XZ 00000001800176d8 f i libcpmt:xthrow.obj
 0001:000166d8       ??1missing_wait@Concurrency@@UEAA@XZ 00000001800176d8 f i libconcrt:Exceptions.obj
 0001:000166d8       ??1improper_lock@Concurrency@@UEAA@XZ 00000001800176d8 f i libconcrt:rtlocks.obj
 0001:000166d8       ??1invalid_scheduler_policy_key@Concurrency@@UEAA@XZ 00000001800176d8 f i libconcrt:Exceptions.obj
 0001:000166d8       ??1scheduler_resource_allocation_error@Concurrency@@UEAA@XZ 00000001800176d8 f i libconcrt:Platform.obj
 0001:000166ec       ??_G_Interruption_exception@details@Concurrency@@UEAAPEAXI@Z 00000001800176ec f i libconcrt:TaskCollection.obj
 0001:000166ec       ??_Ginvalid_scheduler_policy_value@Concurrency@@UEAAPEAXI@Z 00000001800176ec f i libconcrt:Exceptions.obj
 0001:000166ec       ??_Ginvalid_scheduler_policy_thread_specification@Concurrency@@UEAAPEAXI@Z 00000001800176ec f i libconcrt:Exceptions.obj
 0001:000166ec       ??_Ginvalid_operation@Concurrency@@UEAAPEAXI@Z 00000001800176ec f i libconcrt:ResourceManager.obj
 0001:000166ec       ??_Gout_of_range@std@@UEAAPEAXI@Z 00000001800176ec f i libcpmt:xthrow.obj
 0001:000166ec       ??_Gruntime_error@std@@UEAAPEAXI@Z 00000001800176ec f i libcpmt:xthrow.obj
 0001:000166ec       ??_Econtext_unblock_unbalanced@Concurrency@@UEAAPEAXI@Z 00000001800176ec f i libconcrt:Exceptions.obj
 0001:000166ec       ??_Einvalid_argument@std@@UEAAPEAXI@Z 00000001800176ec f i libcpmt:xthrow.obj
 0001:000166ec       ??_Gcontext_unblock_unbalanced@Concurrency@@UEAAPEAXI@Z 00000001800176ec f i libconcrt:Exceptions.obj
 0001:000166ec       ??_Gunsupported_os@Concurrency@@UEAAPEAXI@Z 00000001800176ec f i libconcrt:Exceptions.obj
 0001:000166ec       ??_Gimproper_lock@Concurrency@@UEAAPEAXI@Z 00000001800176ec f i libconcrt:rtlocks.obj
 0001:000166ec       ??_Gimproper_scheduler_attach@Concurrency@@UEAAPEAXI@Z 00000001800176ec f i libconcrt:Exceptions.obj
 0001:000166ec       ??_Gexception@std@@UEAAPEAXI@Z 00000001800176ec f i libcpmt:xthrow.obj
 0001:000166ec       ??_E_Interruption_exception@details@Concurrency@@UEAAPEAXI@Z 00000001800176ec f i libconcrt:TaskCollection.obj
 0001:000166ec       ??_Gbad_cast@std@@UEAAPEAXI@Z 00000001800176ec f i libvcruntime:rtti.obj
 0001:000166ec       ??_Gnested_scheduler_missing_detach@Concurrency@@UEAAPEAXI@Z 00000001800176ec f i libconcrt:Exceptions.obj
 0001:000166ec       ??_Eexception@std@@UEAAPEAXI@Z 00000001800176ec f i libcpmt:xthrow.obj
 0001:000166ec       ??_Ginvalid_argument@std@@UEAAPEAXI@Z 00000001800176ec f i libcpmt:xthrow.obj
 0001:000166ec       ??_Econtext_self_unblock@Concurrency@@UEAAPEAXI@Z 00000001800176ec f i libconcrt:Exceptions.obj
 0001:000166ec       ??_Eruntime_error@std@@UEAAPEAXI@Z 00000001800176ec f i libcpmt:xthrow.obj
 0001:000166ec       ??_Gbad_function_call@std@@UEAAPEAXI@Z 00000001800176ec f i libcpmt:xthrow.obj
 0001:000166ec       ??_Glength_error@std@@UEAAPEAXI@Z 00000001800176ec f i libcpmt:xthrow.obj
 0001:000166ec       ??_Ebad_array_new_length@std@@UEAAPEAXI@Z 00000001800176ec f i LIBCMT:throw_bad_alloc.obj
 0001:000166ec       ??_Ginvalid_scheduler_policy_key@Concurrency@@UEAAPEAXI@Z 00000001800176ec f i libconcrt:Exceptions.obj
 0001:000166ec       ??_Einvalid_scheduler_policy_key@Concurrency@@UEAAPEAXI@Z 00000001800176ec f i libconcrt:Exceptions.obj
 0001:000166ec       ??_Einvalid_scheduler_policy_value@Concurrency@@UEAAPEAXI@Z 00000001800176ec f i libconcrt:Exceptions.obj
 0001:000166ec       ??_Einvalid_scheduler_policy_thread_specification@Concurrency@@UEAAPEAXI@Z 00000001800176ec f i libconcrt:Exceptions.obj
 0001:000166ec       ??_G__non_rtti_object@std@@UEAAPEAXI@Z 00000001800176ec f i libvcruntime:rtti.obj
 0001:000166ec       ??_Gbad_exception@std@@UEAAPEAXI@Z 00000001800176ec f i libvcruntime:frame.obj
 0001:000166ec       ??_Enested_scheduler_missing_detach@Concurrency@@UEAAPEAXI@Z 00000001800176ec f i libconcrt:Exceptions.obj
 0001:000166ec       ??_Einvalid_operation@Concurrency@@UEAAPEAXI@Z 00000001800176ec f i libconcrt:ResourceManager.obj
 0001:000166ec       ??_Ebad_function_call@std@@UEAAPEAXI@Z 00000001800176ec f i libcpmt:xthrow.obj
 0001:000166ec       ??_Gbad_alloc@std@@UEAAPEAXI@Z 00000001800176ec f i libcpmt:xthrow.obj
 0001:000166ec       ??_Ebad_typeid@std@@UEAAPEAXI@Z 00000001800176ec f i libvcruntime:rtti.obj
 0001:000166ec       ??_Eimproper_lock@Concurrency@@UEAAPEAXI@Z 00000001800176ec f i libconcrt:rtlocks.obj
 0001:000166ec       ??_Eimproper_scheduler_attach@Concurrency@@UEAAPEAXI@Z 00000001800176ec f i libconcrt:Exceptions.obj
 0001:000166ec       ??_Eimproper_scheduler_reference@Concurrency@@UEAAPEAXI@Z 00000001800176ec f i libconcrt:Exceptions.obj
 0001:000166ec       ??_Ginvalid_oversubscribe_operation@Concurrency@@UEAAPEAXI@Z 00000001800176ec f i libconcrt:Exceptions.obj
 0001:000166ec       ??_Glogic_error@std@@UEAAPEAXI@Z 00000001800176ec f i libcpmt:xthrow.obj
 0001:000166ec       ??_Ebad_exception@std@@UEAAPEAXI@Z 00000001800176ec f i libvcruntime:frame.obj
 0001:000166ec       ??_Elogic_error@std@@UEAAPEAXI@Z 00000001800176ec f i libcpmt:xthrow.obj
 0001:000166ec       ??_Elength_error@std@@UEAAPEAXI@Z 00000001800176ec f i libcpmt:xthrow.obj
 0001:000166ec       ??_Emissing_wait@Concurrency@@UEAAPEAXI@Z 00000001800176ec f i libconcrt:Exceptions.obj
 0001:000166ec       ??_E__non_rtti_object@std@@UEAAPEAXI@Z 00000001800176ec f i libvcruntime:rtti.obj
 0001:000166ec       ??_Gbad_array_new_length@std@@UEAAPEAXI@Z 00000001800176ec f i LIBCMT:throw_bad_alloc.obj
 0001:000166ec       ??_Gimproper_scheduler_reference@Concurrency@@UEAAPEAXI@Z 00000001800176ec f i libconcrt:Exceptions.obj
 0001:000166ec       ??_Einvalid_oversubscribe_operation@Concurrency@@UEAAPEAXI@Z 00000001800176ec f i libconcrt:Exceptions.obj
 0001:000166ec       ??_Gmissing_wait@Concurrency@@UEAAPEAXI@Z 00000001800176ec f i libconcrt:Exceptions.obj
 0001:000166ec       ??_Ebad_alloc@std@@UEAAPEAXI@Z 00000001800176ec f i libcpmt:xthrow.obj
 0001:000166ec       ??_Ebad_cast@std@@UEAAPEAXI@Z 00000001800176ec f i libvcruntime:rtti.obj
 0001:000166ec       ??_Gbad_typeid@std@@UEAAPEAXI@Z 00000001800176ec f i libvcruntime:rtti.obj
 0001:000166ec       ??_Eunsupported_os@Concurrency@@UEAAPEAXI@Z 00000001800176ec f i libconcrt:Exceptions.obj
 0001:000166ec       ??_Gcontext_self_unblock@Concurrency@@UEAAPEAXI@Z 00000001800176ec f i libconcrt:Exceptions.obj
 0001:000166ec       ??_Eout_of_range@std@@UEAAPEAXI@Z 00000001800176ec f i libcpmt:xthrow.obj
 0001:00016730       ??_Gscheduler_worker_creation_error@Concurrency@@UEAAPEAXI@Z 0000000180017730 f i libconcrt:Exceptions.obj
 0001:00016730       ??_Escheduler_resource_allocation_error@Concurrency@@UEAAPEAXI@Z 0000000180017730 f i libconcrt:Platform.obj
 0001:00016730       ??_Gscheduler_resource_allocation_error@Concurrency@@UEAAPEAXI@Z 0000000180017730 f i libconcrt:Platform.obj
 0001:00016730       ??_Escheduler_worker_creation_error@Concurrency@@UEAAPEAXI@Z 0000000180017730 f i libconcrt:Exceptions.obj
 0001:00016774       ?Block@Context@Concurrency@@SAXXZ 0000000180017774 f   libconcrt:Context.obj
 0001:000167c8       ?CurrentContext@Context@Concurrency@@SAPEAV12@XZ 00000001800177c8 f   libconcrt:Context.obj
 0001:000167f4       ??0HardwareAffinity@details@Concurrency@@QEAA@PEAX@Z 00000001800177f4 f   libconcrt:ResourceManager.obj
 0001:00016820       ??0ResourceManager@details@Concurrency@@AEAA@XZ 0000000180017820 f   libconcrt:ResourceManager.obj
 0001:00016940       ??0invalid_operation@Concurrency@@QEAA@AEBV01@@Z 0000000180017940 f i libconcrt:ResourceManager.obj
 0001:00016980       ??0invalid_operation@Concurrency@@QEAA@XZ 0000000180017980 f i libconcrt:ResourceManager.obj
 0001:00016998       ??0unsupported_os@Concurrency@@QEAA@AEBV01@@Z 0000000180017998 f i libconcrt:ResourceManager.obj
 0001:000169d8       ??1GlobalNode@details@Concurrency@@QEAA@XZ 00000001800179d8 f i libconcrt:ResourceManager.obj
 0001:000169e8       ??1ResourceManager@details@Concurrency@@AEAA@XZ 00000001800179e8 f   libconcrt:ResourceManager.obj
 0001:00016b20       ??1_Scoped_lock@_NonReentrantBlockingLock@details@Concurrency@@QEAA@XZ 0000000180017b20 f i libconcrt:ResourceManager.obj
 0001:00016b3c       ??1_Scoped_lock@_NonReentrantLock@details@Concurrency@@QEAA@XZ 0000000180017b3c f i libconcrt:ResourceManager.obj
 0001:00016b48       ?AdjustDynamicAllocation@ResourceManager@details@Concurrency@@AEAAIIII@Z 0000000180017b48 f   libconcrt:ResourceManager.obj
 0001:00016c1c       ?ApplyAffinityRestrictions@ResourceManager@details@Concurrency@@CAXPEAU_GROUP_AFFINITY@@@Z 0000000180017c1c f   libconcrt:ResourceManager.obj
 0001:00016cf0       ?ApplyAffinityRestrictions@ResourceManager@details@Concurrency@@CAXPEA_K@Z 0000000180017cf0 f   libconcrt:ResourceManager.obj
 0001:00016d28       ?ApplyTo@HardwareAffinity@details@Concurrency@@QEAAXPEAX@Z 0000000180017d28 f   libconcrt:ResourceManager.obj
 0001:00016d38       ?CaptureProcessAffinity@ResourceManager@details@Concurrency@@CAXXZ 0000000180017d38 f   libconcrt:ResourceManager.obj
 0001:00016ec0       ?CleanupTopologyInformation@ResourceManager@details@Concurrency@@CAXXZ 0000000180017ec0 f   libconcrt:ResourceManager.obj
 0001:00016ee4       ?CommitStolenCores@ResourceManager@details@Concurrency@@AEAAXPEAVSchedulerProxy@23@@Z 0000000180017ee4 f   libconcrt:ResourceManager.obj
 0001:00017008       ?CreateAllocatedNodeData@ResourceManager@details@Concurrency@@QEAAPEAUSchedulerNode@23@XZ 0000000180018008 f   libconcrt:ResourceManager.obj
 0001:00017168       ?CreateDynamicRMWorker@ResourceManager@details@Concurrency@@AEAAXXZ 0000000180018168 f   libconcrt:ResourceManager.obj
 0001:000171e0       ?CreateResourceManager@Concurrency@@YAPEAUIResourceManager@1@XZ 00000001800181e0 f   libconcrt:ResourceManager.obj
 0001:000171e8       ?CreateSchedulerProxy@ResourceManager@details@Concurrency@@AEAAPEAVSchedulerProxy@23@PEAUIScheduler@3@@Z 00000001800181e8 f   libconcrt:ResourceManager.obj
 0001:0001726c       ?CreateSingleton@ResourceManager@details@Concurrency@@SAPEAV123@XZ 000000018001826c f   libconcrt:ResourceManager.obj
 0001:00017358       ?CurrentSubscriptionLevel@ResourceManager@details@Concurrency@@QEAAIII@Z 0000000180018358 f   libconcrt:ResourceManager.obj
 0001:00017404       ?DestroyAllocatedNodeData@ResourceManager@details@Concurrency@@QEAAXPEAUSchedulerNode@23@@Z 0000000180018404 f   libconcrt:ResourceManager.obj
 0001:00017450       ?DetermineTopology@ResourceManager@details@Concurrency@@AEAAXXZ 0000000180018450 f   libconcrt:ResourceManager.obj
 0001:00017838       ?DiscardExistingSchedulerStatistics@ResourceManager@details@Concurrency@@AEAAXXZ 0000000180018838 f   libconcrt:ResourceManager.obj
 0001:000178bc       ?DistributeCoresToSurvivingScheduler@ResourceManager@details@Concurrency@@AEAA_NXZ 00000001800188bc f   libconcrt:ResourceManager.obj
 0001:00017ab8       ?DistributeExclusiveCores@ResourceManager@details@Concurrency@@AEAAXIIIII@Z 0000000180018ab8 f   libconcrt:ResourceManager.obj
 0001:00017c40       ?DistributeIdleCores@ResourceManager@details@Concurrency@@AEAAXII@Z 0000000180018c40 f   libconcrt:ResourceManager.obj
 0001:00017e08       ?DoCoreMigration@ResourceManager@details@Concurrency@@AEAAXXZ 0000000180018e08 f   libconcrt:ResourceManager.obj
 0001:000180a0       ?DynamicAssignCores@ResourceManager@details@Concurrency@@AEAAXPEAVSchedulerProxy@23@II_N@Z 00000001800190a0 f   libconcrt:ResourceManager.obj
 0001:00018144       ?DynamicMigrateCores@ResourceManager@details@Concurrency@@AEAAXPEAUDynamicAllocationData@23@PEAVSchedulerProxy@23@II@Z 0000000180019144 f   libconcrt:ResourceManager.obj
 0001:0001831c       ?DynamicRMThreadProc@ResourceManager@details@Concurrency@@CAKPEAX@Z 000000018001931c f   libconcrt:ResourceManager.obj
 0001:00018334       ?DynamicResourceManager@ResourceManager@details@Concurrency@@AEAAXXZ 0000000180019334 f   libconcrt:ResourceManager.obj
 0001:00018450       ?FindBestFitExclusiveAllocation@ResourceManager@details@Concurrency@@AEAAIAEAI0PEAUDynamicAllocationData@23@II@Z 0000000180019450 f   libconcrt:ResourceManager.obj
 0001:00018800       ?FindBestFitIdleAllocation@ResourceManager@details@Concurrency@@AEAAIIPEAUDynamicAllocationData@23@I@Z 0000000180019800 f   libconcrt:ResourceManager.obj
 0001:0001891c       ?FindCoreForPartiallyFilledNode@ResourceManager@details@Concurrency@@AEAA_NAEAI0PEAUDynamicAllocationData@23@I@Z 000000018001991c f   libconcrt:ResourceManager.obj
 0001:00018a74       ?FlushStoreBuffers@ResourceManager@details@Concurrency@@QEAAXXZ 0000000180019a74 f   libconcrt:ResourceManager.obj
 0001:00018ab0       ?GetNumberOfVirtualProcessors@SchedulerBase@details@Concurrency@@UEBAIXZ 0000000180019ab0 f i libconcrt:SchedulerBase.obj
 0001:00018ab0       ?GetAvailableNodeCount@ResourceManager@details@Concurrency@@UEBAIXZ 0000000180019ab0 f i libconcrt:ResourceManager.obj
 0001:00018ab4       ?GetCoreCount@ResourceManager@details@Concurrency@@SAIXZ 0000000180019ab4 f   libconcrt:ResourceManager.obj
 0001:00018b38       ?GetCurrentNodeAndCore@ResourceManager@details@Concurrency@@QEAAIPEAI@Z 0000000180019b38 f   libconcrt:ResourceManager.obj
 0001:00018c78       ?GetExecutionResourceCount@TopologyObject@GlobalNode@details@Concurrency@@UEBAIXZ 0000000180019c78 f i libconcrt:ResourceManager.obj
 0001:00018c80       ?GetFirstExecutionResource@TopologyObject@GlobalNode@details@Concurrency@@UEBAPEAUITopologyExecutionResource@4@XZ 0000000180019c80 f i libconcrt:ResourceManager.obj
 0001:00018c90       ?GetFirstNode@ResourceManager@details@Concurrency@@UEBAPEAUITopologyNode@3@XZ 0000000180019c90 f i libconcrt:ResourceManager.obj
 0001:00018c9c       ?GetId@TopologyObject@GlobalCore@details@Concurrency@@UEBAIXZ 0000000180019c9c f i libconcrt:ResourceManager.obj
 0001:00018ca4       ?GetId@TopologyObject@GlobalNode@details@Concurrency@@UEBAIXZ 0000000180019ca4 f i libconcrt:ResourceManager.obj
 0001:00018cac       ?GetNext@TopologyObject@GlobalCore@details@Concurrency@@UEBAPEAUITopologyExecutionResource@4@XZ 0000000180019cac f   libconcrt:ResourceManager.obj
 0001:00018d00       ?GetNext@TopologyObject@GlobalNode@details@Concurrency@@UEBAPEAUITopologyNode@4@XZ 0000000180019d00 f   libconcrt:ResourceManager.obj
 0001:00018d38       ?GetNodeCount@ResourceManager@details@Concurrency@@SAIXZ 0000000180019d38 f   libconcrt:ResourceManager.obj
 0001:00018dbc       ?GetNumaNode@TopologyObject@GlobalNode@details@Concurrency@@UEBAKXZ 0000000180019dbc f i libconcrt:ResourceManager.obj
 0001:00018dc4       ?GetOSVersion@Concurrency@@YA?AW4OSVersion@IResourceManager@1@XZ 0000000180019dc4 f   libconcrt:ResourceManager.obj
 0001:00018dcc       ?GetProcessorCount@Concurrency@@YAIXZ 0000000180019dcc f   libconcrt:ResourceManager.obj
 0001:00018dd4       ?GetProcessorNodeCount@Concurrency@@YAIXZ 0000000180019dd4 f   libconcrt:ResourceManager.obj
 0001:00018ddc       ?GetSchedulerId@Concurrency@@YAIXZ 0000000180019ddc f   libconcrt:ResourceManager.obj
 0001:00018dec       ?GetTopologyInformation@ResourceManager@details@Concurrency@@CAXW4_LOGICAL_PROCESSOR_RELATIONSHIP@@@Z 0000000180019dec f   libconcrt:ResourceManager.obj
 0001:00018e20       ?HandleBorrowedCores@ResourceManager@details@Concurrency@@AEAAXPEAVSchedulerProxy@23@PEAUAllocationData@23@@Z 0000000180019e20 f   libconcrt:ResourceManager.obj
 0001:00018f6c       ?HandleSharedCores@ResourceManager@details@Concurrency@@AEAAXPEAVSchedulerProxy@23@PEAUDynamicAllocationData@23@@Z 0000000180019f6c f   libconcrt:ResourceManager.obj
 0001:000190d0       ?IncreaseFullyLoadedSchedulerAllocations@ResourceManager@details@Concurrency@@AEAAXXZ 000000018001a0d0 f   libconcrt:ResourceManager.obj
 0001:00019134       ?Initialize@GlobalNode@details@Concurrency@@QEAAXPEAVResourceManager@23@GG_KII@Z 000000018001a134 f i libconcrt:ResourceManager.obj
 0001:0001931c       ?InitializeRMBuffers@ResourceManager@details@Concurrency@@AEAAXXZ 000000018001a31c f   libconcrt:ResourceManager.obj
 0001:0001941c       ?InitializeSystemInformation@ResourceManager@details@Concurrency@@CAX_N@Z 000000018001a41c f   libconcrt:ResourceManager.obj
 0001:000196dc       ?PerformAllocation@ResourceManager@details@Concurrency@@QEAAPEAVExecutionResource@23@PEAVSchedulerProxy@23@_N1@Z 000000018001a6dc f   libconcrt:ResourceManager.obj
 0001:000198f8       ?PopulateCommonAllocationData@ResourceManager@details@Concurrency@@AEAAXIPEAVSchedulerProxy@23@PEAUAllocationData@23@@Z 000000018001a8f8 f   libconcrt:ResourceManager.obj
 0001:000199cc       ?PopulateDynamicAllocationData@ResourceManager@details@Concurrency@@AEAAXXZ 000000018001a9cc f   libconcrt:ResourceManager.obj
 0001:00019b3c       ?PreProcessDynamicAllocationData@ResourceManager@details@Concurrency@@AEAAXXZ 000000018001ab3c f   libconcrt:ResourceManager.obj
 0001:00019c54       ?PreProcessStaticAllocationData@ResourceManager@details@Concurrency@@AEAAXXZ 000000018001ac54 f   libconcrt:ResourceManager.obj
 0001:00019c98       ?PrepareReceiversForCoreTransfer@ResourceManager@details@Concurrency@@AEAAII@Z 000000018001ac98 f   libconcrt:ResourceManager.obj
 0001:00019f18       ?RedistributeCoresAmongAll@ResourceManager@details@Concurrency@@AEAAIPEAVSchedulerProxy@23@III@Z 000000018001af18 f   libconcrt:ResourceManager.obj
 0001:0001a304       ?Reference@ResourceManager@details@Concurrency@@UEAAIXZ 000000018001b304 f   libconcrt:ResourceManager.obj
 0001:0001a314       ?RegisterScheduler@ResourceManager@details@Concurrency@@UEAAPEAUISchedulerProxy@3@PEAUIScheduler@3@I@Z 000000018001b314 f   libconcrt:ResourceManager.obj
 0001:0001a378       ?Release@ResourceManager@details@Concurrency@@UEAAIXZ 000000018001b378 f   libconcrt:ResourceManager.obj
 0001:0001a46c       ?ReleaseCoresOnExistingSchedulers@ResourceManager@details@Concurrency@@AEAAIPEAVSchedulerProxy@23@II@Z 000000018001b46c f   libconcrt:ResourceManager.obj
 0001:0001a510       ?ReleaseSchedulerResources@ResourceManager@details@Concurrency@@AEAA_NPEAVSchedulerProxy@23@0I@Z 000000018001b510 f   libconcrt:ResourceManager.obj
 0001:0001a63c       ?RemoveExecutionResource@ResourceManager@details@Concurrency@@QEAAXPEAVExecutionResource@23@@Z 000000018001b63c f   libconcrt:ResourceManager.obj
 0001:0001a6e4       ?RequestInitialVirtualProcessors@ResourceManager@details@Concurrency@@QEAAPEAUIExecutionResource@3@PEAVSchedulerProxy@23@_N@Z 000000018001b6e4 f   libconcrt:ResourceManager.obj
 0001:0001a884       ?ReserveAtHigherUseCounts@ResourceManager@details@Concurrency@@AEAAIPEAVSchedulerProxy@23@I@Z 000000018001b884 f   libconcrt:ResourceManager.obj
 0001:0001a8e8       ?ReserveCores@ResourceManager@details@Concurrency@@AEAAIPEAVSchedulerProxy@23@II@Z 000000018001b8e8 f   libconcrt:ResourceManager.obj
 0001:0001aae8       ?ResetGlobalAllocationData@ResourceManager@details@Concurrency@@AEAAXXZ 000000018001bae8 f   libconcrt:ResourceManager.obj
 0001:0001ab3c       ?RetrieveSystemVersionInformation@ResourceManager@details@Concurrency@@CAXXZ 000000018001bb3c f   libconcrt:ResourceManager.obj
 0001:0001ac54       ?RoundUpScaledAllocations@ResourceManager@details@Concurrency@@CAXPEAPEAUAllocationData@23@II@Z 000000018001bc54 f   libconcrt:ResourceManager.obj
 0001:0001ae0c       ?SendResourceNotifications@ResourceManager@details@Concurrency@@QEAAXPEAVSchedulerProxy@23@@Z 000000018001be0c f   libconcrt:ResourceManager.obj
 0001:0001afd4       ?SetupStaticAllocationData@ResourceManager@details@Concurrency@@AEAAXPEAVSchedulerProxy@23@_N@Z 000000018001bfd4 f   libconcrt:ResourceManager.obj
 0001:0001b0f0       ?Shutdown@ResourceManager@details@Concurrency@@QEAAXPEAVSchedulerProxy@23@@Z 000000018001c0f0 f   libconcrt:ResourceManager.obj
 0001:0001b218       ?SubscribeCurrentThread@ResourceManager@details@Concurrency@@QEAAPEAVExecutionResource@23@PEAVSchedulerProxy@23@@Z 000000018001c218 f   libconcrt:ResourceManager.obj
 0001:0001b290       ?ToggleRMIdleState@ResourceManager@details@Concurrency@@AEAAXPEAUSchedulerNode@23@PEAUSchedulerCore@23@PEAUGlobalNode@23@PEAUGlobalCore@23@PEAUAllocationData@23@@Z 000000018001c290 f   libconcrt:ResourceManager.obj
 0001:0001b2f8       ?Version@ResourceManager@details@Concurrency@@SA?AW4OSVersion@IResourceManager@3@XZ 000000018001c2f8 f   libconcrt:ResourceManager.obj
 0001:0001b378       ??0NumaInformation@SchedulerBase@details@Concurrency@@QEAA@XZ 000000018001c378 f i libconcrt:SchedulerBase.obj
 0001:0001b38c       ??0SchedulerBase@details@Concurrency@@QEAA@AEBVSchedulerPolicy@2@@Z 000000018001c38c f   libconcrt:SchedulerBase.obj
 0001:0001b794       ??0improper_scheduler_attach@Concurrency@@QEAA@AEBV01@@Z 000000018001c794 f i libconcrt:SchedulerBase.obj
 0001:0001b7d4       ??0improper_scheduler_reference@Concurrency@@QEAA@AEBV01@@Z 000000018001c7d4 f i libconcrt:SchedulerBase.obj
 0001:0001b814       ??1?$Hash@II@details@Concurrency@@QEAA@XZ 000000018001c814 f i libconcrt:SchedulerBase.obj
 0001:0001b830       ??1?$ListArray@VExternalStatistics@details@Concurrency@@@details@Concurrency@@QEAA@XZ 000000018001c830 f i libconcrt:SchedulerBase.obj
 0001:0001b924       ??1?$ListArray@VScheduleGroupBase@details@Concurrency@@@details@Concurrency@@QEAA@XZ 000000018001c924 f i libconcrt:SchedulerBase.obj
 0001:0001ba68       ??1NumaInformation@SchedulerBase@details@Concurrency@@QEAA@XZ 000000018001ca68 f i libconcrt:SchedulerBase.obj
 0001:0001ba88       ??1QuickBitSet@details@Concurrency@@QEAA@XZ 000000018001ca88 f i libconcrt:SchedulerBase.obj
 0001:0001ba94       ??1ReferenceCountedQuickBitSet@details@Concurrency@@QEAA@XZ 000000018001ca94 f i libconcrt:SchedulerBase.obj
 0001:0001bab4       ??1ScheduleGroup@Concurrency@@MEAA@XZ 000000018001cab4 f i libconcrt:SchedulerBase.obj
 0001:0001bac0       ??1Scheduler@Concurrency@@MEAA@XZ 000000018001cac0 f i libconcrt:SchedulerBase.obj
 0001:0001bacc       ??1SchedulerBase@details@Concurrency@@UEAA@XZ 000000018001cacc f   libconcrt:SchedulerBase.obj
 0001:0001bbbc       ??1_Scoped_lock@_HyperNonReentrantLock@details@Concurrency@@QEAA@XZ 000000018001cbbc f i libconcrt:SchedulerBase.obj
 0001:0001bbd8       ??_ECacheLocalScheduleGroup@details@Concurrency@@UEAAPEAXI@Z 000000018001cbd8 f i libconcrt:SchedulerBase.obj
 0001:0001bbd8       ??_GCacheLocalScheduleGroup@details@Concurrency@@UEAAPEAXI@Z 000000018001cbd8 f i libconcrt:SchedulerBase.obj
 0001:0001bbd8       ??_GScheduleGroupBase@details@Concurrency@@UEAAPEAXI@Z 000000018001cbd8 f i libconcrt:ScheduleGroupBase.obj
 0001:0001bbd8       ??_EScheduleGroupBase@details@Concurrency@@UEAAPEAXI@Z 000000018001cbd8 f i libconcrt:ScheduleGroupBase.obj
 0001:0001bc04       ??_GCacheLocalScheduleGroupSegment@details@Concurrency@@UEAAPEAXI@Z 000000018001cc04 f i libconcrt:SchedulerBase.obj
 0001:0001bc04       ??_EFairScheduleGroupSegment@details@Concurrency@@UEAAPEAXI@Z 000000018001cc04 f i libconcrt:SchedulerBase.obj
 0001:0001bc04       ??_GFairScheduleGroupSegment@details@Concurrency@@UEAAPEAXI@Z 000000018001cc04 f i libconcrt:SchedulerBase.obj
 0001:0001bc04       ??_ECacheLocalScheduleGroupSegment@details@Concurrency@@UEAAPEAXI@Z 000000018001cc04 f i libconcrt:SchedulerBase.obj
 0001:0001bc38       ??_EFairScheduleGroup@details@Concurrency@@UEAAPEAXI@Z 000000018001cc38 f i libconcrt:SchedulerBase.obj
 0001:0001bc38       ??_GFairScheduleGroup@details@Concurrency@@UEAAPEAXI@Z 000000018001cc38 f i libconcrt:SchedulerBase.obj
 0001:0001bc64       ??_GRealizedChore@details@Concurrency@@UEAAPEAXI@Z 000000018001cc64 f i libconcrt:SchedulerBase.obj
 0001:0001bc64       ??_ERealizedChore@details@Concurrency@@UEAAPEAXI@Z 000000018001cc64 f i libconcrt:SchedulerBase.obj
 0001:0001bc90       ??_EScheduleGroup@Concurrency@@MEAAPEAXI@Z 000000018001cc90 f i libconcrt:SchedulerBase.obj
 0001:0001bc90       ??_GScheduleGroup@Concurrency@@MEAAPEAXI@Z 000000018001cc90 f i libconcrt:SchedulerBase.obj
 0001:0001bcbc       ??_EScheduler@Concurrency@@MEAAPEAXI@Z 000000018001ccbc f i libconcrt:SchedulerBase.obj
 0001:0001bcbc       ??_GScheduler@Concurrency@@MEAAPEAXI@Z 000000018001ccbc f i libconcrt:SchedulerBase.obj
 0001:0001bce8       ??_ESchedulerBase@details@Concurrency@@UEAAPEAXI@Z 000000018001cce8 f i libconcrt:SchedulerBase.obj
 0001:0001bce8       ??_GSchedulerBase@details@Concurrency@@UEAAPEAXI@Z 000000018001cce8 f i libconcrt:SchedulerBase.obj
 0001:0001bd1c       ??_G_Chore@details@Concurrency@@MEAAPEAXI@Z 000000018001cd1c f i libconcrt:SchedulerBase.obj
 0001:0001bd1c       ??_E_Chore@details@Concurrency@@MEAAPEAXI@Z 000000018001cd1c f i libconcrt:SchedulerBase.obj
 0001:0001bd48       ?Add@?$ListArray@VScheduleGroupBase@details@Concurrency@@@details@Concurrency@@QEAAHPEAVScheduleGroupBase@23@@Z 000000018001cd48 f i libconcrt:SchedulerBase.obj
 0001:0001bebc       ?AddContext@SchedulerBase@details@Concurrency@@QEAAXPEAVInternalContextBase@23@@Z 000000018001cebc f   libconcrt:SchedulerBase.obj
 0001:0001bf14       ?AddTail@?$SafeRWList@VWaitNode@SchedulerBase@details@Concurrency@@VNoCount@CollectionTypes@34@V_ReaderWriterLock@34@@details@Concurrency@@QEAAXPEAVWaitNode@SchedulerBase@23@@Z 000000018001cf14 f i libconcrt:SchedulerBase.obj
 0001:0001bf88       ?AddVirtualProcessors@SchedulerBase@details@Concurrency@@IEAAXPEAPEAUIVirtualProcessorRoot@3@I@Z 000000018001cf88 f   libconcrt:SchedulerBase.obj
 0001:0001c07c       ?AllocateSegment@CacheLocalScheduleGroup@details@Concurrency@@MEAAPEAVScheduleGroupSegmentBase@23@PEAVSchedulingRing@23@PEAVlocation@3@@Z 000000018001d07c f i libconcrt:SchedulerBase.obj
 0001:0001c108       ?AllocateSegment@FairScheduleGroup@details@Concurrency@@MEAAPEAVScheduleGroupSegmentBase@23@PEAVSchedulingRing@23@PEAVlocation@3@@Z 000000018001d108 f i libconcrt:SchedulerBase.obj
 0001:0001c198       ?Attach@SchedulerBase@details@Concurrency@@UEAAXXZ 000000018001d198 f   libconcrt:SchedulerBase.obj
 0001:0001c200       ?AttachExternalContext@SchedulerBase@details@Concurrency@@AEAAPEAVExternalContextBase@23@_N@Z 000000018001d200 f   libconcrt:SchedulerBase.obj
 0001:0001c298       ?AttemptSchedulerSweep@SchedulerBase@details@Concurrency@@IEAAXXZ 000000018001d298 f   libconcrt:SchedulerBase.obj
 0001:0001c2bc       ?CancelAllContexts@SchedulerBase@details@Concurrency@@MEAAXXZ 000000018001d2bc f   libconcrt:SchedulerBase.obj
 0001:0001c31c       ?ChangeThrottlingTimer@SchedulerBase@details@Concurrency@@AEAAXK@Z 000000018001d31c f   libconcrt:SchedulerBase.obj
 0001:0001c380       ?CheckForDeletion@?$ListArray@VScheduleGroupBase@details@Concurrency@@@details@Concurrency@@AEAAXXZ 000000018001d380 f i libconcrt:SchedulerBase.obj
 0001:0001c408       ?CheckForDeletionBridge@?$ListArray@VExternalStatistics@details@Concurrency@@@details@Concurrency@@CAXPEAV123@@Z 000000018001d408 f i libconcrt:SchedulerBase.obj
 0001:0001c464       ?CheckForDeletionBridge@?$ListArray@VScheduleGroupBase@details@Concurrency@@@details@Concurrency@@CAXPEAV123@@Z 000000018001d464 f i libconcrt:SchedulerBase.obj
 0001:0001c46c       ?CheckOneShotStaticDestruction@SchedulerBase@details@Concurrency@@SAXXZ 000000018001d46c f   libconcrt:SchedulerBase.obj
 0001:0001c4ac       ?CheckStaticConstruction@SchedulerBase@details@Concurrency@@CAXXZ 000000018001d4ac f   libconcrt:SchedulerBase.obj
 0001:0001c55c       ?Cleanup@SchedulerBase@details@Concurrency@@AEAAXXZ 000000018001d55c f   libconcrt:SchedulerBase.obj
 0001:0001c67c       ?CommitSafePoints@SchedulerBase@details@Concurrency@@QEAAXXZ 000000018001d67c f   libconcrt:SchedulerBase.obj
 0001:0001c6e4       ?CommitToVersion@SchedulerBase@details@Concurrency@@AEAAXK@Z 000000018001d6e4 f   libconcrt:SchedulerBase.obj
 0001:0001c7bc       ?ComputeSafePointCommitVersion@SchedulerBase@details@Concurrency@@AEAAKXZ 000000018001d7bc f   libconcrt:SchedulerBase.obj
 0001:0001c8e8       ?CopyFrom@QuickBitSet@details@Concurrency@@IEAAXAEBV123@@Z 000000018001d8e8 f i libconcrt:SchedulerBase.obj
 0001:0001c96c       ?CreateContextFromDefaultScheduler@SchedulerBase@details@Concurrency@@SAPEAVContextBase@23@XZ 000000018001d96c f   libconcrt:SchedulerBase.obj
 0001:0001c9b8       ?CreateScheduleGroup@SchedulerBase@details@Concurrency@@UEAAPEAVScheduleGroup@3@AEAVlocation@3@@Z 000000018001d9b8 f i libconcrt:SchedulerBase.obj
 0001:0001c9c0       ?CreateScheduleGroup@SchedulerBase@details@Concurrency@@UEAAPEAVScheduleGroup@3@XZ 000000018001d9c0 f i libconcrt:SchedulerBase.obj
 0001:0001c9e8       ?CreateWithoutInitializing@SchedulerBase@details@Concurrency@@SAPEAV123@AEBVSchedulerPolicy@3@@Z 000000018001d9e8 f   libconcrt:SchedulerBase.obj
 0001:0001ca18       ?DecrementInternalContextCount@SchedulerBase@details@Concurrency@@QEAAXXZ 000000018001da18 f   libconcrt:SchedulerBase.obj
 0001:0001ca38       ?DeferredGetInternalContext@SchedulerBase@details@Concurrency@@QEAAXXZ 000000018001da38 f   libconcrt:SchedulerBase.obj
 0001:0001ca64       ?Dequeue@?$SafeSQueue@VInternalContextBase@details@Concurrency@@V_HyperNonReentrantLock@23@@details@Concurrency@@QEAAPEAVInternalContextBase@23@XZ 000000018001da64 f i libconcrt:SchedulerBase.obj
 0001:0001cac8       ?DestroySchedulerEventHandlers@SchedulerBase@details@Concurrency@@MEAAXXZ 000000018001dac8 f   libconcrt:SchedulerBase.obj
 0001:0001cb38       ?DetachExternalContext@SchedulerBase@details@Concurrency@@AEAAXPEAVExternalContextBase@23@_N@Z 000000018001db38 f   libconcrt:SchedulerBase.obj
 0001:0001cb9c       ?FastCurrentContext@SchedulerBase@details@Concurrency@@SAPEAVContextBase@23@XZ 000000018001db9c f   libconcrt:SchedulerBase.obj
 0001:0001cba8       ?FastCurrentScheduler@SchedulerBase@details@Concurrency@@SAPEAV123@XZ 000000018001dba8 f   libconcrt:SchedulerBase.obj
 0001:0001cbcc       ?Fill@QuickBitSet@details@Concurrency@@QEAAXXZ 000000018001dbcc f i libconcrt:SchedulerBase.obj
 0001:0001cc58       ?Finalize@SchedulerBase@details@Concurrency@@AEAAXXZ 000000018001dc58 f   libconcrt:SchedulerBase.obj
 0001:0001ce1c       ?Find@?$Hash@II@details@Concurrency@@QEAAPEAUListNode@123@AEBIPEAI@Z 000000018001de1c f i libconcrt:SchedulerBase.obj
 0001:0001ce98       ?FindCurrentNode@SchedulerBase@details@Concurrency@@QEAAPEAVSchedulingNode@23@XZ 000000018001de98 f   libconcrt:SchedulerBase.obj
 0001:0001cefc       ?FindNodeByLocation@SchedulerBase@details@Concurrency@@QEAAPEAVSchedulingNode@23@PEAVlocation@3@@Z 000000018001defc f   libconcrt:SchedulerBase.obj
 0001:0001cf64       ?FindScheduleGroupSegment@SchedulingRing@details@Concurrency@@AEAAPEAVScheduleGroupSegmentBase@23@HHPEAHPEAV?$ListArray@VScheduleGroupSegmentBase@details@Concurrency@@@23@@Z 000000018001df64 f i libconcrt:SchedulerBase.obj
 0001:0001cffc       ?FindVirtualProcessor@SchedulingNode@details@Concurrency@@QEAAPEAVVirtualProcessor@23@HHPEAH@Z 000000018001dffc f i libconcrt:SchedulerBase.obj
 0001:0001d0a8       ?FoundAvailableVirtualProcessor@SchedulerBase@details@Concurrency@@QEAA_NAEAVClaimTicket@VirtualProcessor@23@Vlocation@3@K@Z 000000018001e0a8 f   libconcrt:SchedulerBase.obj
 0001:0001d23c       ?FoundBlockedContexts@SchedulerBase@details@Concurrency@@AEAA_NXZ 000000018001e23c f   libconcrt:SchedulerBase.obj
 0001:0001d270       ?FoundUnstartedChores@SchedulerBase@details@Concurrency@@AEAA_NXZ 000000018001e270 f   libconcrt:SchedulerBase.obj
 0001:0001d440       ?GetAnonymousScheduleGroupSegment@SchedulerBase@details@Concurrency@@QEAAPEAVScheduleGroupSegmentBase@23@XZ 000000018001e440 f   libconcrt:SchedulerBase.obj
 0001:0001d454       ?GetBitSet@SchedulerBase@details@Concurrency@@QEAA?AVQuickBitSet@23@PEBVlocation@3@@Z 000000018001e454 f   libconcrt:SchedulerBase.obj
 0001:0001d55c       ?GetDefaultScheduler@SchedulerBase@details@Concurrency@@CAPEAV123@XZ 000000018001e55c f   libconcrt:SchedulerBase.obj
 0001:0001d648       ?GetExternalContext@SchedulerBase@details@Concurrency@@AEAAPEAVExternalContextBase@23@_N@Z 000000018001e648 f   libconcrt:SchedulerBase.obj
 0001:0001d6c8       ?GetInternalContext@SchedulerBase@details@Concurrency@@QEAAPEAVInternalContextBase@23@_N@Z 000000018001e6c8 f   libconcrt:SchedulerBase.obj
 0001:0001d818       ?GetNewContextId@SchedulerBase@details@Concurrency@@QEAAIXZ 000000018001e818 f   libconcrt:SchedulerBase.obj
 0001:0001d828       ?GetNewScheduleGroupId@SchedulerBase@details@Concurrency@@QEAAIXZ 000000018001e828 f   libconcrt:SchedulerBase.obj
 0001:0001d838       ?GetNewWorkQueueId@SchedulerBase@details@Concurrency@@SAIXZ 000000018001e838 f   libconcrt:SchedulerBase.obj
 0001:0001d848       ?GetNextPriorityObject@SchedulerBase@details@Concurrency@@QEAAPEAUBoostedObject@23@XZ 000000018001e848 f   libconcrt:SchedulerBase.obj
 0001:0001d8cc       ?GetNextScheduleGroupSegment@SchedulingRing@details@Concurrency@@AEAAPEAVScheduleGroupSegmentBase@23@PEAHHPEAV?$ListArray@VScheduleGroupSegmentBase@details@Concurrency@@@23@@Z 000000018001e8cc f i libconcrt:SchedulerBase.obj
 0001:0001d944       ?GetNextSchedulingRing@SchedulerBase@details@Concurrency@@QEAAPEAVSchedulingRing@23@PEBV423@PEAV423@@Z 000000018001e944 f   libconcrt:SchedulerBase.obj
 0001:0001d984       ?GetNextSchedulingRing@SchedulerBase@details@Concurrency@@QEAAPEAVSchedulingRing@23@XZ 000000018001e984 f   libconcrt:SchedulerBase.obj
 0001:0001d9c0       ?GetPolicy@SchedulerBase@details@Concurrency@@UEBA?AVSchedulerPolicy@3@XZ 000000018001e9c0 f   libconcrt:SchedulerBase.obj
 0001:0001d9e4       ?GetRealizedChore@SchedulerBase@details@Concurrency@@QEAAPEAVRealizedChore@23@P6AXPEAX@Z0@Z 000000018001e9e4 f   libconcrt:SchedulerBase.obj
 0001:0001da48       ?GetRunnableContext@FairScheduleGroupSegment@details@Concurrency@@EEAAPEAVInternalContextBase@23@XZ 000000018001ea48 f i libconcrt:SchedulerBase.obj
 0001:0001da48       ?GetRunnableContext@CacheLocalScheduleGroupSegment@details@Concurrency@@EEAAPEAVInternalContextBase@23@XZ 000000018001ea48 f i libconcrt:SchedulerBase.obj
 0001:0001da60       ?GetSubAllocator@SchedulerBase@details@Concurrency@@SAPEAVSubAllocator@23@_N@Z 000000018001ea60 f   libconcrt:SchedulerBase.obj
 0001:0001db04       ?GetValidSchedulingRingIndex@SchedulerBase@details@Concurrency@@AEAAHH@Z 000000018001eb04 f   libconcrt:SchedulerBase.obj
 0001:0001db3c       ?Grow@QuickBitSet@details@Concurrency@@QEAAXI@Z 000000018001eb3c f i libconcrt:SchedulerBase.obj
 0001:0001dbe4       ?Grow@ReferenceCountedQuickBitSet@details@Concurrency@@QEAAXI@Z 000000018001ebe4 f i libconcrt:SchedulerBase.obj
 0001:0001dc88       ?HasCompletedShutdown@SchedulerBase@details@Concurrency@@QEAA_NXZ 000000018001ec88 f   libconcrt:SchedulerBase.obj
 0001:0001dc9c       ?GetId@InternalContextBase@details@Concurrency@@UEBAIXZ 000000018001ec9c f i libconcrt:InternalContextBase.obj
 0001:0001dc9c       ?Id@ScheduleGroupBase@details@Concurrency@@UEBAIXZ 000000018001ec9c f i libconcrt:SchedulerBase.obj
 0001:0001dca0       ?Id@SchedulerBase@details@Concurrency@@UEBAIXZ 000000018001eca0 f i libconcrt:SchedulerBase.obj
 0001:0001dca8       ?Initialize@SchedulerBase@details@Concurrency@@AEAAXXZ 000000018001eca8 f   libconcrt:SchedulerBase.obj
 0001:0001e26c       ?InitializeSchedulerEventHandlers@SchedulerBase@details@Concurrency@@MEAAXXZ 000000018001f26c f   libconcrt:SchedulerBase.obj
 0001:0001e274       ?Insert@?$Hash@II@details@Concurrency@@QEAAPEAUListNode@123@AEBI0@Z 000000018001f274 f i libconcrt:SchedulerBase.obj
 0001:0001e350       ?InternalCreateScheduleGroup@SchedulerBase@details@Concurrency@@AEAAPEAVScheduleGroup@3@PEAVlocation@3@@Z 000000018001f350 f   libconcrt:SchedulerBase.obj
 0001:0001e460       ?InternalRelease@ScheduleGroupBase@details@Concurrency@@IEAAJXZ 000000018001f460 f i libconcrt:SchedulerBase.obj
 0001:0001e4cc       ?InvokeAtNextSafePoint@SafePointInvocation@details@Concurrency@@QEAAXP6AXPEAX@Z0PEAVSchedulerBase@23@@Z 000000018001f4cc f   libconcrt:SchedulerBase.obj
 0001:0001e518       ?InvokeOnSafePoint@SchedulerBase@details@Concurrency@@AEAAXPEAVSafePointInvocation@23@@Z 000000018001f518 f   libconcrt:SchedulerBase.obj
 0001:0001e590       ?IsAvailableLocation@SchedulerBase@details@Concurrency@@UEBA_NAEBVlocation@3@@Z 000000018001f590 f   libconcrt:SchedulerBase.obj
 0001:0001e5f4       ?MailChore@FairScheduleGroup@details@Concurrency@@UEAA?AVSlot@?$Mailbox@V_UnrealizedChore@details@Concurrency@@@23@PEAV_UnrealizedChore@23@PEAVlocation@3@PEAPEAVScheduleGroupSegmentBase@23@@Z 000000018001f5f4 f i libconcrt:SchedulerBase.obj
 0001:0001e600       ?MarkSafePoint@SchedulerBase@details@Concurrency@@QEAA_NPEAVSafePointMarker@23@@Z 000000018001f600 f   libconcrt:SchedulerBase.obj
 0001:0001e618       ?NotifyThrottledContext@SchedulerBase@details@Concurrency@@AEAA_NPEAVInternalContextBase@23@@Z 000000018001f618 f   libconcrt:SchedulerBase.obj
 0001:0001e6c0       ?PerformServiceScan@SchedulerBase@details@Concurrency@@AEAAX_K@Z 000000018001f6c0 f   libconcrt:SchedulerBase.obj
 0001:0001e998       ?PhaseOneShutdown@SchedulerBase@details@Concurrency@@AEAAXXZ 000000018001f998 f   libconcrt:SchedulerBase.obj
 0001:0001ea74       ?PhaseTwoShutdown@SchedulerBase@details@Concurrency@@AEAAXXZ 000000018001fa74 f   libconcrt:SchedulerBase.obj
 0001:0001eb5c       ?PushRunnableToInactive@SchedulerBase@details@Concurrency@@UEAA_NPEAVInternalContextBase@23@Vlocation@3@@Z 000000018001fb5c f   libconcrt:SchedulerBase.obj
 0001:0001ec20       ?Reference@ScheduleGroupBase@details@Concurrency@@UEAAIXZ 000000018001fc20 f i libconcrt:SchedulerBase.obj
 0001:0001ec38       ?Reference@SchedulerBase@details@Concurrency@@UEAAIXZ 000000018001fc38 f   libconcrt:SchedulerBase.obj
 0001:0001ecc4       ?ReferenceForAttach@SchedulerBase@details@Concurrency@@IEAAXXZ 000000018001fcc4 f   libconcrt:SchedulerBase.obj
 0001:0001ecfc       ?RegisterShutdownEvent@SchedulerBase@details@Concurrency@@UEAAXPEAX@Z 000000018001fcfc f   libconcrt:SchedulerBase.obj
 0001:0001ede8       ?Release@ScheduleGroupBase@details@Concurrency@@UEAAIXZ 000000018001fde8 f i libconcrt:SchedulerBase.obj
 0001:0001edf0       ?Release@SchedulerBase@details@Concurrency@@UEAAIXZ 000000018001fdf0 f   libconcrt:SchedulerBase.obj
 0001:0001ee14       ?ReleaseExternalContext@SchedulerBase@details@Concurrency@@AEAAXPEAVExternalContextBase@23@@Z 000000018001fe14 f   libconcrt:SchedulerBase.obj
 0001:0001ee8c       ?ReleaseForDetach@SchedulerBase@details@Concurrency@@IEAAXXZ 000000018001fe8c f   libconcrt:SchedulerBase.obj
 0001:0001eec4       ?ReleaseInternalContext@SchedulerBase@details@Concurrency@@QEAAXPEAVInternalContextBase@23@_N@Z 000000018001fec4 f   libconcrt:SchedulerBase.obj
 0001:0001ef30       ?ReleaseRealizedChore@SchedulerBase@details@Concurrency@@QEAAXPEAVRealizedChore@23@@Z 000000018001ff30 f   libconcrt:SchedulerBase.obj
 0001:0001efa0       ?ReleaseReservedContexts@SchedulerBase@details@Concurrency@@QEAAXXZ 000000018001ffa0 f   libconcrt:SchedulerBase.obj
 0001:0001f03c       ?Remove@?$ListArray@VExternalStatistics@details@Concurrency@@@details@Concurrency@@QEAA_NPEAVExternalStatistics@23@H_N@Z 000000018002003c f i libconcrt:SchedulerBase.obj
 0001:0001f190       ?Remove@?$ListArray@VScheduleGroupBase@details@Concurrency@@@details@Concurrency@@QEAA_NPEAVScheduleGroupBase@23@H_N@Z 0000000180020190 f i libconcrt:SchedulerBase.obj
 0001:0001f2e4       ?RemoveHead@?$SafeRWList@VWaitNode@SchedulerBase@details@Concurrency@@VNoCount@CollectionTypes@34@V_ReaderWriterLock@34@@details@Concurrency@@QEAAPEAVWaitNode@SchedulerBase@23@XZ 00000001800202e4 f i libconcrt:SchedulerBase.obj
 0001:0001f350       ?RemovePrioritizedObject@SchedulerBase@details@Concurrency@@QEAAXPEAUBoostedObject@23@@Z 0000000180020350 f   libconcrt:SchedulerBase.obj
 0001:0001f3d0       ?RemoveScheduleGroup@SchedulerBase@details@Concurrency@@QEAAXPEAVScheduleGroupBase@23@@Z 00000001800203d0 f   libconcrt:SchedulerBase.obj
 0001:0001f3e4       ?RemoveSegments@FairScheduleGroup@details@Concurrency@@MEAAXXZ 00000001800203e4 f i libconcrt:SchedulerBase.obj
 0001:0001f400       ?RemoveVirtualProcessors@SchedulerBase@details@Concurrency@@IEAAXPEAPEAUIVirtualProcessorRoot@3@I@Z 0000000180020400 f   libconcrt:SchedulerBase.obj
 0001:0001f528       ?Resurrect@SchedulerBase@details@Concurrency@@AEAAXXZ 0000000180020528 f   libconcrt:SchedulerBase.obj
 0001:0001f5b0       ?ReturnSubAllocator@SchedulerBase@details@Concurrency@@SAXPEAVSubAllocator@23@@Z 00000001800205b0 f   libconcrt:SchedulerBase.obj
 0001:0001f628       ?SafeFastCurrentContext@SchedulerBase@details@Concurrency@@SAPEAVContextBase@23@XZ 0000000180020628 f   libconcrt:SchedulerBase.obj
 0001:0001f644       ?SafeReference@SchedulerBase@details@Concurrency@@AEAA_NXZ 0000000180020644 f   libconcrt:SchedulerBase.obj
 0001:0001f668       ?ScheduleTask@SchedulerBase@details@Concurrency@@UEAAXP6AXPEAX@Z0@Z 0000000180020668 f   libconcrt:SchedulerBase.obj
 0001:0001f6ec       ?ScheduleTask@SchedulerBase@details@Concurrency@@UEAAXP6AXPEAX@Z0AEAVlocation@3@@Z 00000001800206ec f   libconcrt:SchedulerBase.obj
 0001:0001f770       ?SetNextSchedulingRing@SchedulerBase@details@Concurrency@@QEAAXPEAVSchedulingRing@23@@Z 0000000180020770 f   libconcrt:SchedulerBase.obj
 0001:0001f7a4       ?StartupNewVirtualProcessor@SchedulerBase@details@Concurrency@@UEAAXPEAVScheduleGroupSegmentBase@23@Vlocation@3@@Z 00000001800207a4 f i libconcrt:SchedulerBase.obj
 0001:0001f800       ?StartupVirtualProcessor@SchedulerBase@details@Concurrency@@QEAA_NPEAVScheduleGroupSegmentBase@23@Vlocation@3@K@Z 0000000180020800 f   libconcrt:SchedulerBase.obj
 0001:0001f8bc       ?StaticDestruction@SchedulerBase@details@Concurrency@@CAXXZ 00000001800208bc f   libconcrt:SchedulerBase.obj
 0001:0001f970       ?Statistics@SchedulerBase@details@Concurrency@@IEAAXPEAI00@Z 0000000180020970 f   libconcrt:SchedulerBase.obj
 0001:0001fbcc       ?SweepSchedulerForFinalize@SchedulerBase@details@Concurrency@@AEAAXXZ 0000000180020bcc f   libconcrt:SchedulerBase.obj
 0001:0001fcb0       ?ThrottlerDispatch@SchedulerBase@details@Concurrency@@AEAAXXZ 0000000180020cb0 f   libconcrt:SchedulerBase.obj
 0001:0001fe0c       ?ThrottlerDispatchBridge@SchedulerBase@details@Concurrency@@CAXPEAU_TP_CALLBACK_INSTANCE@@PEAXPEAU_TP_TIMER@@@Z 0000000180020e0c f i libconcrt:SchedulerBase.obj
 0001:0001fe14       ?ThrottlerDispatchBridgeXP@SchedulerBase@details@Concurrency@@CAXPEAXE@Z 0000000180020e14 f i libconcrt:SchedulerBase.obj
 0001:0001fe1c       ?ThrottlerTrampoline@SchedulerBase@details@Concurrency@@CAXPEAXE@Z 0000000180020e1c f   libconcrt:SchedulerBase.obj
 0001:0001fe64       ?ThrottlingTime@SchedulerBase@details@Concurrency@@QEAAKK@Z 0000000180020e64 f   libconcrt:SchedulerBase.obj
 0001:0001ff34       ?ThrowSchedulerEvent@SchedulerBase@details@Concurrency@@CAXW4ConcRT_EventType@3@EI@Z 0000000180020f34 f   libconcrt:SchedulerBase.obj
 0001:0001ffbc       ?TriggerCommitSafePoints@SchedulerBase@details@Concurrency@@QEAAXPEAVSafePointMarker@23@@Z 0000000180020fbc f   libconcrt:SchedulerBase.obj
 0001:0002001c       ?TypeOfWorkPending@SchedulerBase@details@Concurrency@@MEAA?AW4PendingWorkType@123@XZ 000000018002101c f   libconcrt:SchedulerBase.obj
 0001:00020064       ?UpdateCommitVersion@SchedulerBase@details@Concurrency@@AEAAKK@Z 0000000180021064 f   libconcrt:SchedulerBase.obj
 0001:000200b0       ?UpdatePendingVersion@SchedulerBase@details@Concurrency@@AEAAKXZ 00000001800210b0 f   libconcrt:SchedulerBase.obj
 0001:000200f4       ?VirtualProcessorActive@SchedulerBase@details@Concurrency@@QEAA_N_N@Z 00000001800210f4 f   libconcrt:SchedulerBase.obj
 0001:000201fc       ?VirtualProcessorIdle@SchedulerBase@details@Concurrency@@QEAAX_N@Z 00000001800211fc f   libconcrt:SchedulerBase.obj
 0001:00020270       ?Wipe@?$Hash@II@details@Concurrency@@QEAAXXZ 0000000180021270 f i libconcrt:SchedulerBase.obj
 0001:000202f0       ??0MultiWaitBlock@details@Concurrency@@QEAA@_K_N1@Z 00000001800212f0 f i libconcrt:event.obj
 0001:0002038c       ??0MultiWaitBlockHolder@details@Concurrency@@QEAA@_N_K00@Z 000000018002138c f   libconcrt:event.obj
 0001:00020494       ??0_Condition_variable@details@Concurrency@@QEAA@XZ 0000000180021494 f   libconcrt:event.obj
 0001:000204b8       ??0event@Concurrency@@QEAA@XZ 00000001800214b8 f   libconcrt:event.obj
 0001:000204e0       ??1?$_MallocaArrayHolder@PEAVContext@Concurrency@@@details@Concurrency@@UEAA@XZ 00000001800214e0 f i libconcrt:event.obj
 0001:00020510       ??1MultiWaitBlockHolder@details@Concurrency@@QEAA@XZ 0000000180021510 f   libconcrt:event.obj
 0001:00020544       ??1_Condition_variable@details@Concurrency@@QEAA@XZ 0000000180021544 f   libconcrt:event.obj
 0001:00020584       ??1event@Concurrency@@QEAA@XZ 0000000180021584 f   libconcrt:event.obj
 0001:00020650       ??_E?$_MallocaArrayHolder@PEAVContext@Concurrency@@@details@Concurrency@@UEAAPEAXI@Z 0000000180021650 f i libconcrt:event.obj
 0001:00020650       ??_G?$_MallocaArrayHolder@PEAVContext@Concurrency@@@details@Concurrency@@UEAAPEAXI@Z 0000000180021650 f i libconcrt:event.obj
 0001:000206a4       ?Reset@SingleWaitBlock@details@Concurrency@@UEAA_NXZ 00000001800216a4 f   libconcrt:event.obj
 0001:000206a4       ?SweepResetNode@SingleWaitBlock@details@Concurrency@@UEAA_NXZ 00000001800216a4 f   libconcrt:event.obj
 0001:000206a4       ?SweepResetNode@WaitAnyBlock@details@Concurrency@@UEAA_NXZ 00000001800216a4 f   libconcrt:event.obj
 0001:000206a4       ?Destroy@SingleWaitBlock@details@Concurrency@@UEAAXXZ 00000001800216a4 f   libconcrt:event.obj
 0001:000206a4       ?Reset@WaitAnyBlock@details@Concurrency@@UEAA_NXZ 00000001800216a4 f   libconcrt:event.obj
 0001:000206a8       ?Destroy@TimedSingleWaitBlock@details@Concurrency@@UEAAXXZ 00000001800216a8 f   libconcrt:event.obj
 0001:000206cc       ?Destroy@WaitAllBlock@details@Concurrency@@UEAAXXZ 00000001800216cc f   libconcrt:event.obj
 0001:000206d4       ?DispatchEventTimer@MultiWaitBlock@details@Concurrency@@SAXPEAU_TP_CALLBACK_INSTANCE@@PEAXPEAU_TP_TIMER@@@Z 00000001800216d4 f   libconcrt:event.obj
 0001:00020764       ?DispatchEventTimer@TimedSingleWaitBlock@details@Concurrency@@SAXPEAU_TP_CALLBACK_INSTANCE@@PEAXPEAU_TP_TIMER@@@Z 0000000180021764 f   libconcrt:event.obj
 0001:000207c0       ?DispatchEventTimerXP@MultiWaitBlock@details@Concurrency@@SAXPEAXE@Z 00000001800217c0 f   libconcrt:event.obj
 0001:00020834       ?DispatchEventTimerXP@TimedSingleWaitBlock@details@Concurrency@@SAXPEAXE@Z 0000000180021834 f   libconcrt:event.obj
 0001:00020868       ?GetSharedTimerQueue@details@Concurrency@@YAPEAXXZ 0000000180021868 f   libconcrt:event.obj
 0001:0002091c       ?NotifyCompletedNode@MultiWaitBlock@details@Concurrency@@QEAAXXZ 000000018002191c f   libconcrt:event.obj
 0001:00020944       ?Reset@WaitAllBlock@details@Concurrency@@UEAA_NXZ 0000000180021944 f   libconcrt:event.obj
 0001:00020984       ?Satisfy@SingleWaitBlock@details@Concurrency@@UEAA_NPEAPEAVContext@3@PEAVEventWaitNode@23@@Z 0000000180021984 f   libconcrt:event.obj
 0001:000209f0       ?Satisfy@TimedSingleWaitBlock@details@Concurrency@@UEAA_NPEAPEAVContext@3@PEAVEventWaitNode@23@@Z 00000001800219f0 f   libconcrt:event.obj
 0001:00020aac       ?Satisfy@WaitAllBlock@details@Concurrency@@UEAA_NPEAPEAVContext@3@PEAVEventWaitNode@23@@Z 0000000180021aac f   libconcrt:event.obj
 0001:00020b28       ?Satisfy@WaitAnyBlock@details@Concurrency@@UEAA_NPEAPEAVContext@3@PEAVEventWaitNode@23@@Z 0000000180021b28 f   libconcrt:event.obj
 0001:00020ba0       ?Set@StructuredEvent@details@Concurrency@@QEAAXXZ 0000000180021ba0 f   libconcrt:event.obj
 0001:00020c0c       ?SingleSatisfy@MultiWaitBlock@details@Concurrency@@MEAAXPEAPEAVContext@3@PEAVEventWaitNode@23@@Z 0000000180021c0c f   libconcrt:event.obj
 0001:00020cf8       ?Sweep@details@Concurrency@@YAPEAVEventWaitNode@12@PEAV312@_N@Z 0000000180021cf8 f   libconcrt:event.obj
 0001:00020d74       ?SweepResetNode@WaitAllBlock@details@Concurrency@@UEAA_NXZ 0000000180021d74 f   libconcrt:event.obj
 0001:00020dc4       ?SweepWaitNode@TimedSingleWaitBlock@details@Concurrency@@UEAA_NXZ 0000000180021dc4 f   libconcrt:event.obj
 0001:00020e00       ?SweepWaitNode@WaitAllBlock@details@Concurrency@@UEAA_NXZ 0000000180021e00 f   libconcrt:event.obj
 0001:00020e58       ?SweepWaitNode@WaitAnyBlock@details@Concurrency@@UEAA_NXZ 0000000180021e58 f   libconcrt:event.obj
 0001:00020ea8       ?createTimer@TimedSingleWaitBlock@details@Concurrency@@QEAA_NI@Z 0000000180021ea8 f i libconcrt:event.obj
 0001:00020f34       ?notify_all@_Condition_variable@details@Concurrency@@QEAAXXZ 0000000180021f34 f   libconcrt:event.obj
 0001:00020ff8       ?notify_one@_Condition_variable@details@Concurrency@@QEAAXXZ 0000000180021ff8 f   libconcrt:event.obj
 0001:000210f8       ?set@event@Concurrency@@QEAAXXZ 00000001800220f8 f   libconcrt:event.obj
 0001:0002131c       ?wait@_Condition_variable@details@Concurrency@@QEAAXAEAVcritical_section@3@@Z 000000018002231c f   libconcrt:event.obj
 0001:000213e8       ?wait@event@Concurrency@@QEAA_KI@Z 00000001800223e8 f   libconcrt:event.obj
 0001:00021514       ?wait_for@_Condition_variable@details@Concurrency@@QEAA_NAEAVcritical_section@3@I@Z 0000000180022514 f   libconcrt:event.obj
 0001:00021660       ?wait_for_multiple@event@Concurrency@@SA_KPEAPEAV12@_K_NI@Z 0000000180022660 f   libconcrt:event.obj
 0001:00021a00       ??0ContextBase@details@Concurrency@@QEAA@PEAVSchedulerBase@12@_N@Z 0000000180022a00 f   libconcrt:ContextBase.obj
 0001:00021b68       ??1?$Hash@PEAV_TaskCollection@details@Concurrency@@PEAV123@@details@Concurrency@@QEAA@XZ 0000000180022b68 f i libconcrt:ContextBase.obj
 0001:00021b84       ??1?$StructuredWorkStealingQueue@V_UnrealizedChore@details@Concurrency@@V_CriticalNonReentrantLock@23@@details@Concurrency@@QEAA@XZ 0000000180022b84 f i libconcrt:ContextBase.obj
 0001:00021ba4       ??1?$WorkStealingQueue@V_UnrealizedChore@details@Concurrency@@V_CriticalNonReentrantLock@23@@details@Concurrency@@QEAA@XZ 0000000180022ba4 f i libconcrt:ContextBase.obj
 0001:00021bc4       ??1CancellationBeaconStack@ContextBase@details@Concurrency@@QEAA@XZ 0000000180022bc4 f i libconcrt:ContextBase.obj
 0001:00021c24       ??1Context@Concurrency@@MEAA@XZ 0000000180022c24 f i libconcrt:ContextBase.obj
 0001:00021c30       ??1ContextBase@details@Concurrency@@UEAA@XZ 0000000180022c30 f i libconcrt:ContextBase.obj
 0001:00021cbc       ??1_Scoped_lock@_CriticalNonReentrantLock@details@Concurrency@@QEAA@XZ 0000000180022cbc f i libconcrt:ContextBase.obj
 0001:00021cd8       ??1_Scoped_lock_read@?$SafeRWList@UListEntry@details@Concurrency@@VNoCount@CollectionTypes@23@V_ReaderWriterLock@23@@details@Concurrency@@QEAA@XZ 0000000180022cd8 f i libconcrt:ContextBase.obj
 0001:00021cf8       ??_EContext@Concurrency@@MEAAPEAXI@Z 0000000180022cf8 f i libconcrt:ContextBase.obj
 0001:00021cf8       ??_GContext@Concurrency@@MEAAPEAXI@Z 0000000180022cf8 f i libconcrt:ContextBase.obj
 0001:00021d24       ??_EContextBase@details@Concurrency@@UEAAPEAXI@Z 0000000180022d24 f i libconcrt:ContextBase.obj
 0001:00021d24       ??_GContextBase@details@Concurrency@@UEAAPEAXI@Z 0000000180022d24 f i libconcrt:ContextBase.obj
 0001:00021d58       ?Add@?$ListArray@VWorkQueue@details@Concurrency@@@details@Concurrency@@QEAAHPEAVWorkQueue@23@@Z 0000000180022d58 f i libconcrt:ContextBase.obj
 0001:00021ed0       ?AddStealer@ContextBase@details@Concurrency@@QEAAXPEAV123@_N@Z 0000000180022ed0 f   libconcrt:ContextBase.obj
 0001:00021f20       ?AddTail@?$SafeRWList@UListEntry@details@Concurrency@@VNoCount@CollectionTypes@23@V_ReaderWriterLock@23@@details@Concurrency@@QEAAXPEAUListEntry@23@@Z 0000000180022f20 f i libconcrt:ContextBase.obj
 0001:00021f98       ?CancelCollection@ContextBase@details@Concurrency@@QEAAXH@Z 0000000180022f98 f   libconcrt:ContextBase.obj
 0001:00022008       ?CancelCollectionComplete@ContextBase@details@Concurrency@@QEAA_NH@Z 0000000180023008 f   libconcrt:ContextBase.obj
 0001:00022044       ?CancelStealers@ContextBase@details@Concurrency@@QEAAXPEAV_TaskCollectionBase@23@@Z 0000000180023044 f   libconcrt:ContextBase.obj
 0001:00022144       ?CheckForDeletion@?$ListArray@VWorkQueue@details@Concurrency@@@details@Concurrency@@AEAAXXZ 0000000180023144 f i libconcrt:ContextBase.obj
 0001:000221d4       ?CheckForDeletionBridge@?$ListArray@VWorkQueue@details@Concurrency@@@details@Concurrency@@CAXPEAV123@@Z 00000001800231d4 f i libconcrt:ContextBase.obj
 0001:000221dc       ?Claim@Slot@?$Mailbox@V_UnrealizedChore@details@Concurrency@@@details@Concurrency@@QEAA_NPEAPEAV_UnrealizedChore@34@@Z 00000001800231dc f i libconcrt:ContextBase.obj
 0001:0002224c       ?Cleanup@ContextBase@details@Concurrency@@QEAAXXZ 000000018002324c f   libconcrt:ContextBase.obj
 0001:000222b8       ?ClearAliasTable@ContextBase@details@Concurrency@@QEAAXXZ 00000001800232b8 f   libconcrt:ContextBase.obj
 0001:00022380       ?ClearContextTls@ContextBase@details@Concurrency@@AEAAXXZ 0000000180023380 f   libconcrt:ContextBase.obj
 0001:00022390       ?CreateWorkQueue@ContextBase@details@Concurrency@@QEAAXXZ 0000000180023390 f   libconcrt:ContextBase.obj
 0001:00022434       ?DetachStealers@ContextBase@details@Concurrency@@QEAAXXZ 0000000180023434 f   libconcrt:ContextBase.obj
 0001:00022618       ?EnterHyperCriticalRegion@ContextBase@details@Concurrency@@QEAAHXZ 0000000180023618 f   libconcrt:ContextBase.obj
 0001:00022618       ?ExitHyperCriticalRegion@ContextBase@details@Concurrency@@QEAAHXZ 0000000180023618 f   libconcrt:ContextBase.obj
 0001:00022618       ?_Get_deleter@_Ref_count_base@std@@UEBAPEAXAEBVtype_info@@@Z 0000000180023618 f   libcpmt:excptptr.obj
 0001:00022618       ?GetContextKind@ExternalContextBase@details@Concurrency@@EEBA?AW4ContextKind@ContextBase@23@XZ 0000000180023618 f   libconcrt:ExternalContextBase.obj
 0001:00022618       ?PreRunnableSearch@VirtualProcessor@details@Concurrency@@UEAAPEAVInternalContextBase@23@XZ 0000000180023618 f   libconcrt:VirtualProcessor.obj
 0001:00022618       ?GetDefaultDestination@VirtualProcessor@details@Concurrency@@UEAAPEAUIExecutionContext@3@XZ 0000000180023618 f   libconcrt:VirtualProcessor.obj
 0001:00022618       ?EnterCriticalRegion@ContextBase@details@Concurrency@@QEAAHXZ 0000000180023618 f   libconcrt:ContextBase.obj
 0001:00022618       ?ExitCriticalRegion@ContextBase@details@Concurrency@@QEAAHXZ 0000000180023618 f   libconcrt:ContextBase.obj
 0001:0002261c       ?EnterCriticalRegionHelper@ContextBase@details@Concurrency@@UEAAHXZ 000000018002361c f i libconcrt:ContextBase.obj
 0001:00022628       ?EnterHyperCriticalRegionHelper@ContextBase@details@Concurrency@@UEAAHXZ 0000000180023628 f i libconcrt:ContextBase.obj
 0001:00022634       ?ExitCriticalRegionHelper@ContextBase@details@Concurrency@@UEAAHXZ 0000000180023634 f i libconcrt:ContextBase.obj
 0001:00022640       ?ExitHyperCriticalRegionHelper@ContextBase@details@Concurrency@@UEAAHXZ 0000000180023640 f i libconcrt:ContextBase.obj
 0001:0002264c       ?FindAndDelete@?$Hash@PEAV_TaskCollection@details@Concurrency@@PEAV123@@details@Concurrency@@QEAA_NAEBQEAV_TaskCollection@23@PEAPEAV423@@Z 000000018002364c f i libconcrt:ContextBase.obj
 0001:000226f8       ?FlagCancellationBeacons@ContextBase@details@Concurrency@@QEAAXH@Z 00000001800236f8 f   libconcrt:ContextBase.obj
 0001:00022774       ?GetCriticalRegionType@ContextBase@details@Concurrency@@UEBA?AW4CriticalRegionType@3@XZ 0000000180023774 f i libconcrt:ContextBase.obj
 0001:00022788       ?GetId@ContextBase@details@Concurrency@@UEBAIXZ 0000000180023788 f   libconcrt:ContextBase.obj
 0001:0002278c       ?GetIndirectAlias@ContextBase@details@Concurrency@@QEBAPEAV_TaskCollection@23@XZ 000000018002378c f   libconcrt:ContextBase.obj
 0001:00022794       ?GetScheduleGroup@ContextBase@details@Concurrency@@QEBAPEAVScheduleGroupBase@23@XZ 0000000180023794 f   libconcrt:ContextBase.obj
 0001:000227a8       ?GetScheduleGroupId@ContextBase@details@Concurrency@@UEBAIXZ 00000001800237a8 f   libconcrt:ContextBase.obj
 0001:000227e8       ?GetScheduleGroupSegment@ContextBase@details@Concurrency@@QEBAPEAVScheduleGroupSegmentBase@23@XZ 00000001800237e8 f   libconcrt:ContextBase.obj
 0001:000227f0       ?GetScheduler@ContextBase@details@Concurrency@@QEBAPEAVSchedulerBase@23@XZ 00000001800237f0 f   libconcrt:ContextBase.obj
 0001:000227f8       ?IsCanceledAtDepth@ContextBase@details@Concurrency@@AEAA_NPEAV_TaskCollectionBase@23@H@Z 00000001800237f8 f   libconcrt:ContextBase.obj
 0001:0002292c       ?Pop@?$WorkStealingQueue@V_UnrealizedChore@details@Concurrency@@V_CriticalNonReentrantLock@23@@details@Concurrency@@QEAAPEAV_UnrealizedChore@23@XZ 000000018002392c f i libconcrt:ContextBase.obj
 0001:000229f8       ?PopContextFromTls@ContextBase@details@Concurrency@@AEAAPEAV123@XZ 00000001800239f8 f   libconcrt:ContextBase.obj
 0001:00022a2c       ?PushContextToTls@ContextBase@details@Concurrency@@AEAAXPEAV123@@Z 0000000180023a2c f   libconcrt:ContextBase.obj
 0001:00022a40       ?RecomputeMaximumCancellationDepth@ContextBase@details@Concurrency@@AEAAXXZ 0000000180023a40 f   libconcrt:ContextBase.obj
 0001:00022ae4       ?ReferenceForCancellation@ContextBase@details@Concurrency@@QEAAXXZ 0000000180023ae4 f   libconcrt:ContextBase.obj
 0001:00022aec       ?ReleaseWorkQueue@ContextBase@details@Concurrency@@IEAAXXZ 0000000180023aec f   libconcrt:ContextBase.obj
 0001:00022bac       ?Remove@?$ListArray@VWorkQueue@details@Concurrency@@@details@Concurrency@@QEAA_NPEAVWorkQueue@23@H_N@Z 0000000180023bac f i libconcrt:ContextBase.obj
 0001:00022cf0       ?Remove@?$SafeRWList@UListEntry@details@Concurrency@@VNoCount@CollectionTypes@23@V_ReaderWriterLock@23@@details@Concurrency@@QEAAXPEAUListEntry@23@@Z 0000000180023cf0 f i libconcrt:ContextBase.obj
 0001:00022d60       ?RemoveStealer@ContextBase@details@Concurrency@@QEAAXPEAV123@@Z 0000000180023d60 f   libconcrt:ContextBase.obj
 0001:00022d74       ?SetAsCurrentTls@ContextBase@details@Concurrency@@IEAAXXZ 0000000180023d74 f   libconcrt:ContextBase.obj
 0001:00022d84       ?StaticExitHyperCriticalRegion@ContextBase@details@Concurrency@@SAXXZ 0000000180023d84 f   libconcrt:ContextBase.obj
 0001:00022d84       ?StaticEnterHyperCriticalRegion@ContextBase@details@Concurrency@@SAXXZ 0000000180023d84 f   libconcrt:ContextBase.obj
 0001:00022d84       ?StaticEnterCriticalRegion@ContextBase@details@Concurrency@@SAXXZ 0000000180023d84 f   libconcrt:ContextBase.obj
 0001:00022d84       ?StaticExitCriticalRegion@ContextBase@details@Concurrency@@SAXXZ 0000000180023d84 f   libconcrt:ContextBase.obj
 0001:00022d8c       ?SweepAliasTable@ContextBase@details@Concurrency@@QEAAXXZ 0000000180023d8c f   libconcrt:ContextBase.obj
 0001:00022e9c       ?SweepUnstructured@ContextBase@details@Concurrency@@QEAAXP6A_NPEAV_UnrealizedChore@23@PEAX@Z12@Z 0000000180023e9c f   libconcrt:ContextBase.obj
 0001:00022ea8       ?SyncPop@?$WorkStealingQueue@V_UnrealizedChore@details@Concurrency@@V_CriticalNonReentrantLock@23@@details@Concurrency@@AEAAPEAV_UnrealizedChore@23@XZ 0000000180023ea8 f i libconcrt:ContextBase.obj
 0001:00022fb4       ?ThrowContextEvent@ContextBase@details@Concurrency@@KAXW4ConcRT_EventType@3@EKK@Z 0000000180023fb4 f   libconcrt:ContextBase.obj
 0001:00023050       ?TryPop@?$WorkStealingQueue@V_UnrealizedChore@details@Concurrency@@V_CriticalNonReentrantLock@23@@details@Concurrency@@QEAAPEAV_UnrealizedChore@23@H@Z 0000000180024050 f i libconcrt:ContextBase.obj
 0001:00023114       ?TryPopUnstructured@ContextBase@details@Concurrency@@QEAAPEAV_UnrealizedChore@23@H@Z 0000000180024114 f   libconcrt:ContextBase.obj
 0001:00023124       ?Wipe@?$Hash@PEAV_TaskCollection@details@Concurrency@@PEAV123@@details@Concurrency@@QEAAXXZ 0000000180024124 f i libconcrt:ContextBase.obj
 0001:000231a4       ??0CancellationTokenRegistration_TaskProc@details@Concurrency@@QEAA@P6AXPEAX@Z0H@Z 00000001800241a4 f i libconcrt:TaskCollection.obj
 0001:0002322c       ??0_Interruption_exception@details@Concurrency@@QEAA@AEBV012@@Z 000000018002422c f i libconcrt:TaskCollection.obj
 0001:0002326c       ??0_Interruption_exception@details@Concurrency@@QEAA@XZ 000000018002426c f i libconcrt:TaskCollection.obj
 0001:00023284       ??0_TaskCollection@details@Concurrency@@AEAA@PEAV012@_N@Z 0000000180024284 f   libconcrt:TaskCollection.obj
 0001:000233f8       ??0missing_wait@Concurrency@@QEAA@AEBV01@@Z 00000001800243f8 f i libconcrt:TaskCollection.obj
 0001:00023438       ??1?$_MallocaArrayHolder@PEAVevent@Concurrency@@@details@Concurrency@@UEAA@XZ 0000000180024438 f i libconcrt:TaskCollection.obj
 0001:00023468       ??1?$lock_guard@Vmutex@std@@@std@@QEAA@XZ 0000000180024468 f i libconcrt:TaskCollection.obj
 0001:00023490       ??1?$unique_lock@Vmutex@std@@@std@@QEAA@XZ 0000000180024490 f i libconcrt:TaskCollection.obj
 0001:000234c0       ??1_TaskCollection@details@Concurrency@@QEAA@XZ 00000001800244c0 f   libconcrt:TaskCollection.obj
 0001:000235ec       ??1exception_ptr@std@@QEAA@XZ 00000001800245ec f i libconcrt:TaskCollection.obj
 0001:000235f4       ??_E?$_MallocaArrayHolder@PEAVevent@Concurrency@@@details@Concurrency@@UEAAPEAXI@Z 00000001800245f4 f i libconcrt:TaskCollection.obj
 0001:000235f4       ??_G?$_MallocaArrayHolder@PEAVevent@Concurrency@@@details@Concurrency@@UEAAPEAXI@Z 00000001800245f4 f i libconcrt:TaskCollection.obj
 0001:00023648       ??_ECancellationTokenRegistration_TaskProc@details@Concurrency@@UEAAPEAXI@Z 0000000180024648 f i libconcrt:TaskCollection.obj
 0001:00023648       ??_GCancellationTokenRegistration_TaskProc@details@Concurrency@@UEAAPEAXI@Z 0000000180024648 f i libconcrt:TaskCollection.obj
 0001:000236a0       ??_E_CancellationTokenRegistration@details@Concurrency@@MEAAPEAXI@Z 00000001800246a0 f i libconcrt:TaskCollection.obj
 0001:000236a0       ??_G_CancellationTokenRegistration@details@Concurrency@@MEAAPEAXI@Z 00000001800246a0 f i libconcrt:TaskCollection.obj
 0001:000236f8       ??_E_RefCounter@details@Concurrency@@UEAAPEAXI@Z 00000001800246f8 f i libconcrt:TaskCollection.obj
 0001:000236f8       ??_G_RefCounter@details@Concurrency@@UEAAPEAXI@Z 00000001800246f8 f i libconcrt:TaskCollection.obj
 0001:00023724       ?Find@?$Hash@PEAV_TaskCollection@details@Concurrency@@PEAV123@@details@Concurrency@@QEAAPEAUListNode@123@AEBQEAV_TaskCollection@23@PEAPEAV523@@Z 0000000180024724 f i libconcrt:TaskCollection.obj
 0001:000237a0       ?GetArbitraryAlias@ContextBase@details@Concurrency@@QEAAPEAV_TaskCollection@23@PEAV423@@Z 00000001800247a0 f i libconcrt:TaskCollection.obj
 0001:00023828       ?Insert@?$Hash@PEAV_TaskCollection@details@Concurrency@@PEAV123@@details@Concurrency@@QEAAPEAUListNode@123@AEBQEAV_TaskCollection@23@0@Z 0000000180024828 f i libconcrt:TaskCollection.obj
 0001:00023904       ?_Abort@_TaskCollection@details@Concurrency@@AEAAX_N@Z 0000000180024904 f   libconcrt:TaskCollection.obj
 0001:00023aa8       ?_AbortiveSweep@_TaskCollection@details@Concurrency@@AEAAXPEAX@Z 0000000180024aa8 f   libconcrt:TaskCollection.obj
 0001:00023b04       ?_Alias@_TaskCollection@details@Concurrency@@AEAAPEAV123@XZ 0000000180024b04 f   libconcrt:TaskCollection.obj
 0001:00023bfc       ?_Cancel@_StructuredTaskCollection@details@Concurrency@@QEAAXXZ 0000000180024bfc f   libconcrt:TaskCollection.obj
 0001:00023c84       ?_Cancel@_TaskCollection@details@Concurrency@@AEAAX_NPEAV123@@Z 0000000180024c84 f   libconcrt:TaskCollection.obj
 0001:00023d6c       ?_CancelDirectAliases@_TaskCollection@details@Concurrency@@AEAAX_NPEAV123@@Z 0000000180024d6c f   libconcrt:TaskCollection.obj
 0001:00023da4       ?_CancelFromArbitraryThread@_TaskCollection@details@Concurrency@@AEAAX_N@Z 0000000180024da4 f   libconcrt:TaskCollection.obj
 0001:00023e64       ?_CancelStolenContexts@_TaskCollection@details@Concurrency@@AEAAX_N0@Z 0000000180024e64 f   libconcrt:TaskCollection.obj
 0001:00023f18       ?_CollectionMatchPredicate@_TaskCollection@details@Concurrency@@CA_NPEAV_UnrealizedChore@23@PEAX@Z 0000000180024f18 f   libconcrt:TaskCollection.obj
 0001:00023f24       ?_CountUp@_StructuredTaskCollection@details@Concurrency@@AEAAXXZ 0000000180024f24 f   libconcrt:TaskCollection.obj
 0001:00023f54       ?_DeregisterCallback@_CancellationTokenState@details@Concurrency@@QEAAXPEAV_CancellationTokenRegistration@23@@Z 0000000180024f54 f i libconcrt:TaskCollection.obj
 0001:000240d4       ?_Destroy@_RefCounter@details@Concurrency@@MEAAXXZ 00000001800250d4 f i libconcrt:TaskCollection.obj
 0001:0002410c       ?_Exec@CancellationTokenRegistration_TaskProc@details@Concurrency@@MEAAXXZ 000000018002510c f i libconcrt:TaskCollection.obj
 0001:00024140       ?_FullAliasWait@_TaskCollection@details@Concurrency@@AEAAXPEAV123@@Z 0000000180025140 f   libconcrt:TaskCollection.obj
 0001:000242f0       ?_GetStealTrackingList@_TaskCollection@details@Concurrency@@AEBAPEAXXZ 00000001800252f0 f   libconcrt:TaskCollection.obj
 0001:000242f8       ?_Initialize@_StructuredTaskCollection@details@Concurrency@@AEAAXXZ 00000001800252f8 f   libconcrt:TaskCollection.obj
 0001:00024358       ?_Initialize@_TaskCollection@details@Concurrency@@AEAAXXZ 0000000180025358 f   libconcrt:TaskCollection.obj
 0001:00024398       ?_Invoke@_CancellationTokenRegistration@details@Concurrency@@AEAAXXZ 0000000180025398 f i libconcrt:TaskCollection.obj
 0001:00024488       ?_IsMarkedForAbnormalExit@_TaskCollection@details@Concurrency@@QEBA_NXZ 0000000180025488 f   libconcrt:TaskCollection.obj
 0001:00024498       ?_IsStaleAlias@_TaskCollection@details@Concurrency@@AEBA_NXZ 0000000180025498 f   libconcrt:TaskCollection.obj
 0001:000244a4       ?_NotifyCompletedChoreAndFree@_TaskCollection@details@Concurrency@@AEAAXPEAV_UnrealizedChore@23@@Z 00000001800254a4 f   libconcrt:TaskCollection.obj
 0001:0002450c       ?_OriginalCollection@_TaskCollection@details@Concurrency@@QEBAPEAV123@XZ 000000018002550c f   libconcrt:TaskCollection.obj
 0001:00024514       ?_RegisterCallback@_CancellationTokenState@details@Concurrency@@QEAAPEAV_CancellationTokenRegistration@23@P6AXPEAX@Z0H@Z 0000000180025514 f i libconcrt:TaskCollection.obj
 0001:0002458c       ?_RegisterCallback@_CancellationTokenState@details@Concurrency@@QEAAXPEAV_CancellationTokenRegistration@23@@Z 000000018002558c f i libconcrt:TaskCollection.obj
 0001:00024658       ?_ReleaseAlias@_TaskCollection@details@Concurrency@@AEAAXXZ 0000000180025658 f   libconcrt:TaskCollection.obj
 0001:00024694       ?_Reset@_TaskCollection@details@Concurrency@@AEAAXPEAV123@@Z 0000000180025694 f   libconcrt:TaskCollection.obj
 0001:000247c0       ?_SetCancelState@_TaskCollection@details@Concurrency@@AEAA_NJ@Z 00000001800257c0 f   libconcrt:TaskCollection.obj
 0001:000247ec       ?_SweepAbortedChore@_TaskCollection@details@Concurrency@@CA_NPEAV_UnrealizedChore@23@PEAX@Z 00000001800257ec f   libconcrt:TaskCollection.obj
 0001:0002480c       ?_TaskCleanup@_TaskCollection@details@Concurrency@@AEAA_N_N@Z 000000018002580c f   libconcrt:TaskCollection.obj
 0001:000248b4       ?compare_exchange_strong@_Atomic_long@std@@QEAA_NAEAJJW4memory_order@2@@Z 00000001800258b4 f i libconcrt:TaskCollection.obj
 0001:0002494c       ??0SchedulerPolicy@Concurrency@@QEAA@AEBV01@@Z 000000018002594c f   libconcrt:SchedulerPolicyBase.obj
 0001:00024994       ??0SchedulerPolicy@Concurrency@@QEAA@_KZZ 0000000180025994 f   libconcrt:SchedulerPolicyBase.obj
 0001:000249c8       ??0invalid_scheduler_policy_key@Concurrency@@QEAA@AEBV01@@Z 00000001800259c8 f i libconcrt:SchedulerPolicyBase.obj
 0001:00024a08       ??0invalid_scheduler_policy_thread_specification@Concurrency@@QEAA@AEBV01@@Z 0000000180025a08 f i libconcrt:SchedulerPolicyBase.obj
 0001:00024a48       ??0invalid_scheduler_policy_value@Concurrency@@QEAA@AEBV01@@Z 0000000180025a48 f i libconcrt:SchedulerPolicyBase.obj
 0001:00024a88       ??1SchedulerPolicy@Concurrency@@QEAA@XZ 0000000180025a88 f   libconcrt:SchedulerPolicyBase.obj
 0001:00024a98       ??4SchedulerPolicy@Concurrency@@QEAAAEAV01@AEBV01@@Z 0000000180025a98 f   libconcrt:SchedulerPolicyBase.obj
 0001:00024abc       ?GetPolicyValue@SchedulerPolicy@Concurrency@@QEBAIW4PolicyElementKey@2@@Z 0000000180025abc f   libconcrt:SchedulerPolicyBase.obj
 0001:00024afc       ?_Initialize@SchedulerPolicy@Concurrency@@AEAAX_KPEAPEAD@Z 0000000180025afc f   libconcrt:SchedulerPolicyBase.obj
 0001:00024c38       ?_ResolvePolicyValues@SchedulerPolicy@Concurrency@@AEAAXXZ 0000000180025c38 f   libconcrt:SchedulerPolicyBase.obj
 0001:00024c9c       ?_StringFromPolicyKey@SchedulerPolicy@Concurrency@@CAPEADI@Z 0000000180025c9c f   libconcrt:SchedulerPolicyBase.obj
 0001:00024cb4       ?_ValidPolicyValue@SchedulerPolicy@Concurrency@@CA_NW4PolicyElementKey@2@I@Z 0000000180025cb4 f   libconcrt:SchedulerPolicyBase.obj
 0001:00024d60       ?_ValidateConcRTPolicy@SchedulerPolicy@Concurrency@@QEBAXXZ 0000000180025d60 f   libconcrt:SchedulerPolicyBase.obj
 0001:00024dcc       ??0ExecutionResource@details@Concurrency@@QEAA@PEAVSchedulerProxy@12@PEAUSchedulerNode@12@I@Z 0000000180025dcc f   libconcrt:ExecutionResource.obj
 0001:00024e30       ??0ExecutionResource@details@Concurrency@@QEAA@PEAVSchedulerProxy@12@PEAV012@@Z 0000000180025e30 f   libconcrt:ExecutionResource.obj
 0001:00024e80       ?CurrentSubscriptionLevel@ExecutionResource@details@Concurrency@@UEBAIXZ 0000000180025e80 f   libconcrt:ExecutionResource.obj
 0001:00024e94       ?DecrementUseCounts@ExecutionResource@details@Concurrency@@QEAAXXZ 0000000180025e94 f   libconcrt:ExecutionResource.obj
 0001:00024f24       ?GetExecutionResourceId@ExecutionResource@details@Concurrency@@UEBAIXZ 0000000180025f24 f i libconcrt:ExecutionResource.obj
 0001:00024f28       ?GetNodeId@ExecutionResource@details@Concurrency@@UEBAIXZ 0000000180025f28 f i libconcrt:ExecutionResource.obj
 0001:00024f2c       ?IncrementUseCounts@ExecutionResource@details@Concurrency@@QEAAXXZ 0000000180025f2c f   libconcrt:ExecutionResource.obj
 0001:00025028       ?Remove@ExecutionResource@details@Concurrency@@UEAAXPEAUIScheduler@3@@Z 0000000180026028 f   libconcrt:ExecutionResource.obj
 0001:000250c8       ?ResetCurrent@ExecutionResource@details@Concurrency@@QEAAXXZ 00000001800260c8 f   libconcrt:ExecutionResource.obj
 0001:000250f4       ?SetAsCurrent@ExecutionResource@details@Concurrency@@QEAAXXZ 00000001800260f4 f   libconcrt:ExecutionResource.obj
 0001:00025130       ??$sign@N@details@Concurrency@@YANN@Z 0000000180026130 f i libconcrt:HillClimbing.obj
 0001:00025158       ??0HillClimbing@details@Concurrency@@QEAA@IIPEAVSchedulerProxy@12@@Z 0000000180026158 f   libconcrt:HillClimbing.obj
 0001:000251cc       ?CalculateThroughputSlope@HillClimbing@details@Concurrency@@AEAANHH@Z 00000001800261cc f   libconcrt:HillClimbing.obj
 0001:0002532c       ?CoefficientOfVariationMean@MeasuredHistory@HillClimbing@details@Concurrency@@QEAANXZ 000000018002632c f   libconcrt:HillClimbing.obj
 0001:00025390       ?EstablishControlSetting@HillClimbing@details@Concurrency@@AEAAXI@Z 0000000180026390 f   libconcrt:HillClimbing.obj
 0001:000253f4       ?FlushHistories@HillClimbing@details@Concurrency@@AEAAXXZ 00000001800263f4 f   libconcrt:HillClimbing.obj
 0001:0002543c       ?IsStableHistory@HillClimbing@details@Concurrency@@AEAA_NPEAVMeasuredHistory@123@@Z 000000018002643c f   libconcrt:HillClimbing.obj
 0001:00025474       ?RecommendControlSetting@HillClimbing@details@Concurrency@@AEAAII@Z 0000000180026474 f   libconcrt:HillClimbing.obj
 0001:000255c4       ?Update@HillClimbing@details@Concurrency@@QEAAIIIII@Z 00000001800265c4 f   libconcrt:HillClimbing.obj
 0001:00025828       ?Variance@MeasuredHistory@HillClimbing@details@Concurrency@@QEAANXZ 0000000180026828 f   libconcrt:HillClimbing.obj
 0001:0002587c       ??0SchedulerProxy@details@Concurrency@@QEAA@PEAUIScheduler@2@PEAVResourceManager@12@AEBVSchedulerPolicy@2@@Z 000000018002687c f   libconcrt:SchedulerProxy.obj
 0001:00025b1c       ??1SchedulerProxy@details@Concurrency@@IEAA@XZ 0000000180026b1c f   libconcrt:SchedulerProxy.obj
 0001:00025b68       ??1_Scoped_lock@_ReentrantBlockingLock@details@Concurrency@@QEAA@XZ 0000000180026b68 f i libconcrt:SchedulerProxy.obj
 0001:00025b84       ?AddCore@SchedulerProxy@details@Concurrency@@QEAAXPEAUSchedulerNode@23@I_N@Z 0000000180026b84 f   libconcrt:SchedulerProxy.obj
 0001:00025c94       ?AddExecutionResource@SchedulerProxy@details@Concurrency@@QEAAXPEAVExecutionResource@23@@Z 0000000180026c94 f   libconcrt:SchedulerProxy.obj
 0001:00025d34       ?AddThreadSubscription@SchedulerProxy@details@Concurrency@@QEAAXPEAVExecutionResource@23@@Z 0000000180026d34 f   libconcrt:SchedulerProxy.obj
 0001:00025d8c       ?AddVirtualProcessorRoots@SchedulerProxy@details@Concurrency@@QEAAXPEAPEAUIVirtualProcessorRoot@3@I@Z 0000000180026d8c f   libconcrt:SchedulerProxy.obj
 0001:00025ea4       ?AdjustAllocationIncrease@SchedulerProxy@details@Concurrency@@QEBAII@Z 0000000180026ea4 f   libconcrt:SchedulerProxy.obj
 0001:00025f30       ?BindContext@SchedulerProxy@details@Concurrency@@UEAAXPEAUIExecutionContext@3@@Z 0000000180026f30 f   libconcrt:SchedulerProxy.obj
 0001:00025fb0       ?Cleanup@SchedulerProxy@details@Concurrency@@IEAAXXZ 0000000180026fb0 f   libconcrt:SchedulerProxy.obj
 0001:00026084       ?CreateExternalThreadResource@SchedulerProxy@details@Concurrency@@QEAAPEAVExecutionResource@23@PEAUSchedulerNode@23@I@Z 0000000180027084 f   libconcrt:SchedulerProxy.obj
 0001:000260f4       ?CreateOversubscriber@SchedulerProxy@details@Concurrency@@UEAAPEAUIVirtualProcessorRoot@3@PEAUIExecutionResource@3@@Z 00000001800270f4 f   libconcrt:SchedulerProxy.obj
 0001:0002621c       ?CreateVirtualProcessorRoot@SchedulerProxy@details@Concurrency@@UEAAPEAVVirtualProcessorRoot@23@PEAUSchedulerNode@23@I@Z 000000018002721c f   libconcrt:SchedulerProxy.obj
 0001:00026278       ?DecrementCoreSubscription@SchedulerProxy@details@Concurrency@@QEAAXPEAVExecutionResource@23@@Z 0000000180027278 f   libconcrt:SchedulerProxy.obj
 0001:000262d0       ?DecrementFixedCoreCount@SchedulerProxy@details@Concurrency@@QEAAXII_N@Z 00000001800272d0 f   libconcrt:SchedulerProxy.obj
 0001:0002637c       ?DeleteThis@SchedulerProxy@details@Concurrency@@MEAAXXZ 000000018002737c f i libconcrt:SchedulerProxy.obj
 0001:000263a4       ?DestroyExecutionResource@SchedulerProxy@details@Concurrency@@QEAAXPEAVExecutionResource@23@@Z 00000001800273a4 f   libconcrt:SchedulerProxy.obj
 0001:000264a0       ?DestroyVirtualProcessorRoot@SchedulerProxy@details@Concurrency@@QEAAXPEAVVirtualProcessorRoot@23@@Z 00000001800274a0 f   libconcrt:SchedulerProxy.obj
 0001:0002657c       ?FinalShutdown@SchedulerProxy@details@Concurrency@@UEAAXXZ 000000018002757c f   libconcrt:SchedulerProxy.obj
 0001:000265b0       ?GetCurrentThreadExecutionResource@SchedulerProxy@details@Concurrency@@QEAAPEAVExecutionResource@23@XZ 00000001800275b0 f   libconcrt:SchedulerProxy.obj
 0001:000265dc       ?GetNewThreadProxy@SchedulerProxy@details@Concurrency@@UEAAPEAUIThreadProxy@3@PEAUIExecutionContext@3@@Z 00000001800275dc f   libconcrt:SchedulerProxy.obj
 0001:0002666c       ?GetResourceForNewSubscription@SchedulerProxy@details@Concurrency@@QEAAPEAVExecutionResource@23@PEAV423@@Z 000000018002766c f   libconcrt:SchedulerProxy.obj
 0001:000266d8       ?GrantAllocation@SchedulerProxy@details@Concurrency@@QEAAPEAVExecutionResource@23@I_N0@Z 00000001800276d8 f   libconcrt:SchedulerProxy.obj
 0001:00026ab4       ?IncrementCoreSubscription@SchedulerProxy@details@Concurrency@@QEAAXPEAVExecutionResource@23@@Z 0000000180027ab4 f   libconcrt:SchedulerProxy.obj
 0001:00026b10       ?IncrementFixedCoreCount@SchedulerProxy@details@Concurrency@@QEAAXII_N@Z 0000000180027b10 f   libconcrt:SchedulerProxy.obj
 0001:00026bbc       ?ReferenceCurrentThreadExecutionResource@SchedulerProxy@details@Concurrency@@QEAAPEAVExecutionResource@23@XZ 0000000180027bbc f   libconcrt:SchedulerProxy.obj
 0001:00026c9c       ?RemoveCore@SchedulerProxy@details@Concurrency@@QEAAXPEAUSchedulerNode@23@I@Z 0000000180027c9c f   libconcrt:SchedulerProxy.obj
 0001:00026db0       ?RemoveThreadSubscription@SchedulerProxy@details@Concurrency@@QEAAXPEAVExecutionResource@23@@Z 0000000180027db0 f   libconcrt:SchedulerProxy.obj
 0001:00026e0c       ?RequestInitialVirtualProcessors@SchedulerProxy@details@Concurrency@@UEAAPEAUIExecutionResource@3@_N@Z 0000000180027e0c f   libconcrt:SchedulerProxy.obj
 0001:00026e1c       ?SendCoreNotification@SchedulerProxy@details@Concurrency@@QEAAXPEAUSchedulerCore@23@_N@Z 0000000180027e1c f   libconcrt:SchedulerProxy.obj
 0001:00026f38       ?Shutdown@SchedulerProxy@details@Concurrency@@UEAAXXZ 0000000180027f38 f   libconcrt:SchedulerProxy.obj
 0001:00026f44       ?SubscribeCurrentThread@SchedulerProxy@details@Concurrency@@UEAAPEAUIExecutionResource@3@XZ 0000000180027f44 f   libconcrt:SchedulerProxy.obj
 0001:00026f50       ?ToggleBorrowedState@SchedulerProxy@details@Concurrency@@QEAAXPEAUSchedulerNode@23@I@Z 0000000180027f50 f   libconcrt:SchedulerProxy.obj
 0001:00026f8c       ?UnbindContext@SchedulerProxy@details@Concurrency@@UEAAXPEAUIExecutionContext@3@@Z 0000000180027f8c f   libconcrt:SchedulerProxy.obj
 0001:00026fe8       ?Initialize@UMS@details@Concurrency@@SAXXZ 0000000180027fe8 f   libconcrt:UMSWrapper.obj
 0001:0002769c       ?Initialize@WinRT@details@Concurrency@@SAXXZ 000000018002869c f   libconcrt:WinRTWrapper.obj
 0001:000277d4       ?RoInitialize@WinRT@details@Concurrency@@SAJW4RO_INIT_TYPE@@@Z 00000001800287d4 f   libconcrt:WinRTWrapper.obj
 0001:0002780c       ?RoUninitialize@WinRT@details@Concurrency@@SAXXZ 000000018002880c f   libconcrt:WinRTWrapper.obj
 0001:00027834       ??0ThreadProxyFactoryManager@details@Concurrency@@QEAA@XZ 0000000180028834 f   libconcrt:ThreadProxyFactoryManager.obj
 0001:00027870       ??1ThreadProxyFactoryManager@details@Concurrency@@QEAA@XZ 0000000180028870 f   libconcrt:ThreadProxyFactoryManager.obj
 0001:000278ec       ??_G?$ThreadProxyFactory@VFreeThreadProxy@details@Concurrency@@@details@Concurrency@@UEAAPEAXI@Z 00000001800288ec f i libconcrt:ThreadProxyFactoryManager.obj
 0001:000278ec       ??_E?$ThreadProxyFactory@VFreeThreadProxy@details@Concurrency@@@details@Concurrency@@UEAAPEAXI@Z 00000001800288ec f i libconcrt:ThreadProxyFactoryManager.obj
 0001:00027918       ??_GFreeThreadProxy@details@Concurrency@@UEAAPEAXI@Z 0000000180028918 f i libconcrt:ThreadProxyFactoryManager.obj
 0001:00027918       ??_EFreeThreadProxy@details@Concurrency@@UEAAPEAXI@Z 0000000180028918 f i libconcrt:ThreadProxyFactoryManager.obj
 0001:00027958       ??_EFreeThreadProxyFactory@details@Concurrency@@UEAAPEAXI@Z 0000000180028958 f i libconcrt:ThreadProxyFactoryManager.obj
 0001:00027958       ??_GFreeThreadProxyFactory@details@Concurrency@@UEAAPEAXI@Z 0000000180028958 f i libconcrt:ThreadProxyFactoryManager.obj
 0001:00027984       ??_EIThreadProxyFactory@details@Concurrency@@UEAAPEAXI@Z 0000000180028984 f i libconcrt:ThreadProxyFactoryManager.obj
 0001:00027984       ??_GIThreadProxyFactory@details@Concurrency@@UEAAPEAXI@Z 0000000180028984 f i libconcrt:ThreadProxyFactoryManager.obj
 0001:000279b0       ?Create@FreeThreadProxyFactory@details@Concurrency@@EEAAPEAVFreeThreadProxy@23@I@Z 00000001800289b0 f i libconcrt:ThreadProxyFactoryManager.obj
 0001:00027a30       ?CreateFactory@FreeThreadProxyFactory@details@Concurrency@@SAPEAV123@PEAVThreadProxyFactoryManager@23@@Z 0000000180028a30 f i libconcrt:ThreadProxyFactoryManager.obj
 0001:00027ac8       ?GetExecutionResourceTls@?$ThreadProxyFactory@VFreeThreadProxy@details@Concurrency@@@details@Concurrency@@UEAAKXZ 0000000180028ac8 f i libconcrt:ThreadProxyFactoryManager.obj
 0001:00027acc       ?GetFreeThreadProxyFactory@ThreadProxyFactoryManager@details@Concurrency@@QEAAPEAVFreeThreadProxyFactory@23@XZ 0000000180028acc f   libconcrt:ThreadProxyFactoryManager.obj
 0001:00027b24       ?Prepare@?$ThreadProxyFactory@VFreeThreadProxy@details@Concurrency@@@details@Concurrency@@MEAAXPEAVFreeThreadProxy@23@H@Z 0000000180028b24 f i libconcrt:ThreadProxyFactoryManager.obj
 0001:00027b44       ?ReclaimProxy@?$ThreadProxyFactory@VFreeThreadProxy@details@Concurrency@@@details@Concurrency@@UEAAXPEAUIThreadProxy@3@@Z 0000000180028b44 f i libconcrt:ThreadProxyFactoryManager.obj
 0001:00027bdc       ?ReclaimProxy@FreeThreadProxyFactory@details@Concurrency@@UEAAXPEAUIThreadProxy@3@@Z 0000000180028bdc f i libconcrt:ThreadProxyFactoryManager.obj
 0001:00027cd0       ?Reference@FreeThreadProxyFactory@details@Concurrency@@UEAAJXZ 0000000180028cd0 f i libconcrt:ThreadProxyFactoryManager.obj
 0001:00027ce0       ?Release@FreeThreadProxyFactory@details@Concurrency@@UEAAJXZ 0000000180028ce0 f i libconcrt:ThreadProxyFactoryManager.obj
 0001:00027d30       ?RequestProxy@?$ThreadProxyFactory@VFreeThreadProxy@details@Concurrency@@@details@Concurrency@@UEAAPEAUIThreadProxy@3@IH@Z 0000000180028d30 f i libconcrt:ThreadProxyFactoryManager.obj
 0001:00027dec       ?Retire@FreeThreadProxyFactory@details@Concurrency@@EEAAXPEAVFreeThreadProxy@23@@Z 0000000180028dec f i libconcrt:ThreadProxyFactoryManager.obj
 0001:00027df4       ?RetireThreadProxies@?$ThreadProxyFactory@VFreeThreadProxy@details@Concurrency@@@details@Concurrency@@QEAAXXZ 0000000180028df4 f i libconcrt:ThreadProxyFactoryManager.obj
 0001:00027e80       ?ShutdownFactory@FreeThreadProxyFactory@details@Concurrency@@UEAAXXZ 0000000180028e80 f i libconcrt:ThreadProxyFactoryManager.obj
 0001:00027eb8       ?YieldToSystem@FreeThreadProxy@details@Concurrency@@UEAAXXZ 0000000180028eb8 f i libconcrt:ThreadProxyFactoryManager.obj
 0001:00027ec0       ??0Etw@details@Concurrency@@AEAA@XZ 0000000180028ec0 f   libconcrt:Trace.obj
 0001:00027fc8       ?ControlCallback@details@Concurrency@@YAKW4WMIDPREQUESTCODE@@PEAXPEAK1@Z 0000000180028fc8 f   libconcrt:Trace.obj
 0001:00028090       ?GetEnableFlags@Etw@details@Concurrency@@QEAAK_K@Z 0000000180029090 f   libconcrt:Trace.obj
 0001:000280e0       ?GetEnableLevel@Etw@details@Concurrency@@QEAAE_K@Z 00000001800290e0 f   libconcrt:Trace.obj
 0001:00028130       ?GetLoggerHandle@Etw@details@Concurrency@@QEAA_KPEAX@Z 0000000180029130 f   libconcrt:Trace.obj
 0001:00028184       ?RegisterGuids@Etw@details@Concurrency@@QEAAKP6AKW4WMIDPREQUESTCODE@@PEAXPEAK1@ZPEBU_GUID@@KPEAU_TRACE_GUID_REGISTRATION@@PEA_K@Z 0000000180029184 f   libconcrt:Trace.obj
 0001:00028210       ?Trace@Etw@details@Concurrency@@QEAAK_KPEAU_EVENT_TRACE_HEADER@@@Z 0000000180029210 f   libconcrt:Trace.obj
 0001:00028268       ?UnregisterGuids@Etw@details@Concurrency@@QEAAK_K@Z 0000000180029268 f   libconcrt:Trace.obj
 0001:000282b0       ?_RegisterConcRTEventTracing@details@Concurrency@@YAXXZ 00000001800292b0 f   libconcrt:Trace.obj
 0001:00028370       ?_UnregisterConcRTEventTracing@details@Concurrency@@YAXXZ 0000000180029370 f   libconcrt:Trace.obj
 0001:000283bc       ??0?$StructuredWorkStealingQueue@VInternalContextBase@details@Concurrency@@V_HyperNonReentrantLock@23@@details@Concurrency@@QEAA@PEAV_HyperNonReentrantLock@12@@Z 00000001800293bc f i libconcrt:VirtualProcessor.obj
 0001:000283bc       ??0?$StructuredWorkStealingQueue@V_UnrealizedChore@details@Concurrency@@V_CriticalNonReentrantLock@23@@details@Concurrency@@QEAA@PEAV_CriticalNonReentrantLock@12@@Z 00000001800293bc f i libconcrt:WorkQueue.obj
 0001:00028438       ??0VirtualProcessor@details@Concurrency@@QEAA@XZ 0000000180029438 f   libconcrt:VirtualProcessor.obj
 0001:000284ac       ??1VirtualProcessor@details@Concurrency@@UEAA@XZ 00000001800294ac f   libconcrt:VirtualProcessor.obj
 0001:00028508       ??_EVirtualProcessor@details@Concurrency@@UEAAPEAXI@Z 0000000180029508 f i libconcrt:VirtualProcessor.obj
 0001:00028508       ??_GVirtualProcessor@details@Concurrency@@UEAAPEAXI@Z 0000000180029508 f i libconcrt:VirtualProcessor.obj
 0001:0002853c       ?Affinitize@VirtualProcessor@details@Concurrency@@MEAAXPEAVInternalContextBase@23@@Z 000000018002953c f   libconcrt:VirtualProcessor.obj
 0001:000285a8       ?CheckAffinityNotification@VirtualProcessor@details@Concurrency@@QEAA_NXZ 00000001800295a8 f   libconcrt:VirtualProcessor.obj
 0001:00028600       ?CheckForDeletion@?$ListArray@VVirtualProcessor@details@Concurrency@@@details@Concurrency@@AEAAXXZ 0000000180029600 f i libconcrt:VirtualProcessor.obj
 0001:00028680       ?CheckForDeletionBridge@?$ListArray@VVirtualProcessor@details@Concurrency@@@details@Concurrency@@CAXPEAV123@@Z 0000000180029680 f i libconcrt:VirtualProcessor.obj
 0001:00028688       ?ClaimExclusiveOwnership@VirtualProcessor@details@Concurrency@@QEAA_NAEAVClaimTicket@123@K_N@Z 0000000180029688 f   libconcrt:VirtualProcessor.obj
 0001:00028720       ?Deactivate@VirtualProcessor@details@Concurrency@@QEAA_NPEAUIExecutionContext@3@@Z 0000000180029720 f   libconcrt:VirtualProcessor.obj
 0001:00028764       ?EnsureAllTasksVisible@VirtualProcessor@details@Concurrency@@QEAAXPEAUIExecutionContext@3@@Z 0000000180029764 f   libconcrt:VirtualProcessor.obj
 0001:000287a8       ?ExerciseClaim@VirtualProcessor@details@Concurrency@@AEAA_NW4AvailabilityType@123@PEAVScheduleGroupSegmentBase@23@PEAVInternalContextBase@23@@Z 00000001800297a8 f   libconcrt:VirtualProcessor.obj
 0001:00028884       ?ExerciseWith@ClaimTicket@VirtualProcessor@details@Concurrency@@QEAA_NPEAVInternalContextBase@34@@Z 0000000180029884 f   libconcrt:VirtualProcessor.obj
 0001:000288b8       ?GetCurrentSubAllocator@VirtualProcessor@details@Concurrency@@QEAAPEAVSubAllocator@23@XZ 00000001800298b8 f   libconcrt:VirtualProcessor.obj
 0001:000288e8       ?Initialize@VirtualProcessor@details@Concurrency@@MEAAXPEAVSchedulingNode@23@PEAUIVirtualProcessorRoot@3@@Z 00000001800298e8 f   libconcrt:VirtualProcessor.obj
 0001:00028b50       ?InterlockedClear@ReferenceCountedQuickBitSet@details@Concurrency@@QEAAII@Z 0000000180029b50 f i libconcrt:VirtualProcessor.obj
 0001:00028bec       ?InterlockedSet@ReferenceCountedQuickBitSet@details@Concurrency@@QEAAII@Z 0000000180029bec f i libconcrt:VirtualProcessor.obj
 0001:00028c88       ?MakeAvailable@VirtualProcessor@details@Concurrency@@IEAAXW4AvailabilityType@123@_N@Z 0000000180029c88 f   libconcrt:VirtualProcessor.obj
 0001:00028d08       ?MarkForRetirement@VirtualProcessor@details@Concurrency@@AEAAXXZ 0000000180029d08 f   libconcrt:VirtualProcessor.obj
 0001:00028d80       ?Oversubscribe@VirtualProcessor@details@Concurrency@@EEAAPEAV123@XZ 0000000180029d80 f   libconcrt:VirtualProcessor.obj
 0001:00028ddc       ?Pop@?$StructuredWorkStealingQueue@VInternalContextBase@details@Concurrency@@V_HyperNonReentrantLock@23@@details@Concurrency@@QEAAPEAVInternalContextBase@23@XZ 0000000180029ddc f i libconcrt:VirtualProcessor.obj
 0001:00028e88       ?Remove@?$ListArray@VVirtualProcessor@details@Concurrency@@@details@Concurrency@@QEAA_NPEAVVirtualProcessor@23@H_N@Z 0000000180029e88 f i libconcrt:VirtualProcessor.obj
 0001:00028fcc       ?Retire@VirtualProcessor@details@Concurrency@@MEAAXXZ 0000000180029fcc f   libconcrt:VirtualProcessor.obj
 0001:00029200       ?SafePoint@VirtualProcessor@details@Concurrency@@QEAA_NXZ 000000018002a200 f   libconcrt:VirtualProcessor.obj
 0001:00029214       ?StartupWorkerContext@VirtualProcessor@details@Concurrency@@EEAA_NPEAVScheduleGroupSegmentBase@23@PEAVInternalContextBase@23@@Z 000000018002a214 f   libconcrt:VirtualProcessor.obj
 0001:0002930c       ?StaticDelete@Segment@?$Mailbox@VInternalContextBase@details@Concurrency@@@details@Concurrency@@SAXPEAU1234@@Z 000000018002a30c f i libconcrt:VirtualProcessor.obj
 0001:0002930c       ?StaticDelete@Segment@?$Mailbox@V_UnrealizedChore@details@Concurrency@@@details@Concurrency@@SAXPEAU1234@@Z 000000018002a30c f i libconcrt:ContextBase.obj
 0001:00029340       ?ThrowVirtualProcessorEvent@VirtualProcessor@details@Concurrency@@CAXW4ConcRT_EventType@3@EKK@Z 000000018002a340 f   libconcrt:VirtualProcessor.obj
 0001:000293dc       ?ToInternalContext@VirtualProcessor@details@Concurrency@@MEAAPEAVInternalContextBase@23@PEAUIExecutionContext@3@@Z 000000018002a3dc f   libconcrt:VirtualProcessor.obj
 0001:000293e0       ?UpdateWorkState@VirtualProcessor@details@Concurrency@@QEAAX_N0@Z 000000018002a3e0 f   libconcrt:VirtualProcessor.obj
 0001:00029494       ?Wipe@QuickBitSet@details@Concurrency@@QEAAXXZ 000000018002a494 f i libconcrt:VirtualProcessor.obj
 0001:0002952c       ??0SchedulingNode@details@Concurrency@@QEAA@AEBVQuickBitSet@12@KPEAVSchedulingRing@12@@Z 000000018002a52c f   libconcrt:SchedulingNode.obj
 0001:00029604       ??1?$ListArray@VVirtualProcessor@details@Concurrency@@@details@Concurrency@@QEAA@XZ 000000018002a604 f i libconcrt:SchedulingNode.obj
 0001:00029750       ??1SchedulingNode@details@Concurrency@@QEAA@XZ 000000018002a750 f   libconcrt:SchedulingNode.obj
 0001:0002978c       ?Add@?$ListArray@VVirtualProcessor@details@Concurrency@@@details@Concurrency@@QEAAHPEAVVirtualProcessor@23@@Z 000000018002a78c f i libconcrt:SchedulingNode.obj
 0001:00029904       ?AddVirtualProcessor@SchedulingNode@details@Concurrency@@QEAAPEAVVirtualProcessor@23@PEAUIVirtualProcessorRoot@3@_N@Z 000000018002a904 f   libconcrt:SchedulingNode.obj
 0001:00029a74       ?DeferToAffineSearchers@Slot@?$Mailbox@VInternalContextBase@details@Concurrency@@@details@Concurrency@@QEBA_NXZ 000000018002aa74 f i libconcrt:SchedulingNode.obj
 0001:00029a74       ?DeferToAffineSearchers@Slot@?$Mailbox@V_UnrealizedChore@details@Concurrency@@@details@Concurrency@@QEBA_NXZ 000000018002aa74 f i libconcrt:WorkQueue.obj
 0001:00029b14       ?FindMatchingVirtualProcessor@SchedulingNode@details@Concurrency@@QEAAPEAVVirtualProcessor@23@PEAUIVirtualProcessorRoot@3@@Z 000000018002ab14 f   libconcrt:SchedulingNode.obj
 0001:00029bcc       ?FindVirtualProcessorByLocation@SchedulingNode@details@Concurrency@@QEAAPEAVVirtualProcessor@23@PEBVlocation@3@@Z 000000018002abcc f   libconcrt:SchedulingNode.obj
 0001:00029cac       ?FoundAvailableVirtualProcessor@SchedulingNode@details@Concurrency@@AEAA_NAEAVClaimTicket@VirtualProcessor@23@Vlocation@3@K@Z 000000018002acac f   libconcrt:SchedulingNode.obj
 0001:00029dbc       ?GetLocation@SchedulingNode@details@Concurrency@@QEAA?AVlocation@3@XZ 000000018002adbc f   libconcrt:SchedulingNode.obj
 0001:00029e20       ?UnlockedSteal@?$StructuredWorkStealingQueue@VInternalContextBase@details@Concurrency@@V_HyperNonReentrantLock@23@@details@Concurrency@@QEAAPEAVInternalContextBase@23@_N@Z 000000018002ae20 f i libconcrt:SchedulingNode.obj
 0001:00029f2c       ??0AllocatorBucket@details@Concurrency@@QEAA@XZ 000000018002af2c f   libconcrt:SubAllocator.obj
 0001:00029f4c       ??1AllocatorBucket@details@Concurrency@@QEAA@XZ 000000018002af4c f   libconcrt:SubAllocator.obj
 0001:00029f88       ?Alloc@AllocatorBucket@details@Concurrency@@QEAAPEATAllocationEntry@23@XZ 000000018002af88 f   libconcrt:SubAllocator.obj
 0001:00029fb0       ?Alloc@SubAllocator@details@Concurrency@@QEAAPEAX_K@Z 000000018002afb0 f   libconcrt:SubAllocator.obj
 0001:0002a030       ?Free@AllocatorBucket@details@Concurrency@@QEAA_NPEATAllocationEntry@23@@Z 000000018002b030 f   libconcrt:SubAllocator.obj
 0001:0002a060       ?Free@SubAllocator@details@Concurrency@@QEAAXPEAX@Z 000000018002b060 f   libconcrt:SubAllocator.obj
 0001:0002a0ac       ?GetBucketIndex@SubAllocator@details@Concurrency@@SAH_K@Z 000000018002b0ac f   libconcrt:SubAllocator.obj
 0001:0002a104       ?StaticAlloc@SubAllocator@details@Concurrency@@SAPEAX_K@Z 000000018002b104 f   libconcrt:SubAllocator.obj
 0001:0002a154       ??0InternalContextBase@details@Concurrency@@QEAA@PEAVSchedulerBase@12@@Z 000000018002b154 f   libconcrt:InternalContextBase.obj
 0001:0002a1e4       ??0context_self_unblock@Concurrency@@QEAA@AEBV01@@Z 000000018002b1e4 f i libconcrt:InternalContextBase.obj
 0001:0002a224       ??0context_unblock_unbalanced@Concurrency@@QEAA@AEBV01@@Z 000000018002b224 f i libconcrt:InternalContextBase.obj
 0001:0002a264       ??0invalid_oversubscribe_operation@Concurrency@@QEAA@AEBV01@@Z 000000018002b264 f i libconcrt:InternalContextBase.obj
 0001:0002a2a4       ??0nested_scheduler_missing_detach@Concurrency@@QEAA@AEBV01@@Z 000000018002b2a4 f i libconcrt:InternalContextBase.obj
 0001:0002a2e4       ??1InternalContextBase@details@Concurrency@@UEAA@XZ 000000018002b2e4 f   libconcrt:InternalContextBase.obj
 0001:0002a320       ??1ScopedCriticalRegion@ContextBase@details@Concurrency@@QEAA@XZ 000000018002b320 f i libconcrt:InternalContextBase.obj
 0001:0002a33c       ??_EInternalContextBase@details@Concurrency@@WBA@EAAPEAXI@Z 000000018002b33c f i libconcrt:InternalContextBase.obj
 0001:0002a348       ??_GInternalContextBase@details@Concurrency@@UEAAPEAXI@Z 000000018002b348 f i libconcrt:InternalContextBase.obj
 0001:0002a348       ??_EInternalContextBase@details@Concurrency@@UEAAPEAXI@Z 000000018002b348 f i libconcrt:InternalContextBase.obj
 0001:0002a37c       ?AddToRunnables@InternalContextBase@details@Concurrency@@MEAAXVlocation@3@@Z 000000018002b37c f   libconcrt:InternalContextBase.obj
 0001:0002a624       ?Alloc@InternalContextBase@details@Concurrency@@UEAAPEAX_K@Z 000000018002b624 f   libconcrt:InternalContextBase.obj
 0001:0002a694       ?Block@InternalContextBase@details@Concurrency@@UEAAXXZ 000000018002b694 f   libconcrt:InternalContextBase.obj
 0001:0002a86c       ?Cancel@InternalContextBase@details@Concurrency@@MEAAXXZ 000000018002b86c f   libconcrt:InternalContextBase.obj
 0001:0002a900       ?Cleanup@InternalContextBase@details@Concurrency@@IEAAXXZ 000000018002b900 f   libconcrt:InternalContextBase.obj
 0001:0002a924       ?CleanupDispatchedContextOnCancel@InternalContextBase@details@Concurrency@@IEAAXXZ 000000018002b924 f   libconcrt:InternalContextBase.obj
 0001:0002a94c       ?Dispatch@InternalContextBase@details@Concurrency@@UEAAXPEAUDispatchState@3@@Z 000000018002b94c f   libconcrt:InternalContextBase.obj
 0001:0002ab1c       ?ExecuteChoreInline@InternalContextBase@details@Concurrency@@IEAAXPEAVWorkItem@23@@Z 000000018002bb1c f   libconcrt:InternalContextBase.obj
 0001:0002ab74       ?ExecutedAssociatedChore@InternalContextBase@details@Concurrency@@IEAA_NXZ 000000018002bb74 f   libconcrt:InternalContextBase.obj
 0001:0002ac14       ?FindWorkForBlockingOrNesting@InternalContextBase@details@Concurrency@@AEAAPEAV123@AEA_N0@Z 000000018002bc14 f   libconcrt:InternalContextBase.obj
 0001:0002adb8       ?Free@InternalContextBase@details@Concurrency@@UEAAXPEAX@Z 000000018002bdb8 f   libconcrt:InternalContextBase.obj
 0001:0002adf8       ?GetAndResetOversubscribedVProc@InternalContextBase@details@Concurrency@@QEAAPEAVVirtualProcessor@23@PEAV423@@Z 000000018002bdf8 f   libconcrt:InternalContextBase.obj
 0001:0002ae20       ?GetId@InternalContextBase@details@Concurrency@@WBA@EBAIXZ 000000018002be20 f i libconcrt:InternalContextBase.obj
 0001:0002ae2c       ?GetProxy@InternalContextBase@details@Concurrency@@UEAAPEAUIThreadProxy@3@XZ 000000018002be2c f   libconcrt:InternalContextBase.obj
 0001:0002ae34       ?GetScheduler@InternalContextBase@details@Concurrency@@UEAAPEAUIScheduler@3@XZ 000000018002be34 f   libconcrt:InternalContextBase.obj
 0001:0002ae64       ?GetVirtualProcessorId@InternalContextBase@details@Concurrency@@UEBAIXZ 000000018002be64 f   libconcrt:InternalContextBase.obj
 0001:0002aeac       ?GrowAndPush@?$StructuredWorkStealingQueue@VInternalContextBase@details@Concurrency@@V_HyperNonReentrantLock@23@@details@Concurrency@@AEAAXPEAVInternalContextBase@23@VSlot@?$Mailbox@VInternalContextBase@details@Concurrency@@@23@@Z 000000018002beac f i libconcrt:InternalContextBase.obj
 0001:0002b06c       ?IsSynchronouslyBlocked@InternalContextBase@details@Concurrency@@UEBA_NXZ 000000018002c06c f i libconcrt:InternalContextBase.obj
 0001:0002b078       ?IsVirtualProcessorRetired@InternalContextBase@details@Concurrency@@IEAA_NXZ 000000018002c078 f   libconcrt:InternalContextBase.obj
 0001:0002b0e8       ?LeaveScheduler@InternalContextBase@details@Concurrency@@AEAAXXZ 000000018002c0e8 f   libconcrt:InternalContextBase.obj
 0001:0002b22c       ?Oversubscribe@InternalContextBase@details@Concurrency@@UEAAX_N@Z 000000018002c22c f   libconcrt:InternalContextBase.obj
 0001:0002b2e0       ?PrepareForUse@InternalContextBase@details@Concurrency@@QEAAXPEAVScheduleGroupSegmentBase@23@PEAU_Chore@23@_N@Z 000000018002c2e0 f   libconcrt:InternalContextBase.obj
 0001:0002b330       ?PrepareToRun@InternalContextBase@details@Concurrency@@MEAAXPEAVVirtualProcessor@23@@Z 000000018002c330 f i libconcrt:InternalContextBase.obj
 0001:0002b340       ?ReclaimVirtualProcessor@InternalContextBase@details@Concurrency@@IEAAXXZ 000000018002c340 f   libconcrt:InternalContextBase.obj
 0001:0002b3b4       ?RejoinScheduler@InternalContextBase@details@Concurrency@@AEAAXXZ 000000018002c3b4 f   libconcrt:InternalContextBase.obj
 0001:0002b3ec       ?RemoveFromUse@InternalContextBase@details@Concurrency@@QEAAXXZ 000000018002c3ec f   libconcrt:InternalContextBase.obj
 0001:0002b420       ?SetProxy@InternalContextBase@details@Concurrency@@UEAAXPEAUIThreadProxy@3@@Z 000000018002c420 f   libconcrt:InternalContextBase.obj
 0001:0002b458       ?SpinUntilBlocked@InternalContextBase@details@Concurrency@@IEAAXXZ 000000018002c458 f   libconcrt:InternalContextBase.obj
 0001:0002b490       ?SpinYield@InternalContextBase@details@Concurrency@@UEAAXXZ 000000018002c490 f   libconcrt:InternalContextBase.obj
 0001:0002b5b4       ?SwapScheduleGroupSegment@InternalContextBase@details@Concurrency@@QEAAXPEAVScheduleGroupSegmentBase@23@_N@Z 000000018002c5b4 f   libconcrt:InternalContextBase.obj
 0001:0002b674       ?SwitchOut@InternalContextBase@details@Concurrency@@IEAA_NW4ReasonForSwitch@123@@Z 000000018002c674 f   libconcrt:InternalContextBase.obj
 0001:0002b804       ?SwitchTo@InternalContextBase@details@Concurrency@@IEAAXPEAV123@W4ReasonForSwitch@123@@Z 000000018002c804 f   libconcrt:InternalContextBase.obj
 0001:0002b9ec       ?Unblock@InternalContextBase@details@Concurrency@@UEAAXXZ 000000018002c9ec f   libconcrt:InternalContextBase.obj
 0001:0002bb38       ?WaitForWork@InternalContextBase@details@Concurrency@@IEAAXXZ 000000018002cb38 f   libconcrt:InternalContextBase.obj
 0001:0002bc98       ?WorkWasFound@InternalContextBase@details@Concurrency@@IEAA_NPEAVWorkItem@23@@Z 000000018002cc98 f   libconcrt:InternalContextBase.obj
 0001:0002bd44       ?Yield@InternalContextBase@details@Concurrency@@UEAAXXZ 000000018002cd44 f   libconcrt:InternalContextBase.obj
 0001:0002bf60       ??0SchedulingRing@details@Concurrency@@QEAA@PEAVSchedulerBase@12@H@Z 000000018002cf60 f   libconcrt:SchedulingRing.obj
 0001:0002c020       ??1?$ListArray@VScheduleGroupSegmentBase@details@Concurrency@@@details@Concurrency@@QEAA@XZ 000000018002d020 f i libconcrt:SchedulingRing.obj
 0001:0002c16c       ??1SchedulingRing@details@Concurrency@@QEAA@XZ 000000018002d16c f   libconcrt:SchedulingRing.obj
 0001:0002c194       ?Activate@SchedulingRing@details@Concurrency@@QEAAXXZ 000000018002d194 f   libconcrt:SchedulingRing.obj
 0001:0002c1a0       ?CheckForDeletion@?$ListArray@VScheduleGroupSegmentBase@details@Concurrency@@@details@Concurrency@@AEAAXXZ 000000018002d1a0 f i libconcrt:SchedulingRing.obj
 0001:0002c220       ?CheckForDeletionBridge@?$ListArray@VScheduleGroupSegmentBase@details@Concurrency@@@details@Concurrency@@CAXPEAV123@@Z 000000018002d220 f i libconcrt:SchedulingRing.obj
 0001:0002c228       ?Remove@?$ListArray@VScheduleGroupSegmentBase@details@Concurrency@@@details@Concurrency@@QEAA_NPEAVScheduleGroupSegmentBase@23@H_N@Z 000000018002d228 f i libconcrt:SchedulingRing.obj
 0001:0002c36c       ?RemoveScheduleGroupSegment@SchedulingRing@details@Concurrency@@AEAAXPEAVScheduleGroupSegmentBase@23@@Z 000000018002d36c f   libconcrt:SchedulingRing.obj
 0001:0002c394       ??0?$ListArray@VExternalStatistics@details@Concurrency@@@details@Concurrency@@QEAA@PEAVSchedulerBase@12@HH@Z 000000018002d394 f i libconcrt:SchedulerBase.obj
 0001:0002c394       ??0?$ListArray@VScheduleGroupSegmentBase@details@Concurrency@@@details@Concurrency@@QEAA@PEAVSchedulerBase@12@HH@Z 000000018002d394 f i libconcrt:SchedulingRing.obj
 0001:0002c394       ??0?$ListArray@U?$ListArrayInlineLink@VWorkQueue@details@Concurrency@@@details@Concurrency@@@details@Concurrency@@QEAA@PEAVSchedulerBase@12@HH@Z 000000018002d394 f i libconcrt:ScheduleGroupBase.obj
 0001:0002c394       ??0?$ListArray@VScheduleGroupBase@details@Concurrency@@@details@Concurrency@@QEAA@PEAVSchedulerBase@12@HH@Z 000000018002d394 f i libconcrt:SchedulerBase.obj
 0001:0002c394       ??0?$ListArray@VVirtualProcessor@details@Concurrency@@@details@Concurrency@@QEAA@PEAVSchedulerBase@12@HH@Z 000000018002d394 f i libconcrt:SchedulingNode.obj
 0001:0002c394       ??0?$ListArray@VWorkQueue@details@Concurrency@@@details@Concurrency@@QEAA@PEAVSchedulerBase@12@HH@Z 000000018002d394 f i libconcrt:ScheduleGroupBase.obj
 0001:0002c4c4       ??0?$Mailbox@V_UnrealizedChore@details@Concurrency@@@details@Concurrency@@QEAA@PEAVSchedulerBase@12@AEBVQuickBitSet@12@_NI@Z 000000018002d4c4 f i libconcrt:ScheduleGroupBase.obj
 0001:0002c588       ??0ScheduleGroupBase@details@Concurrency@@QEAA@PEAVSchedulerBase@12@PEAVlocation@2@@Z 000000018002d588 f   libconcrt:ScheduleGroupBase.obj
 0001:0002c61c       ??0ScheduleGroupSegmentBase@details@Concurrency@@IEAA@PEAVScheduleGroupBase@12@PEAVSchedulingRing@12@PEAVlocation@2@@Z 000000018002d61c f   libconcrt:ScheduleGroupBase.obj
 0001:0002c728       ??0Segment@?$Mailbox@V_UnrealizedChore@details@Concurrency@@@details@Concurrency@@QEAA@PEAVSchedulerBase@23@AEBVQuickBitSet@23@II@Z 000000018002d728 f i libconcrt:ScheduleGroupBase.obj
 0001:0002c7b0       ??1?$ListArray@U?$ListArrayInlineLink@VWorkQueue@details@Concurrency@@@details@Concurrency@@@details@Concurrency@@QEAA@XZ 000000018002d7b0 f i libconcrt:ScheduleGroupBase.obj
 0001:0002c8a4       ??1?$ListArray@VWorkQueue@details@Concurrency@@@details@Concurrency@@QEAA@XZ 000000018002d8a4 f i libconcrt:ScheduleGroupBase.obj
 0001:0002ca60       ??1?$Mailbox@V_UnrealizedChore@details@Concurrency@@@details@Concurrency@@QEAA@XZ 000000018002da60 f i libconcrt:ScheduleGroupBase.obj
 0001:0002cad4       ??1ScheduleGroupSegmentBase@details@Concurrency@@UEAA@XZ 000000018002dad4 f   libconcrt:ScheduleGroupBase.obj
 0001:0002cb58       ??_EScheduleGroupSegmentBase@details@Concurrency@@UEAAPEAXI@Z 000000018002db58 f i libconcrt:ScheduleGroupBase.obj
 0001:0002cb58       ??_GScheduleGroupSegmentBase@details@Concurrency@@UEAAPEAXI@Z 000000018002db58 f i libconcrt:ScheduleGroupBase.obj
 0001:0002cb8c       ?Add@?$ListArray@U?$ListArrayInlineLink@VWorkQueue@details@Concurrency@@@details@Concurrency@@@details@Concurrency@@QEAAHPEAU?$ListArrayInlineLink@VWorkQueue@details@Concurrency@@@23@@Z 000000018002db8c f i libconcrt:ScheduleGroupBase.obj
 0001:0002cd00       ?Add@?$ListArray@VExternalStatistics@details@Concurrency@@@details@Concurrency@@QEAAHPEAVExternalStatistics@23@@Z 000000018002dd00 f i libconcrt:ScheduleGroupBase.obj
 0001:0002ce74       ?Add@?$ListArray@VScheduleGroupSegmentBase@details@Concurrency@@@details@Concurrency@@QEAAHPEAVScheduleGroupSegmentBase@23@@Z 000000018002de74 f i libconcrt:ScheduleGroupBase.obj
 0001:0002cfec       ?AddRunnableContext@ScheduleGroupSegmentBase@details@Concurrency@@IEAAXPEAVInternalContextBase@23@Vlocation@3@@Z 000000018002dfec f   libconcrt:ScheduleGroupBase.obj
 0001:0002d180       ?CheckForDeletionBridge@?$ListArray@U?$ListArrayInlineLink@VWorkQueue@details@Concurrency@@@details@Concurrency@@@details@Concurrency@@CAXPEAV123@@Z 000000018002e180 f i libconcrt:ScheduleGroupBase.obj
 0001:0002d1d4       ?CreateSegment@ScheduleGroupBase@details@Concurrency@@IEAAPEAVScheduleGroupSegmentBase@23@PEAVlocation@3@PEAVSchedulingRing@23@@Z 000000018002e1d4 f   libconcrt:ScheduleGroupBase.obj
 0001:0002d2bc       ?DemandInitialize@?$Mailbox@V_UnrealizedChore@details@Concurrency@@@details@Concurrency@@AEAAXXZ 000000018002e2bc f i libconcrt:ScheduleGroupBase.obj
 0001:0002d34c       ?Dequeue@?$Mailbox@V_UnrealizedChore@details@Concurrency@@@details@Concurrency@@QEAA_NPEAPEAV_UnrealizedChore@23@@Z 000000018002e34c f i libconcrt:ScheduleGroupBase.obj
 0001:0002d444       ?DetachActiveWorkQueue@ScheduleGroupSegmentBase@details@Concurrency@@IEAAXPEAVWorkQueue@23@@Z 000000018002e444 f   libconcrt:ScheduleGroupBase.obj
 0001:0002d4d4       ?FindSegment@ScheduleGroupBase@details@Concurrency@@MEAAPEAVScheduleGroupSegmentBase@23@PEAVlocation@3@PEAVSchedulingRing@23@@Z 000000018002e4d4 f   libconcrt:ScheduleGroupBase.obj
 0001:0002d54c       ?GetDetachedWorkQueue@ScheduleGroupSegmentBase@details@Concurrency@@IEAAPEAVWorkQueue@23@XZ 000000018002e54c f   libconcrt:ScheduleGroupBase.obj
 0001:0002d660       ?GetInternalContext@ScheduleGroupSegmentBase@details@Concurrency@@IEAAPEAVInternalContextBase@23@PEAU_Chore@23@_N@Z 000000018002e660 f   libconcrt:ScheduleGroupBase.obj
 0001:0002d6c0       ?GetRealizedChore@ScheduleGroupSegmentBase@details@Concurrency@@IEAAPEAVRealizedChore@23@XZ 000000018002e6c0 f   libconcrt:ScheduleGroupBase.obj
 0001:0002d72c       ?HasRealizedChores@ScheduleGroupSegmentBase@details@Concurrency@@IEBA_NXZ 000000018002e72c f   libconcrt:ScheduleGroupBase.obj
 0001:0002d738       ?HasUnrealizedChores@ScheduleGroupSegmentBase@details@Concurrency@@IEAA_NXZ 000000018002e738 f   libconcrt:ScheduleGroupBase.obj
 0001:0002d74c       ?Initialize@ScheduleGroupBase@details@Concurrency@@QEAAXPEAVlocation@3@@Z 000000018002e74c f   libconcrt:ScheduleGroupBase.obj
 0001:0002d788       ?Initialize@ScheduleGroupSegmentBase@details@Concurrency@@IEAAXPEAVScheduleGroupBase@23@PEAVSchedulingRing@23@PEAVlocation@3@@Z 000000018002e788 f   libconcrt:ScheduleGroupBase.obj
 0001:0002d8a8       ?LocateMailboxSegment@?$Mailbox@V_UnrealizedChore@details@Concurrency@@@details@Concurrency@@AEAAPEAUSegment@123@I_N@Z 000000018002e8a8 f i libconcrt:ScheduleGroupBase.obj
 0001:0002d960       ?LocateSegment@ScheduleGroupBase@details@Concurrency@@UEAAPEAVScheduleGroupSegmentBase@23@PEAVlocation@3@_N@Z 000000018002e960 f   libconcrt:ScheduleGroupBase.obj
 0001:0002dae4       ?LocateUnrealizedChores@ScheduleGroupSegmentBase@details@Concurrency@@IEAAPEAVWorkQueue@23@XZ 000000018002eae4 f   libconcrt:ScheduleGroupBase.obj
 0001:0002dbe4       ?RedetachQueue@ScheduleGroupSegmentBase@details@Concurrency@@QEAAXPEAVWorkQueue@23@@Z 000000018002ebe4 f   libconcrt:ScheduleGroupBase.obj
 0001:0002dbf4       ?ReleaseInternalContext@ScheduleGroupSegmentBase@details@Concurrency@@IEAAXPEAVInternalContextBase@23@@Z 000000018002ebf4 f   libconcrt:ScheduleGroupBase.obj
 0001:0002dc2c       ?Remove@?$ListArray@U?$ListArrayInlineLink@VWorkQueue@details@Concurrency@@@details@Concurrency@@@details@Concurrency@@QEAA_NPEAU?$ListArrayInlineLink@VWorkQueue@details@Concurrency@@@23@H_N@Z 000000018002ec2c f i libconcrt:ScheduleGroupBase.obj
 0001:0002dd70       ?Remove@ScheduleGroupSegmentBase@details@Concurrency@@IEAAXXZ 000000018002ed70 f   libconcrt:ScheduleGroupBase.obj
 0001:0002dda4       ?RemoveSegments@ScheduleGroupBase@details@Concurrency@@MEAAXXZ 000000018002eda4 f   libconcrt:ScheduleGroupBase.obj
 0001:0002de00       ?RetireDetachedQueue@ScheduleGroupSegmentBase@details@Concurrency@@QEAAXPEAVWorkQueue@23@@Z 000000018002ee00 f   libconcrt:ScheduleGroupBase.obj
 0001:0002de68       ?SafelyDeleteDetachedWorkQueue@ScheduleGroupSegmentBase@details@Concurrency@@IEAA_NPEAVWorkQueue@23@@Z 000000018002ee68 f   libconcrt:ScheduleGroupBase.obj
 0001:0002dec8       ?ScheduleTask@ScheduleGroupBase@details@Concurrency@@QEAAXP6AXPEAX@Z0AEAVlocation@3@@Z 000000018002eec8 f   libconcrt:ScheduleGroupBase.obj
 0001:0002df30       ?ScheduleTask@ScheduleGroupBase@details@Concurrency@@UEAAXP6AXPEAX@Z0@Z 000000018002ef30 f   libconcrt:ScheduleGroupBase.obj
 0001:0002df98       ?ScheduleTask@ScheduleGroupSegmentBase@details@Concurrency@@QEAAXP6AXPEAX@Z0@Z 000000018002ef98 f   libconcrt:ScheduleGroupBase.obj
 0001:0002e158       ?StealUnrealizedChore@ScheduleGroupSegmentBase@details@Concurrency@@IEAAPEAV_UnrealizedChore@23@_N@Z 000000018002f158 f   libconcrt:ScheduleGroupBase.obj
 0001:0002e4f0       ??IQuickBitSet@details@Concurrency@@QEBA?AV012@AEBV012@@Z 000000018002f4f0 f i libconcrt:CacheLocalScheduleGroup.obj
 0001:0002e598       ?AddToRunnablesCollection@CacheLocalScheduleGroupSegment@details@Concurrency@@EEAAXPEAVInternalContextBase@23@@Z 000000018002f598 f   libconcrt:CacheLocalScheduleGroup.obj
 0001:0002e5fc       ?Enqueue@?$Mailbox@V_UnrealizedChore@details@Concurrency@@@details@Concurrency@@QEAA?AVSlot@123@PEAV_UnrealizedChore@23@@Z 000000018002f5fc f i libconcrt:CacheLocalScheduleGroup.obj
 0001:0002e68c       ?MailChore@CacheLocalScheduleGroup@details@Concurrency@@UEAA?AVSlot@?$Mailbox@V_UnrealizedChore@details@Concurrency@@@23@PEAV_UnrealizedChore@23@PEAVlocation@3@PEAPEAVScheduleGroupSegmentBase@23@@Z 000000018002f68c f   libconcrt:CacheLocalScheduleGroup.obj
 0001:0002e700       ?NotifyAffinitizedWork@CacheLocalScheduleGroupSegment@details@Concurrency@@UEAAXXZ 000000018002f700 f   libconcrt:CacheLocalScheduleGroup.obj
 0001:0002e764       ?PostAffinityMessage@SchedulerBase@details@Concurrency@@QEAAXAEBVQuickBitSet@23@@Z 000000018002f764 f i libconcrt:CacheLocalScheduleGroup.obj
 0001:0002e80c       ?AddToRunnablesCollection@FairScheduleGroupSegment@details@Concurrency@@EEAAXPEAVInternalContextBase@23@@Z 000000018002f80c f   libconcrt:FairScheduleGroup.obj
 0001:0002e870       ?FindSegment@FairScheduleGroup@details@Concurrency@@MEAAPEAVScheduleGroupSegmentBase@23@PEAVlocation@3@PEAVSchedulingRing@23@@Z 000000018002f870 f   libconcrt:FairScheduleGroup.obj
 0001:0002e8a4       ?LocateSegment@FairScheduleGroup@details@Concurrency@@UEAAPEAVScheduleGroupSegmentBase@23@PEAVlocation@3@_N@Z 000000018002f8a4 f   libconcrt:FairScheduleGroup.obj
 0001:0002e944       ??0ExternalContextBase@details@Concurrency@@QEAA@PEAVSchedulerBase@12@_N@Z 000000018002f944 f   libconcrt:ExternalContextBase.obj
 0001:0002ea00       ??1ExternalContextBase@details@Concurrency@@UEAA@XZ 000000018002fa00 f   libconcrt:ExternalContextBase.obj
 0001:0002ea30       ??_GExternalContextBase@details@Concurrency@@UEAAPEAXI@Z 000000018002fa30 f i libconcrt:ExternalContextBase.obj
 0001:0002ea30       ??_EExternalContextBase@details@Concurrency@@UEAAPEAXI@Z 000000018002fa30 f i libconcrt:ExternalContextBase.obj
 0001:0002ea64       ?Alloc@ExternalContextBase@details@Concurrency@@UEAAPEAX_K@Z 000000018002fa64 f   libconcrt:ExternalContextBase.obj
 0001:0002eab8       ?Block@ExternalContextBase@details@Concurrency@@UEAAXXZ 000000018002fab8 f   libconcrt:ExternalContextBase.obj
 0001:0002eb4c       ?Cleanup@ExternalContextBase@details@Concurrency@@AEAAXXZ 000000018002fb4c f   libconcrt:ExternalContextBase.obj
 0001:0002ebb4       ?Free@ExternalContextBase@details@Concurrency@@UEAAXPEAX@Z 000000018002fbb4 f   libconcrt:ExternalContextBase.obj
 0001:0002ec08       ?GetVirtualProcessorId@ExternalContextBase@details@Concurrency@@UEBAIXZ 000000018002fc08 f i libconcrt:ExternalContextBase.obj
 0001:0002ec0c       ?ImplicitDetachHandler@ExternalContextBase@details@Concurrency@@CAXPEAU_TP_CALLBACK_INSTANCE@@PEAXPEAU_TP_WAIT@@K@Z 000000018002fc0c f   libconcrt:ExternalContextBase.obj
 0001:0002ec40       ?ImplicitDetachHandlerXP@ExternalContextBase@details@Concurrency@@CAXPEAXE@Z 000000018002fc40 f   libconcrt:ExternalContextBase.obj
 0001:0002ec6c       ?IsSynchronouslyBlocked@ExternalContextBase@details@Concurrency@@UEBA_NXZ 000000018002fc6c f i libconcrt:ExternalContextBase.obj
 0001:0002ec78       ?Oversubscribe@ExternalContextBase@details@Concurrency@@UEAAX_N@Z 000000018002fc78 f   libconcrt:ExternalContextBase.obj
 0001:0002ecb4       ?PrepareForUse@ExternalContextBase@details@Concurrency@@QEAAX_N@Z 000000018002fcb4 f   libconcrt:ExternalContextBase.obj
 0001:0002ede4       ?RemoveFromUse@ExternalContextBase@details@Concurrency@@QEAAXXZ 000000018002fde4 f   libconcrt:ExternalContextBase.obj
 0001:0002ee14       ?SpinYield@ExternalContextBase@details@Concurrency@@UEAAXXZ 000000018002fe14 f i libconcrt:ExternalContextBase.obj
 0001:0002ee44       ?Unblock@ExternalContextBase@details@Concurrency@@UEAAXXZ 000000018002fe44 f   libconcrt:ExternalContextBase.obj
 0001:0002ef1c       ?Yield@ExternalContextBase@details@Concurrency@@UEAAXXZ 000000018002ff1c f   libconcrt:ExternalContextBase.obj
 0001:0002ef84       ??0ThreadScheduler@details@Concurrency@@QEAA@AEBVSchedulerPolicy@2@@Z 000000018002ff84 f   libconcrt:ThreadScheduler.obj
 0001:0002efc8       ??_EThreadInternalContext@details@Concurrency@@WBA@EAAPEAXI@Z 000000018002ffc8 f i libconcrt:ThreadScheduler.obj
 0001:0002efd4       ??_EThreadScheduler@details@Concurrency@@WBA@EAAPEAXI@Z 000000018002ffd4 f i libconcrt:ThreadScheduler.obj
 0001:0002efe0       ??_GThreadInternalContext@details@Concurrency@@UEAAPEAXI@Z 000000018002ffe0 f i libconcrt:ThreadScheduler.obj
 0001:0002efe0       ??_EThreadInternalContext@details@Concurrency@@UEAAPEAXI@Z 000000018002ffe0 f i libconcrt:ThreadScheduler.obj
 0001:0002f02c       ??_EThreadScheduler@details@Concurrency@@UEAAPEAXI@Z 000000018003002c f i libconcrt:ThreadScheduler.obj
 0001:0002f02c       ??_GThreadScheduler@details@Concurrency@@UEAAPEAXI@Z 000000018003002c f i libconcrt:ThreadScheduler.obj
 0001:0002f078       ?AddVirtualProcessors@ThreadScheduler@details@Concurrency@@UEAAXPEAPEAUIVirtualProcessorRoot@3@I@Z 0000000180030078 f i libconcrt:ThreadScheduler.obj
 0001:0002f084       ?Create@ThreadScheduler@details@Concurrency@@SAPEAV123@AEBVSchedulerPolicy@3@@Z 0000000180030084 f   libconcrt:ThreadScheduler.obj
 0001:0002f0c0       ?CreateInternalContext@ThreadScheduler@details@Concurrency@@MEAAPEAVInternalContextBase@23@XZ 00000001800300c0 f   libconcrt:ThreadScheduler.obj
 0001:0002f12c       ?CreateVirtualProcessor@ThreadScheduler@details@Concurrency@@UEAAPEAVVirtualProcessor@23@PEAVSchedulingNode@23@PEAUIVirtualProcessorRoot@3@@Z 000000018003012c f   libconcrt:ThreadScheduler.obj
 0001:0002f178       ?GetIScheduler@ThreadScheduler@details@Concurrency@@UEAAPEAUIScheduler@3@XZ 0000000180030178 f i libconcrt:ThreadScheduler.obj
 0001:0002f180       ?GetId@ThreadScheduler@details@Concurrency@@UEBAIXZ 0000000180030180 f i libconcrt:ThreadScheduler.obj
 0001:0002f1b0       ?GetPolicy@ThreadScheduler@details@Concurrency@@UEBA?AVSchedulerPolicy@3@XZ 00000001800301b0 f i libconcrt:ThreadScheduler.obj
 0001:0002f1d0       ?GetPolicy@ThreadScheduler@details@Concurrency@@WBA@EBA?AVSchedulerPolicy@3@XZ 00000001800301d0 f i libconcrt:ThreadScheduler.obj
 0001:0002f1dc       ?RemoveVirtualProcessors@ThreadScheduler@details@Concurrency@@UEAAXPEAPEAUIVirtualProcessorRoot@3@I@Z 00000001800301dc f i libconcrt:ThreadScheduler.obj
 0001:0002f1e8       ?Statistics@ThreadScheduler@details@Concurrency@@UEAAXPEAI00@Z 00000001800301e8 f i libconcrt:ThreadScheduler.obj
 0001:0002f1f4       ?OneShotStaticConstruction@UMSThreadScheduler@details@Concurrency@@SAXXZ 00000001800301f4 f   libconcrt:UMSThreadScheduler.obj
 0001:0002f240       ?OneShotStaticDestruction@UMSThreadScheduler@details@Concurrency@@SAXXZ 0000000180030240 f   libconcrt:UMSThreadScheduler.obj
 0001:0002f25c       ??0exception_ptr@std@@QEAA@AEBV01@@Z 000000018003025c f i libconcrt:TaskCollectionBase.obj
 0001:0002f274       ?_Current_exception@exception_ptr@std@@SA?AV12@XZ 0000000180030274 f i libconcrt:TaskCollectionBase.obj
 0001:0002f294       ?_FinishCancelState@_TaskCollectionBase@details@Concurrency@@IEAAX_K@Z 0000000180030294 f   libconcrt:TaskCollectionBase.obj
 0001:0002f2cc       ?_GetTokenState@_TaskCollectionBase@details@Concurrency@@QEAAPEAV_CancellationTokenState@23@PEAPEAV_CancellationTokenRegistration@23@@Z 00000001800302cc f   libconcrt:TaskCollectionBase.obj
 0001:0002f2f8       ?_MarkCancellation@_TaskCollectionBase@details@Concurrency@@IEAA_NXZ 00000001800302f8 f   libconcrt:TaskCollectionBase.obj
 0001:0002f318       ?_RaisedException@_TaskCollectionBase@details@Concurrency@@IEAAXXZ 0000000180030318 f   libconcrt:TaskCollectionBase.obj
 0001:0002f398       ?_RethrowException@_TaskCollectionBase@details@Concurrency@@IEAAXXZ 0000000180030398 f   libconcrt:TaskCollectionBase.obj
 0001:0002f420       ?_RethrowException@exception_ptr@std@@QEBAXXZ 0000000180030420 f i libconcrt:TaskCollectionBase.obj
 0001:0002f42c       ?current_exception@std@@YA?AVexception_ptr@1@XZ 000000018003042c f i libconcrt:TaskCollectionBase.obj
 0001:0002f444       ?rethrow_exception@std@@YAXVexception_ptr@1@@Z 0000000180030444 f i libconcrt:TaskCollectionBase.obj
 0001:0002f45c       ??0?$WorkStealingQueue@V_UnrealizedChore@details@Concurrency@@V_CriticalNonReentrantLock@23@@details@Concurrency@@QEAA@PEAV_CriticalNonReentrantLock@12@@Z 000000018003045c f i libconcrt:WorkQueue.obj
 0001:0002f4d4       ??0WorkQueue@details@Concurrency@@QEAA@XZ 00000001800304d4 f   libconcrt:WorkQueue.obj
 0001:0002f54c       ?RedetachFromScheduleGroupAtSafePoint@WorkQueue@details@Concurrency@@QEAAXPEAVScheduleGroupSegmentBase@23@@Z 000000018003054c f   libconcrt:WorkQueue.obj
 0001:0002f574       ?Reinitialize@WorkQueue@details@Concurrency@@AEAAXXZ 0000000180030574 f   libconcrt:WorkQueue.obj
 0001:0002f5e0       ?RetireAtSafePoint@WorkQueue@details@Concurrency@@QEAAXPEAVScheduleGroupSegmentBase@23@@Z 00000001800305e0 f   libconcrt:WorkQueue.obj
 0001:0002f608       ?StaticRedetachFromScheduleGroup@WorkQueue@details@Concurrency@@CAXPEAV123@@Z 0000000180030608 f   libconcrt:WorkQueue.obj
 0001:0002f618       ?StaticRetire@WorkQueue@details@Concurrency@@CAXPEAV123@@Z 0000000180030618 f   libconcrt:WorkQueue.obj
 0001:0002f628       ?Steal@WorkQueue@details@Concurrency@@QEAAPEAV_UnrealizedChore@23@_N@Z 0000000180030628 f   libconcrt:WorkQueue.obj
 0001:0002f684       ?Sweep@?$WorkStealingQueue@V_UnrealizedChore@details@Concurrency@@V_CriticalNonReentrantLock@23@@details@Concurrency@@QEAAXP6A_NPEAV_UnrealizedChore@23@PEAX@Z12@Z 0000000180030684 f i libconcrt:WorkQueue.obj
 0001:0002f75c       ?SweepUnstructured@WorkQueue@details@Concurrency@@QEAAXP6A_NPEAV_UnrealizedChore@23@PEAX@Z12@Z 000000018003075c f   libconcrt:WorkQueue.obj
 0001:0002f768       ?TryToSteal@WorkQueue@details@Concurrency@@QEAAPEAV_UnrealizedChore@23@_NAEA_N@Z 0000000180030768 f   libconcrt:WorkQueue.obj
 0001:0002f7d4       ?UnlockedSteal@?$StructuredWorkStealingQueue@V_UnrealizedChore@details@Concurrency@@V_CriticalNonReentrantLock@23@@details@Concurrency@@QEAAPEAV_UnrealizedChore@23@_N@Z 00000001800307d4 f i libconcrt:WorkQueue.obj
 0001:0002f8e0       ?UnlockedSteal@?$WorkStealingQueue@V_UnrealizedChore@details@Concurrency@@V_CriticalNonReentrantLock@23@@details@Concurrency@@QEAAPEAV_UnrealizedChore@23@_N0@Z 00000001800308e0 f i libconcrt:WorkQueue.obj
 0001:0002fa04       ?UnlockedSteal@WorkQueue@details@Concurrency@@AEAAPEAV_UnrealizedChore@23@_N@Z 0000000180030a04 f   libconcrt:WorkQueue.obj
 0001:0002fb2c       ?_CancelViaToken@_UnrealizedChore@details@Concurrency@@CAXPEAVContextBase@23@@Z 0000000180030b2c f   libconcrt:Chores.obj
 0001:0002fb5c       ?_InternalFree@_UnrealizedChore@details@Concurrency@@CAXPEAV123@@Z 0000000180030b5c f   libconcrt:Chores.obj
 0001:0002fb90       ?_PrepareSteal@_UnrealizedChore@details@Concurrency@@QEAAXPEAVContextBase@23@@Z 0000000180030b90 f   libconcrt:Chores.obj
 0001:0002fba8       ?_PrepareStealStructured@_UnrealizedChore@details@Concurrency@@AEAAXPEAVContextBase@23@@Z 0000000180030ba8 f   libconcrt:Chores.obj
 0001:0002fbe0       ?_PrepareStealUnstructured@_UnrealizedChore@details@Concurrency@@AEAAXPEAVContextBase@23@@Z 0000000180030be0 f   libconcrt:Chores.obj
 0001:0002fc74       ?_SetDetached@_UnrealizedChore@details@Concurrency@@QEAAX_N@Z 0000000180030c74 f   libconcrt:Chores.obj
 0001:0002fc78       ?_StructuredChoreWrapper@_UnrealizedChore@details@Concurrency@@CAXPEAV123@@Z 0000000180030c78 f   libconcrt:Chores.obj
 0001:0002fe1c       ??0VirtualProcessorRoot@details@Concurrency@@QEAA@PEAVSchedulerProxy@12@PEAUSchedulerNode@12@I@Z 0000000180030e1c f   libconcrt:VirtualProcessorRoot.obj
 0001:0002fe74       ??_EVirtualProcessorRoot@details@Concurrency@@UEAAPEAXI@Z 0000000180030e74 f i libconcrt:VirtualProcessorRoot.obj
 0001:0002fe74       ??_GVirtualProcessorRoot@details@Concurrency@@UEAAPEAXI@Z 0000000180030e74 f i libconcrt:VirtualProcessorRoot.obj
 0001:0002feac       ?CurrentSubscriptionLevel@VirtualProcessorRoot@details@Concurrency@@UEBAIXZ 0000000180030eac f i libconcrt:VirtualProcessorRoot.obj
 0001:0002feb8       ?GetExecutionResourceId@VirtualProcessorRoot@details@Concurrency@@UEBAIXZ 0000000180030eb8 f i libconcrt:VirtualProcessorRoot.obj
 0001:0002febc       ?GetId@VirtualProcessorRoot@details@Concurrency@@UEBAIXZ 0000000180030ebc f i libconcrt:VirtualProcessorRoot.obj
 0001:0002fec0       ?GetNodeId@VirtualProcessorRoot@details@Concurrency@@UEBAIXZ 0000000180030ec0 f i libconcrt:VirtualProcessorRoot.obj
 0001:0002fec4       ?Remove@VirtualProcessorRoot@details@Concurrency@@UEAAXPEAUIScheduler@3@@Z 0000000180030ec4 f   libconcrt:VirtualProcessorRoot.obj
 0001:0002ff34       ?ResetSubscriptionLevel@VirtualProcessorRoot@details@Concurrency@@QEAAXXZ 0000000180030f34 f   libconcrt:VirtualProcessorRoot.obj
 0001:0002ff58       ?Subscribe@VirtualProcessorRoot@details@Concurrency@@QEAAXXZ 0000000180030f58 f   libconcrt:VirtualProcessorRoot.obj
 0001:0002ff68       ?Unsubscribe@VirtualProcessorRoot@details@Concurrency@@QEAAXXZ 0000000180030f68 f   libconcrt:VirtualProcessorRoot.obj
 0001:0002ff78       ??0FreeVirtualProcessorRoot@details@Concurrency@@QEAA@PEAVSchedulerProxy@12@PEAUSchedulerNode@12@I@Z 0000000180030f78 f   libconcrt:FreeVirtualProcessorRoot.obj
 0001:0002ffb0       ??_GFreeVirtualProcessorRoot@details@Concurrency@@UEAAPEAXI@Z 0000000180030fb0 f i libconcrt:FreeVirtualProcessorRoot.obj
 0001:0002ffb0       ??_EFreeVirtualProcessorRoot@details@Concurrency@@UEAAPEAXI@Z 0000000180030fb0 f i libconcrt:FreeVirtualProcessorRoot.obj
 0001:0002ffe8       ?Activate@FreeVirtualProcessorRoot@details@Concurrency@@UEAAXPEAUIExecutionContext@3@@Z 0000000180030fe8 f   libconcrt:FreeVirtualProcessorRoot.obj
 0001:00030128       ?Affinitize@FreeVirtualProcessorRoot@details@Concurrency@@QEAAXPEAVFreeThreadProxy@23@@Z 0000000180031128 f   libconcrt:FreeVirtualProcessorRoot.obj
 0001:000301dc       ?Deactivate@FreeVirtualProcessorRoot@details@Concurrency@@UEAA_NPEAUIExecutionContext@3@@Z 00000001800311dc f   libconcrt:FreeVirtualProcessorRoot.obj
 0001:00030308       ?DeleteThis@FreeVirtualProcessorRoot@details@Concurrency@@UEAAXXZ 0000000180031308 f   libconcrt:FreeVirtualProcessorRoot.obj
 0001:000303b0       ?EnsureAllTasksVisible@FreeVirtualProcessorRoot@details@Concurrency@@UEAAXPEAUIExecutionContext@3@@Z 00000001800313b0 f   libconcrt:FreeVirtualProcessorRoot.obj
 0001:00030470       ?ResetOnIdle@FreeVirtualProcessorRoot@details@Concurrency@@QEAAXW4SwitchingProxyState@3@@Z 0000000180031470 f   libconcrt:FreeVirtualProcessorRoot.obj
 0001:00030540       ?AssociateExecutionContext@FreeThreadProxy@details@Concurrency@@QEAAXPEAUIExecutionContext@3@@Z 0000000180031540 f   libconcrt:FreeThreadProxy.obj
 0001:00030584       ?Dispatch@FreeThreadProxy@details@Concurrency@@EEAAXXZ 0000000180031584 f   libconcrt:FreeThreadProxy.obj
 0001:00030664       ?ReturnIdleProxy@FreeThreadProxy@details@Concurrency@@QEAAXXZ 0000000180031664 f   libconcrt:FreeThreadProxy.obj
 0001:000306ac       ?SwitchOut@FreeThreadProxy@details@Concurrency@@UEAAXW4SwitchingProxyState@3@@Z 00000001800316ac f   libconcrt:FreeThreadProxy.obj
 0001:0003070c       ?SwitchTo@FreeThreadProxy@details@Concurrency@@UEAAXPEAUIExecutionContext@3@W4SwitchingProxyState@3@@Z 000000018003170c f   libconcrt:FreeThreadProxy.obj
 0001:000307fc       ??0ThreadProxy@details@Concurrency@@QEAA@PEAUIThreadProxyFactory@12@I@Z 00000001800317fc f   libconcrt:ThreadProxy.obj
 0001:00030904       ??0scheduler_worker_creation_error@Concurrency@@QEAA@AEBV01@@Z 0000000180031904 f i libconcrt:ThreadProxy.obj
 0001:0003095c       ??1ThreadProxy@details@Concurrency@@UEAA@XZ 000000018003195c f   libconcrt:ThreadProxy.obj
 0001:000309bc       ??_GThreadProxy@details@Concurrency@@UEAAPEAXI@Z 00000001800319bc f i libconcrt:ThreadProxy.obj
 0001:000309bc       ??_EThreadProxy@details@Concurrency@@UEAAPEAXI@Z 00000001800319bc f i libconcrt:ThreadProxy.obj
 0001:000309f0       ?Cancel@ThreadProxy@details@Concurrency@@QEAAXXZ 00000001800319f0 f   libconcrt:ThreadProxy.obj
 0001:00030a04       ?GetId@ThreadProxy@details@Concurrency@@UEBAIXZ 0000000180031a04 f   libconcrt:ThreadProxy.obj
 0001:00030a08       ?ResumeExecution@ThreadProxy@details@Concurrency@@QEAAXXZ 0000000180031a08 f   libconcrt:ThreadProxy.obj
 0001:00030a14       ?SetPriority@ThreadProxy@details@Concurrency@@QEAAXH@Z 0000000180031a14 f   libconcrt:ThreadProxy.obj
 0001:00030a20       ?SpinUntilBlocked@ThreadProxy@details@Concurrency@@QEAAXXZ 0000000180031a20 f   libconcrt:ThreadProxy.obj
 0001:00030a58       ?SuspendExecution@ThreadProxy@details@Concurrency@@QEAAXXZ 0000000180031a58 f   libconcrt:ThreadProxy.obj
 0001:00030a84       ?ThreadProxyMain@ThreadProxy@details@Concurrency@@CAKPEAX@Z 0000000180031a84 f   libconcrt:ThreadProxy.obj
 0001:00030ae8       ??0location@Concurrency@@QEAA@W4_Type@01@IIPEAX@Z 0000000180031ae8 f   libconcrt:location.obj
 0001:00030b0c       ?Exists@?$Hash@II@details@Concurrency@@QEAA_NAEBI@Z 0000000180031b0c f i libconcrt:location.obj
 0001:00030b80       ?_FastNodeIntersects@location@Concurrency@@QEBA_NAEBV12@@Z 0000000180031b80 f   libconcrt:location.obj
 0001:00030be0       ?_FastVPIntersects@location@Concurrency@@QEBA_NAEBV12@@Z 0000000180031be0 f   libconcrt:location.obj
 0001:00030c2c       ??0WorkItem@details@Concurrency@@QEAA@PEAVInternalContextBase@12@@Z 0000000180031c2c f   libconcrt:SearchAlgorithms.obj
 0001:00030c64       ?Bind@WorkItem@details@Concurrency@@QEAAPEAVInternalContextBase@23@XZ 0000000180031c64 f   libconcrt:SearchAlgorithms.obj
 0001:00030cc0       ?BindTo@WorkItem@details@Concurrency@@QEAAXPEAVInternalContextBase@23@@Z 0000000180031cc0 f   libconcrt:SearchAlgorithms.obj
 0001:00030d08       ?GetLocalRunnable@WorkSearchContext@details@Concurrency@@AEAA_NPEAVWorkItem@23@PEAVVirtualProcessor@23@_N@Z 0000000180031d08 f   libconcrt:SearchAlgorithms.obj
 0001:00030dc4       ?GetPseudoRRAffineScheduleGroupSegment@SchedulingRing@details@Concurrency@@QEAAPEAVScheduleGroupSegmentBase@23@PEAH@Z 0000000180031dc4 f i libconcrt:SearchAlgorithms.obj
 0001:00030e30       ?GetPseudoRRNonAffineScheduleGroupSegment@SchedulingRing@details@Concurrency@@QEAAPEAVScheduleGroupSegmentBase@23@PEAH@Z 0000000180031e30 f i libconcrt:SearchAlgorithms.obj
 0001:00030ea0       ?GetRealizedChore@WorkSearchContext@details@Concurrency@@AEAA_NPEAVWorkItem@23@PEAVScheduleGroupSegmentBase@23@_N@Z 0000000180031ea0 f   libconcrt:SearchAlgorithms.obj
 0001:00030f0c       ?GetRealizedChoreWithinGroup@WorkSearchContext@details@Concurrency@@AEAA_NPEAVWorkItem@23@PEAVScheduleGroupSegmentBase@23@_NW4SearchAffinity@123@2@Z 0000000180031f0c f   libconcrt:SearchAlgorithms.obj
 0001:00030fdc       ?GetRunnableContext@WorkSearchContext@details@Concurrency@@AEAA_NPEAVWorkItem@23@PEAVScheduleGroupSegmentBase@23@@Z 0000000180031fdc f   libconcrt:SearchAlgorithms.obj
 0001:0003103c       ?GetRunnableContextWithinGroup@WorkSearchContext@details@Concurrency@@AEAA_NPEAVWorkItem@23@PEAVScheduleGroupSegmentBase@23@W4SearchAffinity@123@_N@Z 000000018003203c f   libconcrt:SearchAlgorithms.obj
 0001:000310f8       ?GetUnrealizedChore@WorkSearchContext@details@Concurrency@@AEAA_NPEAVWorkItem@23@PEAVScheduleGroupSegmentBase@23@_N2@Z 00000001800320f8 f   libconcrt:SearchAlgorithms.obj
 0001:00031170       ?GetUnrealizedChoreWithinGroup@WorkSearchContext@details@Concurrency@@AEAA_NPEAVWorkItem@23@PEAVScheduleGroupSegmentBase@23@_NW4SearchAffinity@123@2@Z 0000000180032170 f   libconcrt:SearchAlgorithms.obj
 0001:00031248       ?Invoke@WorkItem@details@Concurrency@@QEAAXXZ 0000000180032248 f   libconcrt:SearchAlgorithms.obj
 0001:000312a4       ?PreSearch@WorkSearchContext@details@Concurrency@@AEAA_NPEAVWorkItem@23@@Z 00000001800322a4 f   libconcrt:SearchAlgorithms.obj
 0001:00031304       ?QuickSearch@WorkSearchContext@details@Concurrency@@AEAA_NPEAVScheduleGroupSegmentBase@23@PEAVWorkItem@23@_NK@Z 0000000180032304 f   libconcrt:SearchAlgorithms.obj
 0001:000313a8       ?QuickSearchYield@WorkSearchContext@details@Concurrency@@AEAA_NPEAVScheduleGroupSegmentBase@23@PEAVWorkItem@23@_NK@Z 00000001800323a8 f   libconcrt:SearchAlgorithms.obj
 0001:00031438       ?Reset@WorkSearchContext@details@Concurrency@@QEAAXPEAVVirtualProcessor@23@W4Algorithm@123@@Z 0000000180032438 f   libconcrt:SearchAlgorithms.obj
 0001:000314ac       ?ResolveToken@WorkItem@details@Concurrency@@QEAA_NXZ 00000001800324ac f   libconcrt:SearchAlgorithms.obj
 0001:00031548       ?SearchCacheLocal@WorkSearchContext@details@Concurrency@@AEAA_NPEAVWorkItem@23@PEAVScheduleGroupSegmentBase@23@_NK@Z 0000000180032548 f   libconcrt:SearchAlgorithms.obj
 0001:00031968       ?SearchCacheLocalYield@WorkSearchContext@details@Concurrency@@AEAA_NPEAVWorkItem@23@PEAVScheduleGroupSegmentBase@23@_NK@Z 0000000180032968 f   libconcrt:SearchAlgorithms.obj
 0001:00031cb4       ?SearchCacheLocal_Realized@WorkSearchContext@details@Concurrency@@AEAA_NPEAVWorkItem@23@PEAVSchedulingRing@23@PEAVScheduleGroupSegmentBase@23@_NW4SearchAffinity@123@K3@Z 0000000180032cb4 f   libconcrt:SearchAlgorithms.obj
 0001:00031e78       ?SearchCacheLocal_Runnables@WorkSearchContext@details@Concurrency@@AEAA_NPEAVWorkItem@23@PEAVSchedulingRing@23@PEAVScheduleGroupSegmentBase@23@_NW4SearchAffinity@123@K3@Z 0000000180032e78 f   libconcrt:SearchAlgorithms.obj
 0001:00032054       ?SearchCacheLocal_Unrealized@WorkSearchContext@details@Concurrency@@AEAA_NPEAVWorkItem@23@PEAVSchedulingRing@23@PEAVScheduleGroupSegmentBase@23@_NW4SearchAffinity@123@K3@Z 0000000180033054 f   libconcrt:SearchAlgorithms.obj
 0001:0003221c       ?SearchFair@WorkSearchContext@details@Concurrency@@AEAA_NPEAVWorkItem@23@PEAVScheduleGroupSegmentBase@23@_NK@Z 000000018003321c f   libconcrt:SearchAlgorithms.obj
 0001:00032368       ?SearchFairYield@WorkSearchContext@details@Concurrency@@AEAA_NPEAVWorkItem@23@PEAVScheduleGroupSegmentBase@23@_NK@Z 0000000180033368 f   libconcrt:SearchAlgorithms.obj
 0001:000324c8       ?SearchFair_Realized@WorkSearchContext@details@Concurrency@@AEAA_NPEAVWorkItem@23@PEAVSchedulingRing@23@_N@Z 00000001800334c8 f   libconcrt:SearchAlgorithms.obj
 0001:00032598       ?SearchFair_Runnables@WorkSearchContext@details@Concurrency@@AEAA_NPEAVWorkItem@23@PEAVSchedulingRing@23@@Z 0000000180033598 f   libconcrt:SearchAlgorithms.obj
 0001:0003264c       ?SearchFair_Unrealized@WorkSearchContext@details@Concurrency@@AEAA_NPEAVWorkItem@23@PEAVSchedulingRing@23@_N@Z 000000018003364c f   libconcrt:SearchAlgorithms.obj
 0001:00032720       ?SkipSegmentSearch@WorkSearchContext@details@Concurrency@@AEAA_NPEAVScheduleGroupSegmentBase@23@0W4SearchAffinity@123@_N@Z 0000000180033720 f   libconcrt:SearchAlgorithms.obj
 0001:000327f8       ?StealForeignLocalRunnable@WorkSearchContext@details@Concurrency@@AEAA_NPEAVWorkItem@23@PEAVSchedulingNode@23@@Z 00000001800337f8 f   libconcrt:SearchAlgorithms.obj
 0001:000328d0       ?StealLocalRunnable@WorkSearchContext@details@Concurrency@@AEAA_NPEAVWorkItem@23@PEAVSchedulingNode@23@PEAVVirtualProcessor@23@@Z 00000001800338d0 f   libconcrt:SearchAlgorithms.obj
 0001:00032994       ?StealLocalRunnableContext@VirtualProcessor@details@Concurrency@@AEAAPEAVInternalContextBase@23@XZ 0000000180033994 f i libconcrt:SearchAlgorithms.obj
 0001:000329f8       ?TransferReferences@WorkItem@details@Concurrency@@QEAAXPEAVInternalContextBase@23@@Z 00000001800339f8 f   libconcrt:SearchAlgorithms.obj
 0001:00032a98       ?Invoke@RealizedChore@details@Concurrency@@QEAAXXZ 0000000180033a98 f   libconcrt:RealizedChore.obj
 0001:00032ac8       ??0ThreadVirtualProcessor@details@Concurrency@@QEAA@PEAVSchedulingNode@12@PEAUIVirtualProcessorRoot@2@@Z 0000000180033ac8 f   libconcrt:ThreadVirtualProcessor.obj
 0001:00032b20       ??_GThreadVirtualProcessor@details@Concurrency@@UEAAPEAXI@Z 0000000180033b20 f i libconcrt:ThreadVirtualProcessor.obj
 0001:00032b20       ??_EThreadVirtualProcessor@details@Concurrency@@UEAAPEAXI@Z 0000000180033b20 f i libconcrt:ThreadVirtualProcessor.obj
 0001:00032b70       memmove                    0000000180033b70 f   libvcruntime:memcpy.obj
 0001:00032b70       memcpy                     0000000180033b70 f   libvcruntime:memcpy.obj
 0001:00032fa8       _purecall                  0000000180033fa8 f   libvcruntime:purevirt.obj
 0001:00032fe4       memchr                     0000000180033fe4 f   libvcruntime:memchr.obj
 0001:00033000       __std_exception_copy       0000000180034000 f   libvcruntime:std_exception.obj
 0001:00033090       __std_exception_destroy    0000000180034090 f   libvcruntime:std_exception.obj
 0001:000330b8       _CxxThrowException         00000001800340b8 f   libvcruntime:throw.obj
 0001:00033190       ?_GetEstablisherFrame@@YAPEA_KPEA_KPEAU_xDISPATCHER_CONTEXT@@PEBU_s_FuncInfo@@0@Z 0000000180034190 f   libvcruntime:trnsctrl.obj
 0001:0003325c       ?_GetRangeOfTrysToCheck@@YAPEBU_s_TryBlockMapEntry@@PEA_KPEBU_s_FuncInfo@@HHPEAI2PEAU_xDISPATCHER_CONTEXT@@@Z 000000018003425c f   libvcruntime:trnsctrl.obj
 0001:00033388       ?__FrameUnwindToEmptyState@@YAXPEA_KPEAU_xDISPATCHER_CONTEXT@@PEBU_s_FuncInfo@@@Z 0000000180034388 f   libvcruntime:trnsctrl.obj
 0001:0003341c       ?__SehTransFilter@@YAHPEAU_EXCEPTION_POINTERS@@PEAUEHExceptionRecord@@PEA_KPEAU_CONTEXT@@PEAU_xDISPATCHER_CONTEXT@@PEBU_s_FuncInfo@@PEAH@Z 000000018003441c f   libvcruntime:trnsctrl.obj
 0001:000334b4       _CallSETranslator          00000001800344b4 f   libvcruntime:trnsctrl.obj
 0001:0003350c       _CreateFrameInfo           000000018003450c f   libvcruntime:trnsctrl.obj
 0001:00033548       _FindAndUnlinkFrame        0000000180034548 f   libvcruntime:trnsctrl.obj
 0001:000335a0       _GetImageBase              00000001800345a0 f   libvcruntime:trnsctrl.obj
 0001:000335b4       _GetThrowImageBase         00000001800345b4 f   libvcruntime:trnsctrl.obj
 0001:000335c8       _IsExceptionObjectToBeDestroyed 00000001800345c8 f   libvcruntime:trnsctrl.obj
 0001:000335f8       _SetImageBase              00000001800345f8 f   libvcruntime:trnsctrl.obj
 0001:00033610       _SetThrowImageBase         0000000180034610 f   libvcruntime:trnsctrl.obj
 0001:00033628       _UnwindNestedFrames        0000000180034628 f   libvcruntime:trnsctrl.obj
 0001:0003374c       __CxxFrameHandler3         000000018003474c f   libvcruntime:trnsctrl.obj
 0001:000337cc       __vcrt_initialize          00000001800347cc f   libvcruntime:initialization.obj
 0001:00033804       __vcrt_thread_attach       0000000180034804 f   libvcruntime:initialization.obj
 0001:00033818       __vcrt_thread_detach       0000000180034818 f   libvcruntime:initialization.obj
 0001:0003382c       __vcrt_uninitialize        000000018003482c f   libvcruntime:initialization.obj
 0001:00033858       __vcrt_uninitialize_critical 0000000180034858 f   libvcruntime:initialization.obj
 0001:00033868       __C_specific_handler       0000000180034868 f   libvcruntime:_chandler_.obj
 0001:00033a68       __telemetry_main_invoke_trigger 0000000180034a68 f   libvcruntime:telemetry.obj
 0001:00033b80       __telemetry_main_return_trigger 0000000180034b80 f   libvcruntime:telemetry.obj
 0001:00033c98       __vcrt_initialize_telemetry_provider 0000000180034c98 f   libvcruntime:telemetry.obj
 0001:00033cac       __vcrt_uninitialize_telemetry_provider 0000000180034cac f   libvcruntime:telemetry.obj
 0001:00033ce0       memset                     0000000180034ce0 f   libvcruntime:memset.obj
 0001:00033e80       __std_type_info_compare    0000000180034e80 f   libvcruntime:std_type_info.obj
 0001:00033ea8       __std_type_info_destroy_list 0000000180034ea8 f   libvcruntime:std_type_info.obj
 0001:00033ed4       __DestructExceptionObject  0000000180034ed4 f   libvcruntime:frame.obj
 0001:00033f5c       ??0bad_exception@std@@QEAA@AEBV01@@Z 0000000180034f5c f i libvcruntime:frame.obj
 0001:00033f9c       ??0bad_exception@std@@QEAA@XZ 0000000180034f9c f i libvcruntime:frame.obj
 0001:000348fc       ?_CallMemberFunction0@@YAXPEAXP6AX0@Z@Z 00000001800358fc f i libvcruntime:frame.obj
 0001:00034900       ?_CallMemberFunction1@@YAXPEAXP6AX0@Z0@Z 0000000180035900 f i libvcruntime:frame.obj
 0001:0003490c       ?_CallMemberFunction2@@YAXPEAXP6AX0@Z0H@Z 000000018003590c f i libvcruntime:frame.obj
 0001:0003491c       __AdjustPointer            000000018003591c f   libvcruntime:frame.obj
 0001:00034940       __BuildCatchObject         0000000180035940 f   libvcruntime:frame.obj
 0001:00034a08       __BuildCatchObjectHelper   0000000180035a08 f   libvcruntime:frame.obj
 0001:00034bec       __CxxCallCatchBlock        0000000180035bec f   libvcruntime:frame.obj
 0001:00034dd8       __FrameUnwindFilter        0000000180035dd8 f   libvcruntime:frame.obj
 0001:00034e24       __FrameUnwindToState       0000000180035e24 f   libvcruntime:frame.obj
 0001:00034fb8       __InternalCxxFrameHandler  0000000180035fb8 f   libvcruntime:frame.obj
 0001:00035210       __TypeMatch                0000000180036210 f   libvcruntime:frame.obj
 0001:00035350       __current_exception        0000000180036350 f   libvcruntime:frame.obj
 0001:00035364       __processing_throw         0000000180036364 f   libvcruntime:frame.obj
 0001:00035378       __std_terminate            0000000180036378 f   libvcruntime:frame.obj
 0001:00035384       __uncaught_exception       0000000180036384 f   libvcruntime:frame.obj
 0001:0003539c       ??0__non_rtti_object@std@@QEAA@AEBV01@@Z 000000018003639c f i libvcruntime:rtti.obj
 0001:000353dc       ??0bad_cast@std@@QEAA@AEBV01@@Z 00000001800363dc f i libvcruntime:rtti.obj
 0001:0003541c       ??0bad_typeid@std@@QEAA@AEBV01@@Z 000000018003641c f i libvcruntime:rtti.obj
 0001:000358e0       ?__construct_from_string_literal@__non_rtti_object@std@@SA?AV12@QEBD@Z 00000001800368e0 f i libvcruntime:rtti.obj
 0001:000358f8       ?__construct_from_string_literal@bad_cast@std@@SA?AV12@QEBD@Z 00000001800368f8 f i libvcruntime:rtti.obj
 0001:00035910       __RTDynamicCast            0000000180036910 f   libvcruntime:rtti.obj
 0001:00035a8c       __vcrt_initialize_pure_virtual_call_handler 0000000180036a8c f   libvcruntime:purevirt_data.obj
 0001:00035ab0       __vcrt_freefls             0000000180036ab0 f   libvcruntime:per_thread_data.obj
 0001:00035ad0       __vcrt_freeptd             0000000180036ad0 f   libvcruntime:per_thread_data.obj
 0001:00035b20       __vcrt_getptd              0000000180036b20 f   libvcruntime:per_thread_data.obj
 0001:00035b3c       __vcrt_getptd_noexit       0000000180036b3c f   libvcruntime:per_thread_data.obj
 0001:00035bf4       __vcrt_initialize_ptd      0000000180036bf4 f   libvcruntime:per_thread_data.obj
 0001:00035c34       __vcrt_uninitialize_ptd    0000000180036c34 f   libvcruntime:per_thread_data.obj
 0001:00035c58       ?__GetCurrentState@@YAHPEA_KPEAU_xDISPATCHER_CONTEXT@@PEBU_s_FuncInfo@@@Z 0000000180036c58 f   libvcruntime:ehstate.obj
 0001:00035c80       ?__GetUnwindTryBlock@@YAHPEA_KPEAU_xDISPATCHER_CONTEXT@@PEBU_s_FuncInfo@@@Z 0000000180036c80 f   libvcruntime:ehstate.obj
 0001:00035cac       ?__SetState@@YAXPEA_KPEAU_xDISPATCHER_CONTEXT@@PEBU_s_FuncInfo@@H@Z 0000000180036cac f   libvcruntime:ehstate.obj
 0001:00035cb8       ?__SetUnwindTryBlock@@YAXPEA_KPEAU_xDISPATCHER_CONTEXT@@PEBU_s_FuncInfo@@H@Z 0000000180036cb8 f   libvcruntime:ehstate.obj
 0001:00035cf4       ?__StateFromControlPc@@YAHPEBU_s_FuncInfo@@PEAU_xDISPATCHER_CONTEXT@@@Z 0000000180036cf4 f   libvcruntime:ehstate.obj
 0001:00035cfc       ?__StateFromIp@@YAHPEBU_s_FuncInfo@@PEAU_xDISPATCHER_CONTEXT@@_J@Z 0000000180036cfc f   libvcruntime:ehstate.obj
 0001:00035d68       __vcrt_initialize_locks    0000000180036d68 f   libvcruntime:locks.obj
 0001:00035db0       __vcrt_uninitialize_locks  0000000180036db0 f   libvcruntime:locks.obj
 0001:00035fb0       __vcrt_EventRegister       0000000180036fb0 f   libvcruntime:winapi_downlevel.obj
 0001:00036034       __vcrt_EventSetInformation 0000000180037034 f   libvcruntime:winapi_downlevel.obj
 0001:000360b8       __vcrt_EventUnregister     00000001800370b8 f   libvcruntime:winapi_downlevel.obj
 0001:0003610c       __vcrt_EventWriteTransfer  000000018003710c f   libvcruntime:winapi_downlevel.obj
 0001:000361a4       __vcrt_FlsAlloc            00000001800371a4 f   libvcruntime:winapi_downlevel.obj
 0001:000361f8       __vcrt_FlsFree             00000001800371f8 f   libvcruntime:winapi_downlevel.obj
 0001:0003624c       __vcrt_FlsGetValue         000000018003724c f   libvcruntime:winapi_downlevel.obj
 0001:000362a0       __vcrt_FlsSetValue         00000001800372a0 f   libvcruntime:winapi_downlevel.obj
 0001:00036308       __vcrt_InitializeCriticalSectionEx 0000000180037308 f   libvcruntime:winapi_downlevel.obj
 0001:00036380       __vcrt_initialize_winapi_thunks 0000000180037380 f   libvcruntime:winapi_downlevel.obj
 0001:000363b8       __vcrt_uninitialize_winapi_thunks 00000001800373b8 f   libvcruntime:winapi_downlevel.obj
 0001:00036410       _local_unwind              0000000180037410 f   libvcruntime:_jmpuwind_.obj
 0001:00036440       _NLG_Notify                0000000180037440 f   libvcruntime:_jmpuwind_.obj
 0001:00036460       __NLG_Dispatch2            0000000180037460 f   libvcruntime:_jmpuwind_.obj
 0001:00036470       __NLG_Return2              0000000180037470 f   libvcruntime:_jmpuwind_.obj
 0001:00036490       _CallSettingFrame          0000000180037490 f   libvcruntime:handlers.obj
 0001:000364d0       ??0_LocaleUpdate@@QEAA@QEAU__crt_locale_pointers@@@Z 00000001800374d0 f i libucrt:_ctype.obj
 0001:00036560       isalnum                    0000000180037560 f i libucrt:_ctype.obj
 0001:000365dc       isdigit                    00000001800375dc f i libucrt:_ctype.obj
 0001:00036650       isspace                    0000000180037650 f i libucrt:_ctype.obj
 0001:000366c4       __acrt_call_reportfault    00000001800376c4 f   libucrt:invalid_parameter.obj
 0001:00036820       __acrt_initialize_invalid_parameter_handler 0000000180037820 f   libucrt:invalid_parameter.obj
 0001:00036828       _invalid_parameter         0000000180037828 f   libucrt:invalid_parameter.obj
 0001:000368d0       _invalid_parameter_noinfo  00000001800378d0 f   libucrt:invalid_parameter.obj
 0001:000368f0       _invalid_parameter_noinfo_noreturn 00000001800378f0 f   libucrt:invalid_parameter.obj
 0001:00036920       _invoke_watson             0000000180037920 f   libucrt:invalid_parameter.obj
 0001:00036968       __acrt_errno_from_os_error 0000000180037968 f   libucrt:errno.obj
 0001:000369b0       __acrt_errno_map_os_error  00000001800379b0 f   libucrt:errno.obj
 0001:00036a00       __doserrno                 0000000180037a00 f   libucrt:errno.obj
 0001:00036a20       _errno                     0000000180037a20 f   libucrt:errno.obj
 0001:00036a40       rand                       0000000180037a40 f   libucrt:rand.obj
 0001:00036a6c       ??$is_overflow_condition@K@__crt_strtox@@YA_NIK@Z 0000000180037a6c f i libucrt:strtox.obj
 0001:00036a98       ??$make_c_string_character_source@DPEAPEAD@__crt_strtox@@YA?AV?$c_string_character_source@D@0@QEBDQEAPEAD@Z 0000000180037a98 f i libucrt:strtox.obj
 0001:00036aac       ??$parse_integer@KV?$c_string_character_source@D@__crt_strtox@@@__crt_strtox@@YAKQEAU__crt_locale_pointers@@V?$c_string_character_source@D@0@H_N@Z 0000000180037aac f i libucrt:strtox.obj
 0001:00036dc0       strtol                     0000000180037dc0 f   libucrt:strtox.obj
 0001:00036e40       _tolower_l                 0000000180037e40 f   libucrt:tolower_toupper.obj
 0001:00036f80       tolower                    0000000180037f80 f   libucrt:tolower_toupper.obj
 0001:00036fc0       strncmp                    0000000180037fc0 f   libucrt:strncmp.obj
 0001:00037040       __ascii_stricmp            0000000180038040 f   libucrt:stricmp.obj
 0001:0003707c       _stricmp                   000000018003807c f   libucrt:stricmp.obj
 0001:000370c4       _stricmp_l                 00000001800380c4 f   libucrt:stricmp.obj
 0001:00037178       _calloc_base               0000000180038178 f   libucrt:calloc_base.obj
 0001:000371f0       _free_base                 00000001800381f0 f   libucrt:free_base.obj
 0001:00037230       __acrt_initialize_new_handler 0000000180038230 f   libucrt:new_handler.obj
 0001:00037238       _callnewh                  0000000180038238 f   libucrt:new_handler.obj
 0001:00037278       _query_new_handler         0000000180038278 f   libucrt:new_handler.obj
 0001:000372ac       malloc                     00000001800382ac f   libucrt:malloc.obj
 0001:000372b4       free                       00000001800382b4 f   libucrt:free.obj
 0001:000372bc       _seh_filter_dll            00000001800382bc f   libucrt:exception_filter.obj
 0001:000372d0       _seh_filter_exe            00000001800382d0 f   libucrt:exception_filter.obj
 0001:00037690       __acrt_initialize_thread_local_exit_callback 0000000180038690 f   libucrt:exit.obj
 0001:00037698       _cexit                     0000000180038698 f   libucrt:exit.obj
 0001:000376a8       _exit                      00000001800386a8 f   libucrt:exit.obj
 0001:000376b4       _is_c_termination_complete 00000001800386b4 f   libucrt:exit.obj
 0001:00037878       __acrt_allocate_buffer_for_argv 0000000180038878 f   libucrt:argv_parsing.obj
 0001:000378dc       _configure_narrow_argv     00000001800388dc f   libucrt:argv_parsing.obj
 0001:00037c38       __dcrt_uninitialize_environments_nolock 0000000180038c38 f   libucrt:environment_initialization.obj
 0001:00037c70       _initialize_narrow_environment 0000000180038c70 f   libucrt:environment_initialization.obj
 0001:00037c78       ??$?RV<lambda_b8c45f8f788dd370798f47cfe8ac3a86>@@AEAV<lambda_4e60a939b0d047cfe11ddc22648dfba9>@@V<lambda_332c3edc96d0294ec56c57d38c1cdfd5>@@@?$__crt_seh_guarded_call@H@@QEAAH$$QEAV<lambda_b8c45f8f788dd370798f47cfe8ac3a86>@@AEAV<lambda_4e60a939b0d047cfe11ddc22648dfba9>@@$$QEAV<lambda_332c3edc96d0294ec56c57d38c1cdfd5>@@@Z 0000000180038c78 f i libucrt:onexit.obj
 0001:00037cb4       ??$?RV<lambda_e24bbb7b643b32fcea6fa61b31d4c984>@@AEAV<lambda_275893d493268fdec8709772e3fcec0e>@@V<lambda_9d71df4d7cf3f480f8d633942495c3b0>@@@?$__crt_seh_guarded_call@H@@QEAAH$$QEAV<lambda_e24bbb7b643b32fcea6fa61b31d4c984>@@AEAV<lambda_275893d493268fdec8709772e3fcec0e>@@$$QEAV<lambda_9d71df4d7cf3f480f8d633942495c3b0>@@@Z 0000000180038cb4 f i libucrt:onexit.obj
 0001:00038030       _crt_atexit                0000000180039030 f   libucrt:onexit.obj
 0001:00038040       _execute_onexit_table      0000000180039040 f   libucrt:onexit.obj
 0001:0003807c       _initialize_onexit_table   000000018003907c f   libucrt:onexit.obj
 0001:000380bc       _register_onexit_function  00000001800390bc f   libucrt:onexit.obj
 0001:0003814c       __acrt_uninitialize_command_line 000000018003914c f   libucrt:argv_data.obj
 0001:0003814c       ?SweepWaitNode@SingleWaitBlock@details@Concurrency@@UEAA_NXZ 000000018003914c f   libconcrt:event.obj
 0001:0003814c       ?AllowGeneralFetchOfReservedContexts@SchedulerBase@details@Concurrency@@MEAA_NXZ 000000018003914c f   libconcrt:SchedulerBase.obj
 0001:0003823c       __acrt_initialize          000000018003923c f   libucrt:initialization.obj
 0001:00038250       __acrt_thread_attach       0000000180039250 f   libucrt:initialization.obj
 0001:00038264       __acrt_thread_detach       0000000180039264 f   libucrt:initialization.obj
 0001:00038274       __acrt_uninitialize        0000000180039274 f   libucrt:initialization.obj
 0001:00038288       __acrt_uninitialize_critical 0000000180039288 f   libucrt:initialization.obj
 0001:00038298       _initterm                  0000000180039298 f   libucrt:initterm.obj
 0001:00038310       _initterm_e                0000000180039310 f   libucrt:initterm.obj
 0001:0003835c       terminate                  000000018003935c f   libucrt:terminate.obj
 0001:00038384       __acrt_initialize_stdio    0000000180039384 f   libucrt:_file.obj
 0001:000384a4       __acrt_iob_func            00000001800394a4 f   libucrt:_file.obj
 0001:000384b8       __acrt_uninitialize_stdio  00000001800394b8 f   libucrt:_file.obj
 0001:00038514       _lock_file                 0000000180039514 f   libucrt:_file.obj
 0001:00038520       _unlock_file               0000000180039520 f   libucrt:_file.obj
 0001:0003852c       __acrt_stdio_flush_nolock  000000018003952c f   libucrt:fflush.obj
 0001:000385a4       _fflush_nolock             00000001800395a4 f   libucrt:fflush.obj
 0001:000385f0       _flushall                  00000001800395f0 f   libucrt:fflush.obj
 0001:000386e0       exp                        00000001800396e0 f   libucrt:exp.obj
 0001:00038ad8       sqrt                       0000000180039ad8 f   libucrt:sqrt.obj
 0001:00038bac       abort                      0000000180039bac f   libucrt:abort.obj
 0001:00038c04       strcpy_s                   0000000180039c04 f   libucrt:strcpy_s.obj
 0001:00038c64       _malloc_base               0000000180039c64 f   libucrt:malloc_base.obj
 0001:00038cc4       __pctype_func              0000000180039cc4 f   libucrt:ctype.obj
 0001:00038cf4       _isctype_l                 0000000180039cf4 f   libucrt:isctype.obj
 0001:00038e04       ??$?RV<lambda_46352004c1216016012b18bd6f87e700>@@AEAV<lambda_3bd07e1a1191394380780325891bf33f>@@V<lambda_334532d3f185bcaa59b5be82d7d22bff>@@@?$__crt_seh_guarded_call@X@@QEAAX$$QEAV<lambda_46352004c1216016012b18bd6f87e700>@@AEAV<lambda_3bd07e1a1191394380780325891bf33f>@@$$QEAV<lambda_334532d3f185bcaa59b5be82d7d22bff>@@@Z 0000000180039e04 f i libucrt:per_thread_data.obj
 0001:00038e64       ??$?RV<lambda_5e887d1dcbef67a5eb4283622ba103bf>@@AEAV<lambda_4466841279450cc726390878d4a41900>@@V<lambda_341c25c0346d94847f1f3c463c57e077>@@@?$__crt_seh_guarded_call@X@@QEAAX$$QEAV<lambda_5e887d1dcbef67a5eb4283622ba103bf>@@AEAV<lambda_4466841279450cc726390878d4a41900>@@$$QEAV<lambda_341c25c0346d94847f1f3c463c57e077>@@@Z 0000000180039e64 f i libucrt:per_thread_data.obj
 0001:00038eac       ??$?RV<lambda_72d1df2b273a38828b1ce30cbf4cdab5>@@AEAV<lambda_876a65b173b8412d3a47c70a915b0cf4>@@V<lambda_41932305e351933ebe8f8be3ed8bb5dc>@@@?$__crt_seh_guarded_call@X@@QEAAX$$QEAV<lambda_72d1df2b273a38828b1ce30cbf4cdab5>@@AEAV<lambda_876a65b173b8412d3a47c70a915b0cf4>@@$$QEAV<lambda_41932305e351933ebe8f8be3ed8bb5dc>@@@Z 0000000180039eac f i libucrt:per_thread_data.obj
 0001:00038eec       ??$?RV<lambda_fb3a7dec4e47f37f22dae91bb15c9095>@@AEAV<lambda_698284760c8add0bfb0756c19673e34b>@@V<lambda_dfb8eca1e75fef3034a8fb18dd509707>@@@?$__crt_seh_guarded_call@X@@QEAAX$$QEAV<lambda_fb3a7dec4e47f37f22dae91bb15c9095>@@AEAV<lambda_698284760c8add0bfb0756c19673e34b>@@$$QEAV<lambda_dfb8eca1e75fef3034a8fb18dd509707>@@@Z 0000000180039eec f i libucrt:per_thread_data.obj
 0001:0003917c       __acrt_freeptd             000000018003a17c f   libucrt:per_thread_data.obj
 0001:000391c0       __acrt_getptd              000000018003a1c0 f   libucrt:per_thread_data.obj
 0001:00039254       __acrt_getptd_noexit       000000018003a254 f   libucrt:per_thread_data.obj
 0001:000392f4       __acrt_initialize_ptd      000000018003a2f4 f   libucrt:per_thread_data.obj
 0001:00039330       __acrt_uninitialize_ptd    000000018003a330 f   libucrt:per_thread_data.obj
 0001:00039354       __acrt_update_locale_info  000000018003a354 f   libucrt:locale_update.obj
 0001:00039388       __acrt_update_multibyte_info 000000018003a388 f   libucrt:locale_update.obj
 0001:000393bc       __acrt_set_locale_changed  000000018003a3bc f   libucrt:wsetlocale.obj
 0001:000393c8       __acrt_uninitialize_locale 000000018003a3c8 f   libucrt:wsetlocale.obj
 0001:00039410       _isleadbyte_l              000000018003a410 f i libucrt:_wctype.obj
 0001:000397ac       __acrt_LCMapStringA        000000018003a7ac f   libucrt:lcmapstringa.obj
 0001:00039844       _query_new_mode            000000018003a844 f   libucrt:new_mode.obj
 0001:0003984c       __acrt_initialize_heap     000000018003a84c f   libucrt:heap_handle.obj
 0001:00039868       __acrt_uninitialize_heap   000000018003a868 f   libucrt:heap_handle.obj
 0001:00039874       __acrt_initialize_locks    000000018003a874 f   libucrt:locks.obj
 0001:000398bc       __acrt_lock                000000018003a8bc f   libucrt:locks.obj
 0001:000398d8       __acrt_uninitialize_locks  000000018003a8d8 f   libucrt:locks.obj
 0001:00039910       __acrt_unlock              000000018003a910 f   libucrt:locks.obj
 0001:00039acc       __acrt_FlsAlloc            000000018003aacc f   libucrt:winapi_thunks.obj
 0001:00039b24       __acrt_FlsFree             000000018003ab24 f   libucrt:winapi_thunks.obj
 0001:00039b7c       __acrt_FlsGetValue         000000018003ab7c f   libucrt:winapi_thunks.obj
 0001:00039bd4       __acrt_FlsSetValue         000000018003abd4 f   libucrt:winapi_thunks.obj
 0001:00039c3c       __acrt_InitializeCriticalSectionEx 000000018003ac3c f   libucrt:winapi_thunks.obj
 0001:00039cb4       __acrt_LCMapStringEx       000000018003acb4 f   libucrt:winapi_thunks.obj
 0001:00039da4       __acrt_LocaleNameToLCID    000000018003ada4 f   libucrt:winapi_thunks.obj
 0001:00039e0c       __acrt_initialize_winapi_thunks 000000018003ae0c f   libucrt:winapi_thunks.obj
 0001:00039e44       __acrt_is_packaged_app     000000018003ae44 f   libucrt:winapi_thunks.obj
 0001:00039ecc       __acrt_uninitialize_winapi_thunks 000000018003aecc f   libucrt:winapi_thunks.obj
 0001:0003a3ec       ?expand_if_necessary@?$argument_list@D@?A0xca0879c4@@AEAAHXZ 000000018003b3ec f i libucrt:argv_wildcards.obj
 0001:0003a4b4       __acrt_expand_narrow_argv_wildcards 000000018003b4b4 f   libucrt:argv_wildcards.obj
 0001:0003a4bc       ??$?RV<lambda_99476a1ad63dd22509b5d3e65b0ffc95>@@AEAV<lambda_ad1ced32f4ac17aa236e5ef05d6b3b7c>@@V<lambda_f7424dd8d45958661754dc4f2697e9c3>@@@?$__crt_seh_guarded_call@X@@QEAAX$$QEAV<lambda_99476a1ad63dd22509b5d3e65b0ffc95>@@AEAV<lambda_ad1ced32f4ac17aa236e5ef05d6b3b7c>@@$$QEAV<lambda_f7424dd8d45958661754dc4f2697e9c3>@@@Z 000000018003b4bc f i libucrt:mbctype.obj
 0001:0003abb8       __acrt_initialize_multibyte 000000018003bbb8 f   libucrt:mbctype.obj
 0001:0003abe0       __acrt_update_thread_multibyte_data 000000018003bbe0 f   libucrt:mbctype.obj
 0001:0003aca0       _setmbcp_nolock            000000018003bca0 f   libucrt:mbctype.obj
 0001:0003afc0       _ismbblead                 000000018003bfc0 f   libucrt:ismbbyte.obj
 0001:0003afd4       __acrt_initialize_command_line 000000018003bfd4 f   libucrt:argv_data.obj
 0001:0003affc       __dcrt_get_narrow_environment_from_os 000000018003bffc f   libucrt:get_environment_from_os.obj
 0001:0003b100       _recalloc                  000000018003c100 f   libucrt:recalloc.obj
 0001:0003b108       _recalloc_base             000000018003c108 f   libucrt:recalloc.obj
 0001:0003b388       __acrt_initialize_lowio    000000018003c388 f   libucrt:ioinit.obj
 0001:0003b3c4       __acrt_uninitialize_lowio  000000018003c3c4 f   libucrt:ioinit.obj
 0001:0003b404       __acrt_execute_initializers 000000018003c404 f   libucrt:shared_initialization.obj
 0001:0003b498       __acrt_execute_uninitializers 000000018003c498 f   libucrt:shared_initialization.obj
 0001:0003b4e8       ??$?RV<lambda_c36588078e9f5dfd39652860aa6b3aaf>@@AEAV<lambda_ec61778202f4f5fc7e7711acc23c3bca>@@V<lambda_dc9d2797ccde5d239b4a0efae8ebd7db>@@@?$__crt_seh_guarded_call@P6AXH@Z@@QEAAP6AXH@Z$$QEAV<lambda_c36588078e9f5dfd39652860aa6b3aaf>@@AEAV<lambda_ec61778202f4f5fc7e7711acc23c3bca>@@$$QEAV<lambda_dc9d2797ccde5d239b4a0efae8ebd7db>@@@Z 000000018003c4e8 f i libucrt:signal.obj
 0001:0003b530       __acrt_get_sigabrt_handler 000000018003c530 f   libucrt:signal.obj
 0001:0003b560       __acrt_initialize_signal_handlers 000000018003c560 f   libucrt:signal.obj
 0001:0003b580       raise                      000000018003c580 f   libucrt:signal.obj
 0001:0003b81c       __acrt_has_user_matherr    000000018003c81c f   libucrt:matherr.obj
 0001:0003b83c       __acrt_initialize_user_matherr 000000018003c83c f   libucrt:matherr.obj
 0001:0003b844       __acrt_invoke_user_matherr 000000018003c844 f   libucrt:matherr.obj
 0001:0003b88c       _fcloseall                 000000018003c88c f   libucrt:closeall.obj
 0001:0003b940       __acrt_stdio_free_buffer_nolock 000000018003c940 f   libucrt:_freebuf.obj
 0001:0003b980       _mbtowc_l                  000000018003c980 f   libucrt:mbtowc.obj
 0001:0003bac8       mbtowc                     000000018003cac8 f   libucrt:mbtowc.obj
 0001:0003bad0       _fileno                    000000018003cad0 f   libucrt:fileno.obj
 0001:0003baf8       ??$?RV<lambda_b521505b218e5242e90febf6bfebc422>@@AEAV<lambda_6978c1fb23f02e42e1d9e99668cc68aa>@@V<lambda_314360699dd331753a4119843814e9a7>@@@?$__crt_seh_guarded_call@H@@QEAAH$$QEAV<lambda_b521505b218e5242e90febf6bfebc422>@@AEAV<lambda_6978c1fb23f02e42e1d9e99668cc68aa>@@$$QEAV<lambda_314360699dd331753a4119843814e9a7>@@@Z 000000018003caf8 f i libucrt:commit.obj
 0001:0003bb84       _commit                    000000018003cb84 f   libucrt:commit.obj
 0001:0003c1b8       _write                     000000018003d1b8 f   libucrt:write.obj
 0001:0003c2a4       _write_nolock              000000018003d2a4 f   libucrt:write.obj
 0001:0003c590       __acrt_initialize_fma3     000000018003d590 f   libucrt:fma3_available.obj
 0001:0003c600       _exp_special               000000018003d600 f   libucrt:exp_special.obj
 0001:0003c7bc       _handle_error              000000018003d7bc f   libucrt:libm_error.obj
 0001:0003c8e4       _handle_nan                000000018003d8e4 f   libucrt:libm_error.obj
 0001:0003c900       __acrt_GetStringTypeA      000000018003d900 f   libucrt:getstringtypea.obj
 0001:0003cab4       __acrt_add_locale_ref      000000018003dab4 f   libucrt:locale_refcounting.obj
 0001:0003cb40       __acrt_free_locale         000000018003db40 f   libucrt:locale_refcounting.obj
 0001:0003ccb8       __acrt_locale_add_lc_time_reference 000000018003dcb8 f   libucrt:locale_refcounting.obj
 0001:0003cce0       __acrt_locale_free_lc_time_if_unreferenced 000000018003dce0 f   libucrt:locale_refcounting.obj
 0001:0003cd18       __acrt_locale_release_lc_time_reference 000000018003dd18 f   libucrt:locale_refcounting.obj
 0001:0003cd40       __acrt_release_locale_ref  000000018003dd40 f   libucrt:locale_refcounting.obj
 0001:0003cde8       __acrt_update_thread_locale_data 000000018003dde8 f   libucrt:locale_refcounting.obj
 0001:0003ce58       _updatetlocinfoEx_nolock   000000018003de58 f   libucrt:locale_refcounting.obj
 0001:0003cec0       __acrt_locale_free_monetary 000000018003dec0 f   libucrt:initmon.obj
 0001:0003cfcc       __acrt_locale_free_numeric 000000018003dfcc f   libucrt:initnum.obj
 0001:0003d090       __acrt_locale_free_time    000000018003e090 f   libucrt:inittime.obj
 0001:0003d198       __strncnt                  000000018003e198 f   libucrt:strncnt.obj
 0001:0003d278       __acrt_DownlevelLocaleNameToLCID 000000018003e278 f   libucrt:lcidtoname_downlevel.obj
 0001:0003d380       qsort                      000000018003e380 f   libucrt:qsort.obj
 0001:0003d6b4       strncpy_s                  000000018003e6b4 f   libucrt:strncpy_s.obj
 0001:0003d788       strpbrk                    000000018003e788 f   libucrt:strpbrk.obj
 0001:0003d828       _mbsdec                    000000018003e828 f   libucrt:mbsdec.obj
 0001:0003d830       _mbsdec_l                  000000018003e830 f   libucrt:mbsdec.obj
 0001:0003d8e0       _msize                     000000018003e8e0 f   libucrt:msize.obj
 0001:0003d91c       _realloc_base              000000018003e91c f   libucrt:realloc_base.obj
 0001:0003d9a0       __acrt_lowio_create_handle_array 000000018003e9a0 f   libucrt:osfinfo.obj
 0001:0003da38       __acrt_lowio_destroy_handle_array 000000018003ea38 f   libucrt:osfinfo.obj
 0001:0003da88       __acrt_lowio_ensure_fh_exists 000000018003ea88 f   libucrt:osfinfo.obj
 0001:0003db40       __acrt_lowio_lock_fh       000000018003eb40 f   libucrt:osfinfo.obj
 0001:0003db64       __acrt_lowio_unlock_fh     000000018003eb64 f   libucrt:osfinfo.obj
 0001:0003db88       _free_osfhnd               000000018003eb88 f   libucrt:osfinfo.obj
 0001:0003dc44       _get_osfhandle             000000018003ec44 f   libucrt:osfinfo.obj
 0001:0003dcbc       _isatty                    000000018003ecbc f   libucrt:isatty.obj
 0001:0003dd1c       _fclose_nolock             000000018003ed1c f   libucrt:fclose.obj
 0001:0003dda0       fclose                     000000018003eda0 f   libucrt:fclose.obj
 0001:0003dea8       _lseeki64_nolock           000000018003eea8 f   libucrt:lseek.obj
 0001:0003deb0       _putwch_nolock             000000018003eeb0 f   libucrt:putwch.obj
 0001:0003df0c       _raise_exc                 000000018003ef0c f   libucrt:fpexcept.obj
 0001:0003df34       _raise_exc_ex              000000018003ef34 f   libucrt:fpexcept.obj
 0001:0003e23c       _set_errno_from_matherr    000000018003f23c f   libucrt:fpexcept.obj
 0001:0003e26c       _clrfp                     000000018003f26c f   libucrt:fpctrl.obj
 0001:0003e28c       _ctrlfp                    000000018003f28c f   libucrt:fpctrl.obj
 0001:0003e308       _set_statfp                000000018003f308 f   libucrt:fpctrl.obj
 0001:0003e328       _statfp                    000000018003f328 f   libucrt:fpctrl.obj
 0001:0003e33c       _query_app_type            000000018003f33c f   libucrt:report_runtime_error.obj
 0001:0003e344       ??$?RV<lambda_bfedae4ebbf01fab1bb6dcc6a9e276e0>@@AEAV<lambda_2fe9b910cf3cbf4a0ab98a02ba45b3ec>@@V<lambda_237c231691f317818eb88cc1d5d642d6>@@@?$__crt_seh_guarded_call@H@@QEAAH$$QEAV<lambda_bfedae4ebbf01fab1bb6dcc6a9e276e0>@@AEAV<lambda_2fe9b910cf3cbf4a0ab98a02ba45b3ec>@@$$QEAV<lambda_237c231691f317818eb88cc1d5d642d6>@@@Z 000000018003f344 f i libucrt:close.obj
 0001:0003e3b8       _close                     000000018003f3b8 f   libucrt:close.obj
 0001:0003e45c       _close_nolock              000000018003f45c f   libucrt:close.obj
 0001:0003e518       ?__acrt_stdio_free_stream@@YAXV__crt_stdio_stream@@@Z 000000018003f518 f   libucrt:stream.obj
 0001:0003e560       log10                      000000018003f560 f   libucrt:log10.obj
 0001:0003eb0c       __dcrt_lowio_initialize_console_output 000000018003fb0c f   libucrt:initcon.obj
 0001:0003eb48       __dcrt_terminate_console_output 000000018003fb48 f   libucrt:initcon.obj
 0001:0003eb80       _get_fpsr                  000000018003fb80 f   libucrt:fpsr.obj
 0001:0003eb90       _set_fpsr                  000000018003fb90 f   libucrt:fpsr.obj
 0001:0003eb9a       _fclrf                     000000018003fb9a f   libucrt:fpsr.obj
 0001:0003ebae       _frnd                      000000018003fbae f   libucrt:fpsr.obj
 0001:0003ebd0       _log10_special             000000018003fbd0 f   libucrt:log_special.obj
 0001:0003ec86       IsProcessorFeaturePresent  000000018003fc86 f   kernel32:KERNEL32.dll
 0001:0003ec8c       RtlUnwindEx                000000018003fc8c f   kernel32:KERNEL32.dll
 0001:0003ec92       SystemFunction036          000000018003fc92 f   advapi32:ADVAPI32.dll
 0001:0003ec98       ?DloadAcquireSectionWriteAccess@@YAXXZ 000000018003fc98 f i DelayImp:delayhlp.obj
 0001:0003ed54       ?DloadGetSRWLockFunctionPointers@@YAEXZ 000000018003fd54 f i DelayImp:delayhlp.obj
 0001:0003edf0       ?DloadMakePermanentImageCommit@@YAXPEAX_K@Z 000000018003fdf0 f i DelayImp:delayhlp.obj
 0001:0003ee88       ?DloadObtainSection@@YAPEAXPEAK0@Z 000000018003fe88 f i DelayImp:delayhlp.obj
 0001:0003ef20       ?DloadProtectSection@@YAXKPEAK@Z 000000018003ff20 f i DelayImp:delayhlp.obj
 0001:0003efb0       ?DloadReleaseSectionWriteAccess@@YAXXZ 000000018003ffb0 f i DelayImp:delayhlp.obj
 0001:0003f054       __delayLoadHelper2         0000000180040054 f   DelayImp:delayhlp.obj
 0001:0003f35c       ?GetCurrentThreadId@platform@details@Concurrency@@YAJXZ 000000018004035c f   libcpmt:ppltasks.obj
 0001:0003f364       ??$_Resetp@V__ExceptionPtr@@@?$shared_ptr@V__ExceptionPtr@@@std@@AEAAXPEAV__ExceptionPtr@@@Z 0000000180040364 f i libcpmt:excptptr.obj
 0001:0003f3c4       ??$_Resetp@V__ExceptionPtr@@P6AXPEAV1@@ZU?$_DebugMallocator@H@@@?$shared_ptr@V__ExceptionPtr@@@std@@AEAAXPEAV__ExceptionPtr@@P6AX0@ZU?$_DebugMallocator@H@@@Z 00000001800403c4 f i libcpmt:excptptr.obj
 0001:0003f454       ??$reset@V__ExceptionPtr@@@?$shared_ptr@V__ExceptionPtr@@@std@@QEAAXPEAV__ExceptionPtr@@@Z 0000000180040454 f i libcpmt:excptptr.obj
 0001:0003f4f0       ??$reset@V__ExceptionPtr@@P6AXPEAV1@@ZU?$_DebugMallocator@H@@@?$shared_ptr@V__ExceptionPtr@@@std@@QEAAXPEAV__ExceptionPtr@@P6AX0@ZU?$_DebugMallocator@H@@@Z 00000001800404f0 f i libcpmt:excptptr.obj
 0001:0003f58c       ??0__ExceptionPtr@@AEAA@PEBUEHExceptionRecord@@_N@Z 000000018004058c f   libcpmt:excptptr.obj
 0001:0003f710       ??1?$shared_ptr@V__ExceptionPtr@@@std@@QEAA@XZ 0000000180040710 f i libcpmt:excptptr.obj
 0001:0003f770       ??1__ExceptionPtr@@QEAA@XZ 0000000180040770 f   libcpmt:excptptr.obj
 0001:0003f850       ??_E?$_Ref_count@V__ExceptionPtr@@@std@@UEAAPEAXI@Z 0000000180040850 f i libcpmt:excptptr.obj
 0001:0003f850       ??_G?$_Ref_count@V__ExceptionPtr@@@std@@UEAAPEAXI@Z 0000000180040850 f i libcpmt:excptptr.obj
 0001:0003f87c       ??_E?$_Ref_count_del_alloc@V__ExceptionPtr@@P6AXPEAV1@@ZU?$_DebugMallocator@H@@@std@@UEAAPEAXI@Z 000000018004087c f i libcpmt:excptptr.obj
 0001:0003f87c       ??_G?$_Ref_count_del_alloc@V__ExceptionPtr@@P6AXPEAV1@@ZU?$_DebugMallocator@H@@@std@@UEAAPEAXI@Z 000000018004087c f i libcpmt:excptptr.obj
 0001:0003f8a8       ??_G?$shared_ptr@V__ExceptionPtr@@@std@@QEAAPEAXI@Z 00000001800408a8 f i libcpmt:excptptr.obj
 0001:0003f938       ??_E_Ref_count_base@std@@UEAAPEAXI@Z 0000000180040938 f i libcpmt:excptptr.obj
 0001:0003f938       ??_G_Ref_count_base@std@@UEAAPEAXI@Z 0000000180040938 f i libcpmt:excptptr.obj
 0001:0003f964       ??_G__ExceptionPtr@@QEAAPEAXI@Z 0000000180040964 f i libcpmt:excptptr.obj
 0001:0003f998       ?_BadAllocException@__ExceptionPtr@@SA?AV?$shared_ptr@V__ExceptionPtr@@@std@@XZ 0000000180040998 f   libcpmt:excptptr.obj
 0001:0003f9d4       ?_CallCopyCtor@__ExceptionPtr@@AEBAXPEAX0_KQEBU_s_CatchableType@@@Z 00000001800409d4 f   libcpmt:excptptr.obj
 0001:0003fac0       ?_CopyException@__ExceptionPtr@@SA?AV?$shared_ptr@V__ExceptionPtr@@@std@@PEBXPEBU_s_ThrowInfo@@_N@Z 0000000180040ac0 f   libcpmt:excptptr.obj
 0001:0003fc58       ?_CurrentException@__ExceptionPtr@@SA?AV?$shared_ptr@V__ExceptionPtr@@@std@@XZ 0000000180040c58 f   libcpmt:excptptr.obj
 0001:0003fd34       ?_DeleteExceptionPtr@@YAXQEAV__ExceptionPtr@@@Z 0000000180040d34 f   libcpmt:excptptr.obj
 0001:0003fd50       ?_Delete_this@?$_Ref_count@V__ExceptionPtr@@@std@@EEAAXXZ 0000000180040d50 f i libcpmt:excptptr.obj
 0001:0003fd88       ?_Delete_this@?$_Ref_count_del_alloc@V__ExceptionPtr@@P6AXPEAV1@@ZU?$_DebugMallocator@H@@@std@@EEAAXXZ 0000000180040d88 f i libcpmt:excptptr.obj
 0001:0003fdc0       ?_Destroy@?$_Ref_count@V__ExceptionPtr@@@std@@EEAAXXZ 0000000180040dc0 f i libcpmt:excptptr.obj
 0001:0003fdec       ?_Destroy@?$_Ref_count_del_alloc@V__ExceptionPtr@@P6AXPEAV1@@ZU?$_DebugMallocator@H@@@std@@EEAAXXZ 0000000180040dec f i libcpmt:excptptr.obj
 0001:0003fe24       ?_Get_deleter@?$_Ref_count_del_alloc@V__ExceptionPtr@@P6AXPEAV1@@ZU?$_DebugMallocator@H@@@std@@UEBAPEAXAEBVtype_info@@@Z 0000000180040e24 f i libcpmt:excptptr.obj
 0001:0003fe50       ?_InitBadAllocException@__ExceptionPtr@@CA?AV?$shared_ptr@V__ExceptionPtr@@@std@@XZ 0000000180040e50 f   libcpmt:excptptr.obj
 0001:0003feb8       ?_Reset0@?$_Ptr_base@V__ExceptionPtr@@@std@@QEAAXPEAV__ExceptionPtr@@PEAV_Ref_count_base@2@@Z 0000000180040eb8 f i libcpmt:excptptr.obj
 0001:0003ff48       ?_RethrowException@__ExceptionPtr@@QEBAXXZ 0000000180040f48 f   libcpmt:excptptr.obj
 0001:00040114       ?__ExceptionPtrCopy@@YAXPEAXPEBX@Z 0000000180041114 f   libcpmt:excptptr.obj
 0001:00040144       ?__ExceptionPtrCreate@@YAXPEAX@Z 0000000180041144 f   libcpmt:excptptr.obj
 0001:00040154       ?__ExceptionPtrCurrentException@@YAXPEAX@Z 0000000180041154 f   libcpmt:excptptr.obj
 0001:000401d8       ?__ExceptionPtrDestroy@@YAXPEAX@Z 00000001800411d8 f   libcpmt:excptptr.obj
 0001:000401e0       ?__ExceptionPtrRethrow@@YAXPEBX@Z 00000001800411e0 f   libcpmt:excptptr.obj
 0001:000401f4       ?create_stl_condition_variable@details@Concurrency@@YAXPEAVstl_condition_variable_interface@12@@Z 00000001800411f4 f i libcpmt:cond.obj
 0001:00040288       ?destroy@stl_condition_variable_concrt@details@Concurrency@@UEAAXXZ 0000000180041288 f i libcpmt:cond.obj
 0001:0004037c       ?notify_all@stl_condition_variable_concrt@details@Concurrency@@UEAAXXZ 000000018004137c f i libcpmt:cond.obj
 0001:00040388       ?notify_all@stl_condition_variable_vista@details@Concurrency@@UEAAXXZ 0000000180041388 f i libcpmt:cond.obj
 0001:00040388       ?notify_all@stl_condition_variable_win7@details@Concurrency@@UEAAXXZ 0000000180041388 f i libcpmt:cond.obj
 0001:00040394       ?notify_one@stl_condition_variable_concrt@details@Concurrency@@UEAAXXZ 0000000180041394 f i libcpmt:cond.obj
 0001:000403a0       ?notify_one@stl_condition_variable_win7@details@Concurrency@@UEAAXXZ 00000001800413a0 f i libcpmt:cond.obj
 0001:000403a0       ?notify_one@stl_condition_variable_vista@details@Concurrency@@UEAAXXZ 00000001800413a0 f i libcpmt:cond.obj
 0001:000403ac       ?wait@stl_condition_variable_concrt@details@Concurrency@@UEAAXPEAVstl_critical_section_interface@23@@Z 00000001800413ac f i libcpmt:cond.obj
 0001:000403bc       ?wait@stl_condition_variable_vista@details@Concurrency@@UEAAXPEAVstl_critical_section_interface@23@@Z 00000001800413bc f i libcpmt:cond.obj
 0001:000403e0       ?wait@stl_condition_variable_win7@details@Concurrency@@UEAAXPEAVstl_critical_section_interface@23@@Z 00000001800413e0 f i libcpmt:cond.obj
 0001:00040408       ?wait_for@stl_condition_variable_concrt@details@Concurrency@@UEAA_NPEAVstl_critical_section_interface@23@I@Z 0000000180041408 f i libcpmt:cond.obj
 0001:00040418       ?wait_for@stl_condition_variable_vista@details@Concurrency@@UEAA_NPEAVstl_critical_section_interface@23@I@Z 0000000180041418 f i libcpmt:cond.obj
 0001:00040434       ?wait_for@stl_condition_variable_win7@details@Concurrency@@UEAA_NPEAVstl_critical_section_interface@23@I@Z 0000000180041434 f i libcpmt:cond.obj
 0001:00040454       _Cnd_broadcast             0000000180041454 f   libcpmt:cond.obj
 0001:00040484       _Cnd_destroy_in_situ       0000000180041484 f   libcpmt:cond.obj
 0001:000404b4       _Cnd_init_in_situ          00000001800414b4 f   libcpmt:cond.obj
 0001:000404bc       _Cnd_wait                  00000001800414bc f   libcpmt:cond.obj
 0001:000404c4       ??_L@YAXPEAX_K1P6AX0@Z2@Z  00000001800414c4 f   LIBCMT:ehvecctr.obj
 0001:00040550       __chkstk                   0000000180041550 f   LIBCMT:_chkstk_.obj
 0001:00040550       _alloca_probe              0000000180041550 f   LIBCMT:_chkstk_.obj
 0001:000405b0       _FindPESection             00000001800415b0 f   LIBCMT:pesect.obj
 0001:00040600       _IsNonwritableInCurrentImage 0000000180041600 f   LIBCMT:pesect.obj
 0001:00040650       _ValidateImageBase         0000000180041650 f   LIBCMT:pesect.obj
 0001:00040690       memcmp                     0000000180041690 f   libvcruntime:memcmp.obj
 0001:00040770       _guard_dispatch_icall_nop  0000000180041770 f   LIBCMT:_guard_dispatch_.obj
 0001:00041804       ??__F_Static@?1???$_Immortalize@V_Generic_error_category@std@@@std@@YAAEAV_Generic_error_category@0@XZ@YAXXZ 0000000180042804 f i libcpmt:thread0.obj
 0002:00000000       __imp_SystemFunction036    0000000180043000     advapi32:ADVAPI32.dll
 0002:00000008       \177ADVAPI32_NULL_THUNK_DATA 0000000180043008     advapi32:ADVAPI32.dll
 0002:00000010       __imp_GetCurrentProcessId  0000000180043010     kernel32:KERNEL32.dll
 0002:00000018       __imp_LoadLibraryExA       0000000180043018     kernel32:KERNEL32.dll
 0002:00000020       __imp_VirtualQuery         0000000180043020     kernel32:KERNEL32.dll
 0002:00000028       __imp_GetSystemInfo        0000000180043028     kernel32:KERNEL32.dll
 0002:00000030       __imp_GetModuleHandleA     0000000180043030     kernel32:KERNEL32.dll
 0002:00000038       __imp_GetCurrentThreadId   0000000180043038     kernel32:KERNEL32.dll
 0002:00000040       __imp_CreateFileW          0000000180043040     kernel32:KERNEL32.dll
 0002:00000048       __imp_WriteConsoleW        0000000180043048     kernel32:KERNEL32.dll
 0002:00000050       __imp_SetFilePointerEx     0000000180043050     kernel32:KERNEL32.dll
 0002:00000058       __imp_SetStdHandle         0000000180043058     kernel32:KERNEL32.dll
 0002:00000060       __imp_HeapReAlloc          0000000180043060     kernel32:KERNEL32.dll
 0002:00000068       __imp_HeapSize             0000000180043068     kernel32:KERNEL32.dll
 0002:00000070       __imp_GetConsoleMode       0000000180043070     kernel32:KERNEL32.dll
 0002:00000078       __imp_GetConsoleCP         0000000180043078     kernel32:KERNEL32.dll
 0002:00000080       __imp_WriteFile            0000000180043080     kernel32:KERNEL32.dll
 0002:00000088       __imp_FlushFileBuffers     0000000180043088     kernel32:KERNEL32.dll
 0002:00000090       __imp_GetFileType          0000000180043090     kernel32:KERNEL32.dll
 0002:00000098       __imp_GetStdHandle         0000000180043098     kernel32:KERNEL32.dll
 0002:000000a0       __imp_EnterCriticalSection 00000001800430a0     kernel32:KERNEL32.dll
 0002:000000a8       __imp_LeaveCriticalSection 00000001800430a8     kernel32:KERNEL32.dll
 0002:000000b0       __imp_TryEnterCriticalSection 00000001800430b0     kernel32:KERNEL32.dll
 0002:000000b8       __imp_DeleteCriticalSection 00000001800430b8     kernel32:KERNEL32.dll
 0002:000000c0       __imp_WideCharToMultiByte  00000001800430c0     kernel32:KERNEL32.dll
 0002:000000c8       __imp_QueryPerformanceCounter 00000001800430c8     kernel32:KERNEL32.dll
 0002:000000d0       __imp_SetLastError         00000001800430d0     kernel32:KERNEL32.dll
 0002:000000d8       __imp_InitializeCriticalSectionAndSpinCount 00000001800430d8     kernel32:KERNEL32.dll
 0002:000000e0       __imp_CreateEventW         00000001800430e0     kernel32:KERNEL32.dll
 0002:000000e8       __imp_Sleep                00000001800430e8     kernel32:KERNEL32.dll
 0002:000000f0       __imp_TlsAlloc             00000001800430f0     kernel32:KERNEL32.dll
 0002:000000f8       __imp_TlsGetValue          00000001800430f8     kernel32:KERNEL32.dll
 0002:00000100       __imp_TlsSetValue          0000000180043100     kernel32:KERNEL32.dll
 0002:00000108       __imp_TlsFree              0000000180043108     kernel32:KERNEL32.dll
 0002:00000110       __imp_GetSystemTimeAsFileTime 0000000180043110     kernel32:KERNEL32.dll
 0002:00000118       __imp_GetTickCount         0000000180043118     kernel32:KERNEL32.dll
 0002:00000120       __imp_GetModuleHandleW     0000000180043120     kernel32:KERNEL32.dll
 0002:00000128       __imp_GetProcAddress       0000000180043128     kernel32:KERNEL32.dll
 0002:00000130       __imp_RtlCaptureContext    0000000180043130     kernel32:KERNEL32.dll
 0002:00000138       __imp_RtlLookupFunctionEntry 0000000180043138     kernel32:KERNEL32.dll
 0002:00000140       __imp_RtlVirtualUnwind     0000000180043140     kernel32:KERNEL32.dll
 0002:00000148       __imp_UnhandledExceptionFilter 0000000180043148     kernel32:KERNEL32.dll
 0002:00000150       __imp_SetUnhandledExceptionFilter 0000000180043150     kernel32:KERNEL32.dll
 0002:00000158       __imp_GetCurrentProcess    0000000180043158     kernel32:KERNEL32.dll
 0002:00000160       __imp_TerminateProcess     0000000180043160     kernel32:KERNEL32.dll
 0002:00000168       __imp_IsProcessorFeaturePresent 0000000180043168     kernel32:KERNEL32.dll
 0002:00000170       __imp_IsDebuggerPresent    0000000180043170     kernel32:KERNEL32.dll
 0002:00000178       __imp_GetStartupInfoW      0000000180043178     kernel32:KERNEL32.dll
 0002:00000180       __imp_InitializeSListHead  0000000180043180     kernel32:KERNEL32.dll
 0002:00000188       __imp_CloseHandle          0000000180043188     kernel32:KERNEL32.dll
 0002:00000190       __imp_GetLastError         0000000180043190     kernel32:KERNEL32.dll
 0002:00000198       __imp_SetEvent             0000000180043198     kernel32:KERNEL32.dll
 0002:000001a0       __imp_WaitForSingleObjectEx 00000001800431a0     kernel32:KERNEL32.dll
 0002:000001a8       __imp_SignalObjectAndWait  00000001800431a8     kernel32:KERNEL32.dll
 0002:000001b0       __imp_SwitchToThread       00000001800431b0     kernel32:KERNEL32.dll
 0002:000001b8       __imp_CreateThread         00000001800431b8     kernel32:KERNEL32.dll
 0002:000001c0       __imp_SetThreadPriority    00000001800431c0     kernel32:KERNEL32.dll
 0002:000001c8       __imp_GetThreadPriority    00000001800431c8     kernel32:KERNEL32.dll
 0002:000001d0       __imp_GetLogicalProcessorInformation 00000001800431d0     kernel32:KERNEL32.dll
 0002:000001d8       __imp_CreateTimerQueueTimer 00000001800431d8     kernel32:KERNEL32.dll
 0002:000001e0       __imp_ChangeTimerQueueTimer 00000001800431e0     kernel32:KERNEL32.dll
 0002:000001e8       __imp_DeleteTimerQueueTimer 00000001800431e8     kernel32:KERNEL32.dll
 0002:000001f0       __imp_GetNumaHighestNodeNumber 00000001800431f0     kernel32:KERNEL32.dll
 0002:000001f8       __imp_GetProcessAffinityMask 00000001800431f8     kernel32:KERNEL32.dll
 0002:00000200       __imp_SetThreadAffinityMask 0000000180043200     kernel32:KERNEL32.dll
 0002:00000208       __imp_RegisterWaitForSingleObject 0000000180043208     kernel32:KERNEL32.dll
 0002:00000210       __imp_UnregisterWait       0000000180043210     kernel32:KERNEL32.dll
 0002:00000218       __imp_EncodePointer        0000000180043218     kernel32:KERNEL32.dll
 0002:00000220       __imp_GetCurrentThread     0000000180043220     kernel32:KERNEL32.dll
 0002:00000228       __imp_GetThreadTimes       0000000180043228     kernel32:KERNEL32.dll
 0002:00000230       __imp_FreeLibrary          0000000180043230     kernel32:KERNEL32.dll
 0002:00000238       __imp_FreeLibraryAndExitThread 0000000180043238     kernel32:KERNEL32.dll
 0002:00000240       __imp_GetModuleFileNameW   0000000180043240     kernel32:KERNEL32.dll
 0002:00000248       __imp_LoadLibraryExW       0000000180043248     kernel32:KERNEL32.dll
 0002:00000250       __imp_GetVersionExW        0000000180043250     kernel32:KERNEL32.dll
 0002:00000258       __imp_VirtualAlloc         0000000180043258     kernel32:KERNEL32.dll
 0002:00000260       __imp_VirtualFree          0000000180043260     kernel32:KERNEL32.dll
 0002:00000268       __imp_VirtualProtect       0000000180043268     kernel32:KERNEL32.dll
 0002:00000270       __imp_DuplicateHandle      0000000180043270     kernel32:KERNEL32.dll
 0002:00000278       __imp_ReleaseSemaphore     0000000180043278     kernel32:KERNEL32.dll
 0002:00000280       __imp_InterlockedPopEntrySList 0000000180043280     kernel32:KERNEL32.dll
 0002:00000288       __imp_InterlockedPushEntrySList 0000000180043288     kernel32:KERNEL32.dll
 0002:00000290       __imp_InterlockedFlushSList 0000000180043290     kernel32:KERNEL32.dll
 0002:00000298       __imp_QueryDepthSList      0000000180043298     kernel32:KERNEL32.dll
 0002:000002a0       __imp_UnregisterWaitEx     00000001800432a0     kernel32:KERNEL32.dll
 0002:000002a8       __imp_CreateTimerQueue     00000001800432a8     kernel32:KERNEL32.dll
 0002:000002b0       __imp_LoadLibraryW         00000001800432b0     kernel32:KERNEL32.dll
 0002:000002b8       __imp_RtlPcToFileHeader    00000001800432b8     kernel32:KERNEL32.dll
 0002:000002c0       __imp_RaiseException       00000001800432c0     kernel32:KERNEL32.dll
 0002:000002c8       __imp_RtlUnwindEx          00000001800432c8     kernel32:KERNEL32.dll
 0002:000002d0       __imp_HeapAlloc            00000001800432d0     kernel32:KERNEL32.dll
 0002:000002d8       __imp_HeapFree             00000001800432d8     kernel32:KERNEL32.dll
 0002:000002e0       __imp_ExitProcess          00000001800432e0     kernel32:KERNEL32.dll
 0002:000002e8       __imp_GetModuleHandleExW   00000001800432e8     kernel32:KERNEL32.dll
 0002:000002f0       __imp_GetModuleFileNameA   00000001800432f0     kernel32:KERNEL32.dll
 0002:000002f8       __imp_MultiByteToWideChar  00000001800432f8     kernel32:KERNEL32.dll
 0002:00000300       __imp_GetACP               0000000180043300     kernel32:KERNEL32.dll
 0002:00000308       __imp_GetStringTypeW       0000000180043308     kernel32:KERNEL32.dll
 0002:00000310       __imp_GetProcessHeap       0000000180043310     kernel32:KERNEL32.dll
 0002:00000318       __imp_LCMapStringW         0000000180043318     kernel32:KERNEL32.dll
 0002:00000320       __imp_FindClose            0000000180043320     kernel32:KERNEL32.dll
 0002:00000328       __imp_FindFirstFileExA     0000000180043328     kernel32:KERNEL32.dll
 0002:00000330       __imp_FindNextFileA        0000000180043330     kernel32:KERNEL32.dll
 0002:00000338       __imp_IsValidCodePage      0000000180043338     kernel32:KERNEL32.dll
 0002:00000340       __imp_GetOEMCP             0000000180043340     kernel32:KERNEL32.dll
 0002:00000348       __imp_GetCPInfo            0000000180043348     kernel32:KERNEL32.dll
 0002:00000350       __imp_GetCommandLineA      0000000180043350     kernel32:KERNEL32.dll
 0002:00000358       __imp_GetCommandLineW      0000000180043358     kernel32:KERNEL32.dll
 0002:00000360       __imp_GetEnvironmentStringsW 0000000180043360     kernel32:KERNEL32.dll
 0002:00000368       __imp_FreeEnvironmentStringsW 0000000180043368     kernel32:KERNEL32.dll
 0002:00000370       __imp_DecodePointer        0000000180043370     kernel32:KERNEL32.dll
 0002:00000378       \177KERNEL32_NULL_THUNK_DATA 0000000180043378     kernel32:KERNEL32.dll
 0002:00000380       __imp_WSADuplicateSocketW  0000000180043380     Ws2_32:WS2_32.dll
 0002:00000388       __imp_WSASocketW           0000000180043388     Ws2_32:WS2_32.dll
 0002:00000390       __imp_getpeername          0000000180043390     Ws2_32:WS2_32.dll
 0002:00000398       __imp_inet_ntop            0000000180043398     Ws2_32:WS2_32.dll
 0002:000003a0       __imp_accept               00000001800433a0     Ws2_32:WS2_32.dll
 0002:000003a8       __imp_bind                 00000001800433a8     Ws2_32:WS2_32.dll
 0002:000003b0       __imp_listen               00000001800433b0     Ws2_32:WS2_32.dll
 0002:000003b8       __imp_getaddrinfo          00000001800433b8     Ws2_32:WS2_32.dll
 0002:000003c0       __imp_socket               00000001800433c0     Ws2_32:WS2_32.dll
 0002:000003c8       __imp_connect              00000001800433c8     Ws2_32:WS2_32.dll
 0002:000003d0       __imp_recv                 00000001800433d0     Ws2_32:WS2_32.dll
 0002:000003d8       __imp_freeaddrinfo         00000001800433d8     Ws2_32:WS2_32.dll
 0002:000003e0       __imp_setsockopt           00000001800433e0     Ws2_32:WS2_32.dll
 0002:000003e8       __imp_WSACleanup           00000001800433e8     Ws2_32:WS2_32.dll
 0002:000003f0       __imp_WSAStartup           00000001800433f0     Ws2_32:WS2_32.dll
 0002:000003f8       __imp_ntohs                00000001800433f8     Ws2_32:WS2_32.dll
 0002:00000400       __imp_htons                0000000180043400     Ws2_32:WS2_32.dll
 0002:00000408       __imp_closesocket          0000000180043408     Ws2_32:WS2_32.dll
 0002:00000410       __imp_shutdown             0000000180043410     Ws2_32:WS2_32.dll
 0002:00000418       __imp_send                 0000000180043418     Ws2_32:WS2_32.dll
 0002:00000420       \177WS2_32_NULL_THUNK_DATA 0000000180043420     Ws2_32:WS2_32.dll
 0002:00000428       __guard_check_icall_fptr   0000000180043428     LIBCMT:guard_support.obj
 0002:00000430       __guard_dispatch_icall_fptr 0000000180043430     LIBCMT:guard_support.obj
 0002:00000438       __xc_a                     0000000180043438     LIBCMT:initializers.obj
 0002:00000468       _register_uws_             0000000180043468     addon.obj
 0002:00000490       __xc_z                     0000000180043490     LIBCMT:initializers.obj
 0002:00000498       __xi_a                     0000000180043498     LIBCMT:initializers.obj
 0002:000004a8       __acrt_stdio_initializer   00000001800434a8     libucrt:stdio_initializer.obj
 0002:000004b0       __acrt_multibyte_initializer 00000001800434b0     libucrt:multibyte_initializer.obj
 0002:000004b8       __acrt_tran_fma3_initializer 00000001800434b8     libucrt:fma3_initializer.obj
 0002:000004c0       __xi_z                     00000001800434c0     LIBCMT:initializers.obj
 0002:000004c8       __xl_a                     00000001800434c8     LIBCMT:tlssup.obj
 0002:000004d0       __xl_z                     00000001800434d0     LIBCMT:tlssup.obj
 0002:000004d8       __xp_a                     00000001800434d8     LIBCMT:initializers.obj
 0002:000004e8       __acrt_locale_terminator   00000001800434e8     libucrt:locale_initializer.obj
 0002:000004f0       __dcrt_console_output_terminator 00000001800434f0     libucrt:console_output_initializer.obj
 0002:000004f8       __acrt_stdio_terminator    00000001800434f8     libucrt:stdio_initializer.obj
 0002:00000500       __xp_z                     0000000180043500     LIBCMT:initializers.obj
 0002:00000508       __xt_a                     0000000180043508     LIBCMT:initializers.obj
 0002:00000510       __xt_z                     0000000180043510     LIBCMT:initializers.obj
 0002:00000520       __sz_node_exe              0000000180043520     node:node.exe
 0002:00000538       ??_7exception@std@@6B@     0000000180043538     libcpmt:xthrow.obj
 0002:00000548       ??_C@_0BC@EOODALEL@Unknown?5exception?$AA@ 0000000180043548     libcpmt:xthrow.obj
 0002:00000568       ??_7bad_alloc@std@@6B@     0000000180043568     libcpmt:xthrow.obj
 0002:00000578       ??_C@_0P@GHFPNOJB@bad?5allocation?$AA@ 0000000180043578     libcpmt:xthrow.obj
 0002:00000590       ??_7logic_error@std@@6B@   0000000180043590     libcpmt:xthrow.obj
 0002:000005a8       ??_7invalid_argument@std@@6B@ 00000001800435a8     libcpmt:xthrow.obj
 0002:000005c0       ??_7length_error@std@@6B@  00000001800435c0     libcpmt:xthrow.obj
 0002:000005d8       ??_7out_of_range@std@@6B@  00000001800435d8     libcpmt:xthrow.obj
 0002:000005f0       ??_7runtime_error@std@@6B@ 00000001800435f0     libcpmt:xthrow.obj
 0002:00000608       ??_7bad_function_call@std@@6B@ 0000000180043608     libcpmt:xthrow.obj
 0002:00000618       ??_C@_0BC@DPJNKNAF@bad?5function?5call?$AA@ 0000000180043618     libcpmt:xthrow.obj
 0002:00000688       ??_C@_0BI@NGCEHDD@device?5or?5resource?5busy?$AA@ 0000000180043688     libcpmt:thread0.obj
 0002:000006a0       ??_C@_0BB@FCMFBGOM@invalid?5argument?$AA@ 00000001800436a0     libcpmt:thread0.obj
 0002:000006b8       ??_C@_0BA@ENLPPKBN@no?5such?5process?$AA@ 00000001800436b8     libcpmt:thread0.obj
 0002:000006c8       ??_C@_0BC@ENOOLCNF@not?5enough?5memory?$AA@ 00000001800436c8     libcpmt:thread0.obj
 0002:000006e0       ??_C@_0BI@OHIEJAAB@operation?5not?5permitted?$AA@ 00000001800436e0     libcpmt:thread0.obj
 0002:000006f8       ??_C@_0BO@BJBOMOEJ@resource?5deadlock?5would?5occur?$AA@ 00000001800436f8     libcpmt:thread0.obj
 0002:00000718       ??_C@_0BP@LKNGHENJ@resource?5unavailable?5try?5again?$AA@ 0000000180043718     libcpmt:thread0.obj
 0002:00000790       ??_7error_category@std@@6B@ 0000000180043790     libcpmt:thread0.obj
 0002:000007c8       ??_7_System_error@std@@6B@ 00000001800437c8     libcpmt:thread0.obj
 0002:000007d8       ??_C@_02LMMGGCAJ@?3?5?$AA@ 00000001800437d8     libcpmt:thread0.obj
 0002:000007e8       ??_7system_error@std@@6B@  00000001800437e8     libcpmt:thread0.obj
 0002:00000800       ??_7_Generic_error_category@std@@6B@ 0000000180043800     libcpmt:thread0.obj
 0002:00000830       ??_C@_07DCLBNMLN@generic?$AA@ 0000000180043830     libcpmt:thread0.obj
 0002:00000868       ??_7stl_critical_section_vista@details@Concurrency@@6B@ 0000000180043868     libcpmt:mutex.obj
 0002:00000898       ??_7stl_critical_section_win7@details@Concurrency@@6B@ 0000000180043898     libcpmt:mutex.obj
 0002:000008c8       ??_7stl_critical_section_concrt@details@Concurrency@@6B@ 00000001800438c8     libcpmt:mutex.obj
 0002:00001020       ??_C@_0BN@LKKBCCDB@address?5family?5not?5supported?$AA@ 0000000180044020     libcpmt:syserror.obj
 0002:00001040       ??_C@_0P@LDMLAFHI@address?5in?5use?$AA@ 0000000180044040     libcpmt:syserror.obj
 0002:00001050       ??_C@_0BG@DHPCNBJB@address?5not?5available?$AA@ 0000000180044050     libcpmt:syserror.obj
 0002:00001068       ??_C@_0BC@DFIBIBIL@already?5connected?$AA@ 0000000180044068     libcpmt:syserror.obj
 0002:00001080       ??_C@_0BH@CAKOHOMI@argument?5list?5too?5long?$AA@ 0000000180044080     libcpmt:syserror.obj
 0002:00001098       ??_C@_0BH@CGIMPKIM@argument?5out?5of?5domain?$AA@ 0000000180044098     libcpmt:syserror.obj
 0002:000010b0       ??_C@_0M@KGHGGJGL@bad?5address?$AA@ 00000001800440b0     libcpmt:syserror.obj
 0002:000010c0       ??_C@_0BE@MPJPGCEO@bad?5file?5descriptor?$AA@ 00000001800440c0     libcpmt:syserror.obj
 0002:000010d8       ??_C@_0M@PMMIEFCP@bad?5message?$AA@ 00000001800440d8     libcpmt:syserror.obj
 0002:000010e8       ??_C@_0M@KPHOFDBE@broken?5pipe?$AA@ 00000001800440e8     libcpmt:syserror.obj
 0002:000010f8       ??_C@_0BD@MGNDDEGM@connection?5aborted?$AA@ 00000001800440f8     libcpmt:syserror.obj
 0002:00001110       ??_C@_0BP@KAIHPOGN@connection?5already?5in?5progress?$AA@ 0000000180044110     libcpmt:syserror.obj
 0002:00001130       ??_C@_0BD@PJLIIJEL@connection?5refused?$AA@ 0000000180044130     libcpmt:syserror.obj
 0002:00001148       ??_C@_0BB@IECNJNOI@connection?5reset?$AA@ 0000000180044148     libcpmt:syserror.obj
 0002:00001160       ??_C@_0BC@PPHBOELF@cross?5device?5link?$AA@ 0000000180044160     libcpmt:syserror.obj
 0002:00001178       ??_C@_0BN@KDMIFEIP@destination?5address?5required?$AA@ 0000000180044178     libcpmt:syserror.obj
 0002:00001198       ??_C@_0BE@JIDOCPHM@directory?5not?5empty?$AA@ 0000000180044198     libcpmt:syserror.obj
 0002:000011b0       ??_C@_0BI@BNCLIGPB@executable?5format?5error?$AA@ 00000001800441b0     libcpmt:syserror.obj
 0002:000011c8       ??_C@_0M@MIDIAGJP@file?5exists?$AA@ 00000001800441c8     libcpmt:syserror.obj
 0002:000011d8       ??_C@_0P@DNAJLBJK@file?5too?5large?$AA@ 00000001800441d8     libcpmt:syserror.obj
 0002:000011e8       ??_C@_0BC@EJHOMAAK@filename?5too?5long?$AA@ 00000001800441e8     libcpmt:syserror.obj
 0002:00001200       ??_C@_0BH@KEFGLDAF@function?5not?5supported?$AA@ 0000000180044200     libcpmt:syserror.obj
 0002:00001218       ??_C@_0BB@DHFDFGDM@host?5unreachable?$AA@ 0000000180044218     libcpmt:syserror.obj
 0002:00001230       ??_C@_0BD@JPHBMONG@identifier?5removed?$AA@ 0000000180044230     libcpmt:syserror.obj
 0002:00001248       ??_C@_0BG@CDNPAGJK@illegal?5byte?5sequence?$AA@ 0000000180044248     libcpmt:syserror.obj
 0002:00001260       ??_C@_0CD@BNPLBMNA@inappropriate?5io?5control?5operati@ 0000000180044260     libcpmt:syserror.obj
 0002:00001288       ??_C@_0M@EGEKIIMP@interrupted?$AA@ 0000000180044288     libcpmt:syserror.obj
 0002:00001298       ??_C@_0N@OHAFKDEK@invalid?5seek?$AA@ 0000000180044298     libcpmt:syserror.obj
 0002:000012a8       ??_C@_08GLNPIFBN@io?5error?$AA@ 00000001800442a8     libcpmt:syserror.obj
 0002:000012b8       ??_C@_0P@FLLDBIDK@is?5a?5directory?$AA@ 00000001800442b8     libcpmt:syserror.obj
 0002:000012c8       ??_C@_0N@IFLPBIOP@message?5size?$AA@ 00000001800442c8     libcpmt:syserror.obj
 0002:000012d8       ??_C@_0N@KIIEAAIO@network?5down?$AA@ 00000001800442d8     libcpmt:syserror.obj
 0002:000012e8       ??_C@_0O@FNPDBHEE@network?5reset?$AA@ 00000001800442e8     libcpmt:syserror.obj
 0002:000012f8       ??_C@_0BE@IFNCKGE@network?5unreachable?$AA@ 00000001800442f8     libcpmt:syserror.obj
 0002:00001310       ??_C@_0BA@PFFCAOFK@no?5buffer?5space?$AA@ 0000000180044310     libcpmt:syserror.obj
 0002:00001320       ??_C@_0BB@IEPBLJHK@no?5child?5process?$AA@ 0000000180044320     libcpmt:syserror.obj
 0002:00001338       ??_C@_07PLECNNKG@no?5link?$AA@ 0000000180044338     libcpmt:syserror.obj
 0002:00001340       ??_C@_0BC@NJECKMKE@no?5lock?5available?$AA@ 0000000180044340     libcpmt:syserror.obj
 0002:00001358       ??_C@_0BF@PBGGPKKE@no?5message?5available?$AA@ 0000000180044358     libcpmt:syserror.obj
 0002:00001370       ??_C@_0L@EDOLMPAK@no?5message?$AA@ 0000000180044370     libcpmt:syserror.obj
 0002:00001380       ??_C@_0BD@EAMBFIDF@no?5protocol?5option?$AA@ 0000000180044380     libcpmt:syserror.obj
 0002:00001398       ??_C@_0BD@IJDJKDEA@no?5space?5on?5device?$AA@ 0000000180044398     libcpmt:syserror.obj
 0002:000013b0       ??_C@_0BE@MKFDAFMP@no?5stream?5resources?$AA@ 00000001800443b0     libcpmt:syserror.obj
 0002:000013c8       ??_C@_0BK@IMCPHCBI@no?5such?5device?5or?5address?$AA@ 00000001800443c8     libcpmt:syserror.obj
 0002:000013e8       ??_C@_0P@FDINDDOK@no?5such?5device?$AA@ 00000001800443e8     libcpmt:syserror.obj
 0002:000013f8       ??_C@_0BK@NDOCBPGE@no?5such?5file?5or?5directory?$AA@ 00000001800443f8     libcpmt:syserror.obj
 0002:00001418       ??_C@_0BA@DOCPFFJG@not?5a?5directory?$AA@ 0000000180044418     libcpmt:syserror.obj
 0002:00001428       ??_C@_0N@POEIPGGF@not?5a?5socket?$AA@ 0000000180044428     libcpmt:syserror.obj
 0002:00001438       ??_C@_0N@LGAPMMPI@not?5a?5stream?$AA@ 0000000180044438     libcpmt:syserror.obj
 0002:00001448       ??_C@_0O@GLMIBBEG@not?5connected?$AA@ 0000000180044448     libcpmt:syserror.obj
 0002:00001458       ??_C@_0O@NHEDABJP@not?5supported?$AA@ 0000000180044458     libcpmt:syserror.obj
 0002:00001468       ??_C@_0BD@MOLBPMEA@operation?5canceled?$AA@ 0000000180044468     libcpmt:syserror.obj
 0002:00001480       ??_C@_0BG@KDKHOPCO@operation?5in?5progress?$AA@ 0000000180044480     libcpmt:syserror.obj
 0002:00001498       ??_C@_0BI@LNEGIFLN@operation?5not?5supported?$AA@ 0000000180044498     libcpmt:syserror.obj
 0002:000014b0       ??_C@_0BG@OEMDKMEE@operation?5would?5block?$AA@ 00000001800444b0     libcpmt:syserror.obj
 0002:000014c8       ??_C@_0L@BLPOFLNJ@owner?5dead?$AA@ 00000001800444c8     libcpmt:syserror.obj
 0002:000014d8       ??_C@_0BC@CIJDGCDI@permission?5denied?$AA@ 00000001800444d8     libcpmt:syserror.obj
 0002:000014f0       ??_C@_0P@FNPOCJBE@protocol?5error?$AA@ 00000001800444f0     libcpmt:syserror.obj
 0002:00001500       ??_C@_0BH@JPPPLHJB@protocol?5not?5supported?$AA@ 0000000180044500     libcpmt:syserror.obj
 0002:00001518       ??_C@_0BG@EICBIHDP@read?5only?5file?5system?$AA@ 0000000180044518     libcpmt:syserror.obj
 0002:00001530       ??_C@_0BE@GOIPJJHG@result?5out?5of?5range?$AA@ 0000000180044530     libcpmt:syserror.obj
 0002:00001548       ??_C@_0BG@MPLKFPAE@state?5not?5recoverable?$AA@ 0000000180044548     libcpmt:syserror.obj
 0002:00001560       ??_C@_0P@DIIFGFCG@stream?5timeout?$AA@ 0000000180044560     libcpmt:syserror.obj
 0002:00001570       ??_C@_0P@IPFDMIFL@text?5file?5busy?$AA@ 0000000180044570     libcpmt:syserror.obj
 0002:00001580       ??_C@_09KJPPMAOI@timed?5out?$AA@ 0000000180044580     libcpmt:syserror.obj
 0002:00001590       ??_C@_0BO@HACHBEKI@too?5many?5files?5open?5in?5system?$AA@ 0000000180044590     libcpmt:syserror.obj
 0002:000015b0       ??_C@_0BE@GHAFMPAH@too?5many?5files?5open?$AA@ 00000001800445b0     libcpmt:syserror.obj
 0002:000015c8       ??_C@_0P@HCOMKFCC@too?5many?5links?$AA@ 00000001800445c8     libcpmt:syserror.obj
 0002:000015d8       ??_C@_0BO@EFGOJEF@too?5many?5symbolic?5link?5levels?$AA@ 00000001800445d8     libcpmt:syserror.obj
 0002:000015f8       ??_C@_0BA@KGKGOOJA@value?5too?5large?$AA@ 00000001800445f8     libcpmt:syserror.obj
 0002:00001608       ??_C@_0BE@MIEJDDNH@wrong?5protocol?5type?$AA@ 0000000180044608     libcpmt:syserror.obj
 0002:00001620       ??_C@_0O@BFJCFAAK@unknown?5error?$AA@ 0000000180044620     libcpmt:syserror.obj
 0002:00001630       ??_C@_1BK@MGMFAEKH@?$AAk?$AAe?$AAr?$AAn?$AAe?$AAl?$AA3?$AA2?$AA?4?$AAd?$AAl?$AAl?$AA?$AA@ 0000000180044630     libcpmt:winapisupp.obj
 0002:00001650       ??_C@_08KNHFBNJ@FlsAlloc?$AA@ 0000000180044650     libcpmt:winapisupp.obj
 0002:00001660       ??_C@_07PEJMOBNF@FlsFree?$AA@ 0000000180044660     libcpmt:winapisupp.obj
 0002:00001668       ??_C@_0M@GDNOONDI@FlsGetValue?$AA@ 0000000180044668     libcpmt:winapisupp.obj
 0002:00001678       ??_C@_0M@JCPCPOEF@FlsSetValue?$AA@ 0000000180044678     libcpmt:winapisupp.obj
 0002:00001688       ??_C@_0BM@HCFOFFN@InitializeCriticalSectionEx?$AA@ 0000000180044688     libcpmt:winapisupp.obj
 0002:000016a8       ??_C@_0BE@GPLMMCMH@InitOnceExecuteOnce?$AA@ 00000001800446a8     libcpmt:winapisupp.obj
 0002:000016c0       ??_C@_0P@DLHPPCNH@CreateEventExW?$AA@ 00000001800446c0     libcpmt:winapisupp.obj
 0002:000016d0       ??_C@_0BB@MEFPJLHN@CreateSemaphoreW?$AA@ 00000001800446d0     libcpmt:winapisupp.obj
 0002:000016e8       ??_C@_0BD@KIEEOEEH@CreateSemaphoreExW?$AA@ 00000001800446e8     libcpmt:winapisupp.obj
 0002:00001700       ??_C@_0BG@OGFAJCKC@CreateThreadpoolTimer?$AA@ 0000000180044700     libcpmt:winapisupp.obj
 0002:00001718       ??_C@_0BD@LPLEMMDI@SetThreadpoolTimer?$AA@ 0000000180044718     libcpmt:winapisupp.obj
 0002:00001730       ??_C@_0CA@FMNJENH@WaitForThreadpoolTimerCallbacks?$AA@ 0000000180044730     libcpmt:winapisupp.obj
 0002:00001750       ??_C@_0BF@DCFCCNOC@CloseThreadpoolTimer?$AA@ 0000000180044750     libcpmt:winapisupp.obj
 0002:00001768       ??_C@_0BF@FLABGKKM@CreateThreadpoolWait?$AA@ 0000000180044768     libcpmt:winapisupp.obj
 0002:00001780       ??_C@_0BC@MGCOHNA@SetThreadpoolWait?$AA@ 0000000180044780     libcpmt:winapisupp.obj
 0002:00001798       ??_C@_0BE@OCIOMIMP@CloseThreadpoolWait?$AA@ 0000000180044798     libcpmt:winapisupp.obj
 0002:000017b0       ??_C@_0BJ@LKGHFHBO@FlushProcessWriteBuffers?$AA@ 00000001800447b0     libcpmt:winapisupp.obj
 0002:000017d0       ??_C@_0BP@KALKKPMO@FreeLibraryWhenCallbackReturns?$AA@ 00000001800447d0     libcpmt:winapisupp.obj
 0002:000017f0       ??_C@_0BK@DFNBACLA@GetCurrentProcessorNumber?$AA@ 00000001800447f0     libcpmt:winapisupp.obj
 0002:00001810       ??_C@_0BE@FKKLLFLM@CreateSymbolicLinkW?$AA@ 0000000180044810     libcpmt:winapisupp.obj
 0002:00001828       ??_C@_0BE@JOGNEJCI@GetCurrentPackageId?$AA@ 0000000180044828     libcpmt:winapisupp.obj
 0002:00001840       ??_C@_0P@CDHHOHKP@GetTickCount64?$AA@ 0000000180044840     libcpmt:winapisupp.obj
 0002:00001850       ??_C@_0BN@NEEHBBPO@GetFileInformationByHandleEx?$AA@ 0000000180044850     libcpmt:winapisupp.obj
 0002:00001870       ??_C@_0BL@KBBHGKCM@SetFileInformationByHandle?$AA@ 0000000180044870     libcpmt:winapisupp.obj
 0002:00001890       ??_C@_0BP@FPNJPEJC@GetSystemTimePreciseAsFileTime?$AA@ 0000000180044890     libcpmt:winapisupp.obj
 0002:000018b0       ??_C@_0BM@HLJJNPAH@InitializeConditionVariable?$AA@ 00000001800448b0     libcpmt:winapisupp.obj
 0002:000018d0       ??_C@_0BG@BFNILBLN@WakeConditionVariable?$AA@ 00000001800448d0     libcpmt:winapisupp.obj
 0002:000018e8       ??_C@_0BJ@PGPPEPCC@WakeAllConditionVariable?$AA@ 00000001800448e8     libcpmt:winapisupp.obj
 0002:00001908       ??_C@_0BJ@JEBJOJFJ@SleepConditionVariableCS?$AA@ 0000000180044908     libcpmt:winapisupp.obj
 0002:00001928       ??_C@_0BC@MMLHEBPB@InitializeSRWLock?$AA@ 0000000180044928     libcpmt:winapisupp.obj
 0002:00001940       ??_C@_0BI@OMNLIJDB@AcquireSRWLockExclusive?$AA@ 0000000180044940     libcpmt:winapisupp.obj
 0002:00001958       ??_C@_0BL@OGHFEMNA@TryAcquireSRWLockExclusive?$AA@ 0000000180044958     libcpmt:winapisupp.obj
 0002:00001978       ??_C@_0BI@HMIEPCNJ@ReleaseSRWLockExclusive?$AA@ 0000000180044978     libcpmt:winapisupp.obj
 0002:00001990       ??_C@_0BK@LGACAGIC@SleepConditionVariableSRW?$AA@ 0000000180044990     libcpmt:winapisupp.obj
 0002:000019b0       ??_C@_0BF@GGPHFPJA@CreateThreadpoolWork?$AA@ 00000001800449b0     libcpmt:winapisupp.obj
 0002:000019c8       ??_C@_0BF@NHDAIMMO@SubmitThreadpoolWork?$AA@ 00000001800449c8     libcpmt:winapisupp.obj
 0002:000019e0       ??_C@_0BE@NPHIPNPD@CloseThreadpoolWork?$AA@ 00000001800449e0     libcpmt:winapisupp.obj
 0002:000019f8       ??_C@_0BA@IHGNDAEB@CompareStringEx?$AA@ 00000001800449f8     libcpmt:winapisupp.obj
 0002:00001a08       ??_C@_0BA@ONOKGCMP@GetLocaleInfoEx?$AA@ 0000000180044a08     libcpmt:winapisupp.obj
 0002:00001a18       ??_C@_0O@KKBNKAPF@LCMapStringEx?$AA@ 0000000180044a18     libcpmt:winapisupp.obj
 0002:00001a30       ??_7type_info@@6B@         0000000180044a30     LIBCMT:std_type_info_static.obj
 0002:00001a38       _pRawDllMain               0000000180044a38     LIBCMT:dll_dllmain.obj
 0002:00001a38       _pDefaultRawDllMain        0000000180044a38     LIBCMT:dll_dllmain.obj
 0002:00001a58       ??_7bad_array_new_length@std@@6B@ 0000000180044a58     LIBCMT:throw_bad_alloc.obj
 0002:00001a68       ??_C@_0BF@KINCDENJ@bad?5array?5new?5length?$AA@ 0000000180044a68     LIBCMT:throw_bad_alloc.obj
 0002:00001b00       ??_7improper_lock@Concurrency@@6B@ 0000000180044b00     libconcrt:rtlocks.obj
 0002:00001b10       ??_C@_0BD@BAGHDICJ@Lock?5already?5taken?$AA@ 0000000180044b10     libconcrt:rtlocks.obj
 0002:00001b30       ??_7scheduler_resource_allocation_error@Concurrency@@6B@ 0000000180044b30     libconcrt:Platform.obj
 0002:00001b40       ??_C@_0BH@CJPDKMEB@SetThreadGroupAffinity?$AA@ 0000000180044b40     libconcrt:Platform.obj
 0002:00001b58       ??_C@_0BH@CINNILJO@GetThreadGroupAffinity?$AA@ 0000000180044b58     libconcrt:Platform.obj
 0002:00001b70       ??_C@_0BM@JLHMEGJA@GetCurrentProcessorNumberEx?$AA@ 0000000180044b70     libconcrt:Platform.obj
 0002:00001b90       ??_C@_0CB@HOJBBPPI@GetLogicalProcessorInformationEx@ 0000000180044b90     libconcrt:Platform.obj
 0002:00001bc0       ??_7scheduler_worker_creation_error@Concurrency@@6B@ 0000000180044bc0     libconcrt:Exceptions.obj
 0002:00001bd8       ??_7unsupported_os@Concurrency@@6B@ 0000000180044bd8     libconcrt:Exceptions.obj
 0002:00001bf0       ??_7improper_scheduler_attach@Concurrency@@6B@ 0000000180044bf0     libconcrt:Exceptions.obj
 0002:00001c08       ??_7improper_scheduler_reference@Concurrency@@6B@ 0000000180044c08     libconcrt:Exceptions.obj
 0002:00001c20       ??_7context_unblock_unbalanced@Concurrency@@6B@ 0000000180044c20     libconcrt:Exceptions.obj
 0002:00001c38       ??_7context_self_unblock@Concurrency@@6B@ 0000000180044c38     libconcrt:Exceptions.obj
 0002:00001c50       ??_7missing_wait@Concurrency@@6B@ 0000000180044c50     libconcrt:Exceptions.obj
 0002:00001c68       ??_7invalid_scheduler_policy_key@Concurrency@@6B@ 0000000180044c68     libconcrt:Exceptions.obj
 0002:00001c80       ??_7invalid_scheduler_policy_value@Concurrency@@6B@ 0000000180044c80     libconcrt:Exceptions.obj
 0002:00001c98       ??_7invalid_scheduler_policy_thread_specification@Concurrency@@6B@ 0000000180044c98     libconcrt:Exceptions.obj
 0002:00001cb0       ??_7nested_scheduler_missing_detach@Concurrency@@6B@ 0000000180044cb0     libconcrt:Exceptions.obj
 0002:00001cc8       ??_7invalid_oversubscribe_operation@Concurrency@@6B@ 0000000180044cc8     libconcrt:Exceptions.obj
 0002:00001f60       ??_7invalid_operation@Concurrency@@6B@ 0000000180044f60     libconcrt:ResourceManager.obj
 0002:00001f78       ??_7TopologyObject@GlobalCore@details@Concurrency@@6B@ 0000000180044f78     libconcrt:ResourceManager.obj
 0002:00001f90       ??_7TopologyObject@GlobalNode@details@Concurrency@@6B@ 0000000180044f90     libconcrt:ResourceManager.obj
 0002:00001fc0       ??_7ResourceManager@details@Concurrency@@6B@ 0000000180044fc0     libconcrt:ResourceManager.obj
 0002:00001ff0       ??_C@_05IOMEMJEC@count?$AA@ 0000000180044ff0     libconcrt:ResourceManager.obj
 0002:00001ff8       ??_C@_0L@HKFDMHB@pScheduler?$AA@ 0000000180044ff8     libconcrt:ResourceManager.obj
 0002:00002008       ??_C@_07CPCPJPKL@version?$AA@ 0000000180045008     libconcrt:ResourceManager.obj
 0002:00002010       __real@0000000000000000    0000000180045010     libconcrt:ResourceManager.obj
 0002:00002018       __real@3e7ad7f29abcaf48    0000000180045018     libconcrt:ResourceManager.obj
 0002:00002020       __real@3ff0000000000000    0000000180045020     libconcrt:ResourceManager.obj
 0002:00002028       ?s_maxExternalAllocators@SchedulerBase@details@Concurrency@@0HB 0000000180045028     libconcrt:SchedulerBase.obj
 0002:0000202c       ?s_allocatorFreePoolLimit@SchedulerBase@details@Concurrency@@0HB 000000018004502c     libconcrt:SchedulerBase.obj
 0002:00002330       ??_7ScheduleGroup@Concurrency@@6B@ 0000000180045330     libconcrt:SchedulerBase.obj
 0002:00002360       ??_7Scheduler@Concurrency@@6B@ 0000000180045360     libconcrt:SchedulerBase.obj
 0002:000023d0       ??_7_Chore@details@Concurrency@@6B@ 00000001800453d0     libconcrt:SchedulerBase.obj
 0002:000023e0       ??_7RealizedChore@details@Concurrency@@6B@ 00000001800453e0     libconcrt:SchedulerBase.obj
 0002:000023f0       ??_7SchedulerBase@details@Concurrency@@6B@ 00000001800453f0     libconcrt:SchedulerBase.obj
 0002:000024b8       ??_7CacheLocalScheduleGroupSegment@details@Concurrency@@6B@ 00000001800454b8     libconcrt:SchedulerBase.obj
 0002:000024e0       ??_7CacheLocalScheduleGroup@details@Concurrency@@6B@ 00000001800454e0     libconcrt:SchedulerBase.obj
 0002:00002538       ??_7FairScheduleGroupSegment@details@Concurrency@@6B@ 0000000180045538     libconcrt:SchedulerBase.obj
 0002:00002560       ??_7FairScheduleGroup@details@Concurrency@@6B@ 0000000180045560     libconcrt:SchedulerBase.obj
 0002:000025b0       ??_C@_0M@IAPOLKMH@eventObject?$AA@ 00000001800455b0     libconcrt:SchedulerBase.obj
 0002:000025c0       ??_C@_0BI@PMOAFEOC@ppVirtualProcessorRoots?$AA@ 00000001800455c0     libconcrt:SchedulerBase.obj
 0002:00002748       ??_7WaitBlock@details@Concurrency@@6B@ 0000000180045748     libconcrt:event.obj
 0002:00002778       ??_7SingleWaitBlock@details@Concurrency@@6B@ 0000000180045778     libconcrt:event.obj
 0002:000027a8       ??_7MultiWaitBlock@details@Concurrency@@6B@ 00000001800457a8     libconcrt:event.obj
 0002:000027e0       ??_7WaitAllBlock@details@Concurrency@@6B@ 00000001800457e0     libconcrt:event.obj
 0002:00002818       ??_7WaitAnyBlock@details@Concurrency@@6B@ 0000000180045818     libconcrt:event.obj
 0002:00002850       ??_7TimedSingleWaitBlock@details@Concurrency@@6B@ 0000000180045850     libconcrt:event.obj
 0002:00002880       ??_7?$_MallocaArrayHolder@PEAVContext@Concurrency@@@details@Concurrency@@6B@ 0000000180045880     libconcrt:event.obj
 0002:00002888       ??_C@_07CAAEJHLA@pEvents?$AA@ 0000000180045888     libconcrt:event.obj
 0002:000029d8       ??_7Context@Concurrency@@6B@ 00000001800459d8     libconcrt:ContextBase.obj
 0002:00002a10       ??_7ContextBase@details@Concurrency@@6B@ 0000000180045a10     libconcrt:ContextBase.obj
 0002:00002c60       ?_Upper@?1??_Memory_order_upper_bound@std@@YA?AW4memory_order@2@W432@0@Z@4QAY05$$CBW432@A 0000000180045c60     libconcrt:TaskCollection.obj
 0002:00002cf8       ??_7_Interruption_exception@details@Concurrency@@6B@ 0000000180045cf8     libconcrt:TaskCollection.obj
 0002:00002d10       ??_7_RefCounter@details@Concurrency@@6B@ 0000000180045d10     libconcrt:TaskCollection.obj
 0002:00002d28       ??_7_CancellationTokenRegistration@details@Concurrency@@6B@ 0000000180045d28     libconcrt:TaskCollection.obj
 0002:00002d48       ??_7CancellationTokenRegistration_TaskProc@details@Concurrency@@6B@ 0000000180045d48     libconcrt:TaskCollection.obj
 0002:00002d68       ??_7?$_MallocaArrayHolder@PEAVevent@Concurrency@@@details@Concurrency@@6B@ 0000000180045d68     libconcrt:TaskCollection.obj
 0002:00002d70       ??_C@_0O@JJAHDPNG@SchedulerKind?$AA@ 0000000180045d70     libconcrt:SchedulerPolicyBase.obj
 0002:00002d80       ??_C@_0P@CGAHIHHE@MaxConcurrency?$AA@ 0000000180045d80     libconcrt:SchedulerPolicyBase.obj
 0002:00002d90       ??_C@_0P@BLMOAEF@MinConcurrency?$AA@ 0000000180045d90     libconcrt:SchedulerPolicyBase.obj
 0002:00002da0       ??_C@_0BN@GKPFKNNF@TargetOversubscriptionFactor?$AA@ 0000000180045da0     libconcrt:SchedulerPolicyBase.obj
 0002:00002dc0       ??_C@_0BG@PCMPEOIE@LocalContextCacheSize?$AA@ 0000000180045dc0     libconcrt:SchedulerPolicyBase.obj
 0002:00002dd8       ??_C@_0BB@OPLJNNNB@ContextStackSize?$AA@ 0000000180045dd8     libconcrt:SchedulerPolicyBase.obj
 0002:00002df0       ??_C@_0BA@CHGPFLBM@ContextPriority?$AA@ 0000000180045df0     libconcrt:SchedulerPolicyBase.obj
 0002:00002e00       ??_C@_0BD@HMLGOEAM@SchedulingProtocol?$AA@ 0000000180045e00     libconcrt:SchedulerPolicyBase.obj
 0002:00002e18       ??_C@_0BI@PEDMDBKL@DynamicProgressFeedback?$AA@ 0000000180045e18     libconcrt:SchedulerPolicyBase.obj
 0002:00002e30       ??_C@_0BE@EBKJEJDK@WinRTInitialization?$AA@ 0000000180045e30     libconcrt:SchedulerPolicyBase.obj
 0002:00002e48       ??_C@_0BE@OJPKBKLL@MaxPolicyElementKey?$AA@ 0000000180045e48     libconcrt:SchedulerPolicyBase.obj
 0002:00002e90       ??_7ExecutionResource@details@Concurrency@@6B@ 0000000180045e90     libconcrt:ExecutionResource.obj
 0002:00002eb0       __real@3f1a36e2eb1c432d    0000000180045eb0     libconcrt:HillClimbing.obj
 0002:00002eb8       __real@3f70624dd2f1a9fc    0000000180045eb8     libconcrt:HillClimbing.obj
 0002:00002ec0       __real@3fc3333333333333    0000000180045ec0     libconcrt:HillClimbing.obj
 0002:00002ec8       __real@4024000000000000    0000000180045ec8     libconcrt:HillClimbing.obj
 0002:00002ed0       __real@bff0000000000000    0000000180045ed0     libconcrt:HillClimbing.obj
 0002:00002ee0       __xmm@7fffffffffffffff7fffffffffffffff 0000000180045ee0     libconcrt:HillClimbing.obj
 0002:00003100       ??_7SchedulerProxy@details@Concurrency@@6B@ 0000000180046100     libconcrt:SchedulerProxy.obj
 0002:00003150       ??_C@_08BAFMHLII@pContext?$AA@ 0000000180046150     libconcrt:SchedulerProxy.obj
 0002:00003160       ??_C@_0BD@HOFLOOHM@pExecutionResource?$AA@ 0000000180046160     libconcrt:SchedulerProxy.obj
 0002:00003178       ??_C@_0BF@PHKBGNNA@CreateRemoteThreadEx?$AA@ 0000000180046178     libconcrt:UMSWrapper.obj
 0002:00003190       ??_C@_0BI@OFOMFECC@CreateUmsCompletionList?$AA@ 0000000180046190     libconcrt:UMSWrapper.obj
 0002:000031a8       ??_C@_0BH@NBGNADAH@CreateUmsThreadContext?$AA@ 00000001800461a8     libconcrt:UMSWrapper.obj
 0002:000031c0       ??_C@_0BO@JONJJOMF@DeleteProcThreadAttributeList?$AA@ 00000001800461c0     libconcrt:UMSWrapper.obj
 0002:000031e0       ??_C@_0BI@BPKNDLMM@DeleteUmsCompletionList?$AA@ 00000001800461e0     libconcrt:UMSWrapper.obj
 0002:000031f8       ??_C@_0BH@JPDPIOBJ@DeleteUmsThreadContext?$AA@ 00000001800461f8     libconcrt:UMSWrapper.obj
 0002:00003210       ??_C@_0BO@GGFJEFKK@DequeueUmsCompletionListItems?$AA@ 0000000180046210     libconcrt:UMSWrapper.obj
 0002:00003230       ??_C@_0BH@BLPFNIKG@EnterUmsSchedulingMode?$AA@ 0000000180046230     libconcrt:UMSWrapper.obj
 0002:00003248       ??_C@_0BB@DHABPDKF@ExecuteUmsThread?$AA@ 0000000180046248     libconcrt:UMSWrapper.obj
 0002:00003260       ??_C@_0BE@FLBMLIK@GetCurrentUmsThread?$AA@ 0000000180046260     libconcrt:UMSWrapper.obj
 0002:00003278       ??_C@_0BD@FNFEEGCI@GetNextUmsListItem?$AA@ 0000000180046278     libconcrt:UMSWrapper.obj
 0002:00003290       ??_C@_0BK@MGNBLFMB@GetUmsCompletionListEvent?$AA@ 0000000180046290     libconcrt:UMSWrapper.obj
 0002:000032b0       ??_C@_0CC@PLANOPMM@InitializeProcThreadAttributeLis@ 00000001800462b0     libconcrt:UMSWrapper.obj
 0002:000032d8       ??_C@_0BK@DAKPFGE@QueryUmsThreadInformation?$AA@ 00000001800462d8     libconcrt:UMSWrapper.obj
 0002:000032f8       ??_C@_0BI@DPBBCPDB@SetUmsThreadInformation?$AA@ 00000001800462f8     libconcrt:UMSWrapper.obj
 0002:00003310       ??_C@_0P@ILGNBNP@UmsThreadYield?$AA@ 0000000180046310     libconcrt:UMSWrapper.obj
 0002:00003320       ??_C@_0BK@LCOMJCNI@UpdateProcThreadAttribute?$AA@ 0000000180046320     libconcrt:UMSWrapper.obj
 0002:00003340       ??_C@_1BI@IDAOOPDH@?$AAc?$AAo?$AAm?$AAb?$AAa?$AAs?$AAe?$AA?4?$AAd?$AAl?$AAl?$AA?$AA@ 0000000180046340     libconcrt:WinRTWrapper.obj
 0002:00003358       ??_C@_0N@PPOMPGGK@RoInitialize?$AA@ 0000000180046358     libconcrt:WinRTWrapper.obj
 0002:00003368       ??_C@_0P@LLFHBIJD@RoUninitialize?$AA@ 0000000180046368     libconcrt:WinRTWrapper.obj
 0002:00003420       ??_7FreeThreadProxy@details@Concurrency@@6B@ 0000000180046420     libconcrt:ThreadProxyFactoryManager.obj
 0002:00003458       ??_7IThreadProxyFactory@details@Concurrency@@6B@ 0000000180046458     libconcrt:ThreadProxyFactoryManager.obj
 0002:00003488       ?s_proxyStackSize@?$ThreadProxyFactory@VFreeThreadProxy@details@Concurrency@@@details@Concurrency@@1QBIB 0000000180046488     libconcrt:ThreadProxyFactoryManager.obj
 0002:000034a0       ??_7?$ThreadProxyFactory@VFreeThreadProxy@details@Concurrency@@@details@Concurrency@@6B@ 00000001800464a0     libconcrt:ThreadProxyFactoryManager.obj
 0002:000034f8       ??_7FreeThreadProxyFactory@details@Concurrency@@6B@ 00000001800464f8     libconcrt:ThreadProxyFactoryManager.obj
 0002:00003548       ?ConcRT_ProviderGuid@Concurrency@@3U_GUID@@B 0000000180046548     libconcrt:Trace.obj
 0002:00003558       ?ConcRTEventGuid@Concurrency@@3U_GUID@@B 0000000180046558     libconcrt:Trace.obj
 0002:00003568       ?SchedulerEventGuid@Concurrency@@3U_GUID@@B 0000000180046568     libconcrt:Trace.obj
 0002:00003578       ?ScheduleGroupEventGuid@Concurrency@@3U_GUID@@B 0000000180046578     libconcrt:Trace.obj
 0002:00003588       ?ContextEventGuid@Concurrency@@3U_GUID@@B 0000000180046588     libconcrt:Trace.obj
 0002:00003598       ?ChoreEventGuid@Concurrency@@3U_GUID@@B 0000000180046598     libconcrt:Trace.obj
 0002:000035a8       ?VirtualProcessorEventGuid@Concurrency@@3U_GUID@@B 00000001800465a8     libconcrt:Trace.obj
 0002:000035b8       ?LockEventGuid@Concurrency@@3U_GUID@@B 00000001800465b8     libconcrt:Trace.obj
 0002:000035c8       ?ResourceManagerEventGuid@Concurrency@@3U_GUID@@B 00000001800465c8     libconcrt:Trace.obj
 0002:000035d8       ?PPLParallelInvokeEventGuid@Concurrency@@3U_GUID@@B 00000001800465d8     libconcrt:Trace.obj
 0002:000035e8       ?PPLParallelForEventGuid@Concurrency@@3U_GUID@@B 00000001800465e8     libconcrt:Trace.obj
 0002:000035f8       ?PPLParallelForeachEventGuid@Concurrency@@3U_GUID@@B 00000001800465f8     libconcrt:Trace.obj
 0002:00003608       ?AgentEventGuid@Concurrency@@3U_GUID@@B 0000000180046608     libconcrt:Trace.obj
 0002:00003640       ??_C@_1BK@JHLNAEJL@?$AAa?$AAd?$AAv?$AAa?$AAp?$AAi?$AA3?$AA2?$AA?4?$AAd?$AAl?$AAl?$AA?$AA@ 0000000180046640     libconcrt:Trace.obj
 0002:00003660       ??_C@_0BE@FKJMGMF@RegisterTraceGuidsW?$AA@ 0000000180046660     libconcrt:Trace.obj
 0002:00003678       ??_C@_0BF@OFMMALCC@UnregisterTraceGuids?$AA@ 0000000180046678     libconcrt:Trace.obj
 0002:00003690       ??_C@_0L@EOLEDHLE@TraceEvent?$AA@ 0000000180046690     libconcrt:Trace.obj
 0002:000036a0       ??_C@_0BF@OFCGPMKL@GetTraceLoggerHandle?$AA@ 00000001800466a0     libconcrt:Trace.obj
 0002:000036b8       ??_C@_0BE@JCHMKLLJ@GetTraceEnableLevel?$AA@ 00000001800466b8     libconcrt:Trace.obj
 0002:000036d0       ??_C@_0BE@DNOHFPHI@GetTraceEnableFlags?$AA@ 00000001800466d0     libconcrt:Trace.obj
 0002:00003718       ??_7VirtualProcessor@details@Concurrency@@6B@ 0000000180046718     libconcrt:VirtualProcessor.obj
 0002:00003790       ?s_bucketSizes@SubAllocator@details@Concurrency@@0QBHB 0000000180046790     libconcrt:SubAllocator.obj
 0002:00003910       ?GranularityShift@SubAllocator@details@Concurrency@@0HB 0000000180046910     libconcrt:SubAllocator.obj
 0002:00003914       ?MaxAllocationSize@SubAllocator@details@Concurrency@@0HB 0000000180046914     libconcrt:SubAllocator.obj
 0002:00003a10       ??_7IExecutionContext@Concurrency@@6B@ 0000000180046a10     libconcrt:InternalContextBase.obj
 0002:00003a40       ??_7InternalContextBase@details@Concurrency@@6BIExecutionContext@2@@ 0000000180046a40     libconcrt:InternalContextBase.obj
 0002:00003a90       ??_7InternalContextBase@details@Concurrency@@6BContextBase@12@@ 0000000180046a90     libconcrt:InternalContextBase.obj
 0002:00003b20       ??_C@_0N@FACDCNDA@pThreadProxy?$AA@ 0000000180046b20     libconcrt:InternalContextBase.obj
 0002:00003cf0       ??_7ScheduleGroupSegmentBase@details@Concurrency@@6B@ 0000000180046cf0     libconcrt:ScheduleGroupBase.obj
 0002:00003d18       ??_7ScheduleGroupBase@details@Concurrency@@6B@ 0000000180046d18     libconcrt:ScheduleGroupBase.obj
 0002:00003d68       ??_C@_04MGCDEED@proc?$AA@  0000000180046d68     libconcrt:ScheduleGroupBase.obj
 0002:00003e18       ??_7ExternalContextBase@details@Concurrency@@6B@ 0000000180046e18     libconcrt:ExternalContextBase.obj
 0002:00003f28       ??_7IScheduler@Concurrency@@6B@ 0000000180046f28     libconcrt:ThreadScheduler.obj
 0002:00003f68       ??_7ThreadInternalContext@details@Concurrency@@6BIExecutionContext@2@@ 0000000180046f68     libconcrt:ThreadScheduler.obj
 0002:00003fb8       ??_7ThreadInternalContext@details@Concurrency@@6BContextBase@12@@ 0000000180046fb8     libconcrt:ThreadScheduler.obj
 0002:00004050       ??_7ThreadScheduler@details@Concurrency@@6BIScheduler@2@@ 0000000180047050     libconcrt:ThreadScheduler.obj
 0002:00004090       ??_7ThreadScheduler@details@Concurrency@@6BSchedulerBase@12@@ 0000000180047090     libconcrt:ThreadScheduler.obj
 0002:00004248       ??_7VirtualProcessorRoot@details@Concurrency@@6B@ 0000000180047248     libconcrt:VirtualProcessorRoot.obj
 0002:000042a0       ??_7FreeVirtualProcessorRoot@details@Concurrency@@6B@ 00000001800472a0     libconcrt:FreeVirtualProcessorRoot.obj
 0002:000042f0       ??_C@_0M@CIMHMGAD@switchState?$AA@ 00000001800472f0     libconcrt:FreeThreadProxy.obj
 0002:00004330       ??_7ThreadProxy@details@Concurrency@@6B@ 0000000180047330     libconcrt:ThreadProxy.obj
 0002:000043b8       ??_7ThreadVirtualProcessor@details@Concurrency@@6B@ 00000001800473b8     libconcrt:ThreadVirtualProcessor.obj
 0002:000044d8       _Microsoft_CRTProvider     00000001800474d8     libvcruntime:telemetry.obj
 0002:000044e0       ??_C@_11LOCGONAA@?$AA?$AA@ 00000001800474e0     libvcruntime:telemetry.obj
 0002:000044e8       ??_C@_0O@JEOPJOMI@Main?5Invoked?4?$AA@ 00000001800474e8     libvcruntime:telemetry.obj
 0002:000044f8       ??_C@_0P@NEAEIBDO@Main?5Returned?4?$AA@ 00000001800474f8     libvcruntime:telemetry.obj
 0002:00004508       _pDestructExceptionObject  0000000180047508     libvcruntime:frame.obj
 0002:00004518       ??_7bad_exception@std@@6B@ 0000000180047518     libvcruntime:frame.obj
 0002:00004528       ??_C@_0O@DPKOEFFH@bad?5exception?$AA@ 0000000180047528     libvcruntime:frame.obj
 0002:00004540       ??_7bad_cast@std@@6B@      0000000180047540     libvcruntime:rtti.obj
 0002:00004558       ??_7bad_typeid@std@@6B@    0000000180047558     libvcruntime:rtti.obj
 0002:00004570       ??_7__non_rtti_object@std@@6B@ 0000000180047570     libvcruntime:rtti.obj
 0002:00004580       ??_C@_0CB@CGKGGDFI@Access?5violation?5?9?5no?5RTTI?5data?$CB@ 0000000180047580     libvcruntime:rtti.obj
 0002:000045a8       ??_C@_0BC@JNJNLHBP@Bad?5dynamic_cast?$CB?$AA@ 00000001800475a8     libvcruntime:rtti.obj
 0002:000045e0       ??_C@_1BC@DNHGCMLG@?$AAa?$AAd?$AAv?$AAa?$AAp?$AAi?$AA3?$AA2?$AA?$AA@ 00000001800475e0     libvcruntime:winapi_downlevel.obj
 0002:000045f8       ??_C@_1DM@KHCHBNEB@?$AAa?$AAp?$AAi?$AA?9?$AAm?$AAs?$AA?9?$AAw?$AAi?$AAn?$AA?9?$AAc?$AAo?$AAr?$AAe?$AA?9?$AAf?$AAi?$AAb?$AAe?$AAr?$AAs?$AA?9?$AAl?$AA1?$AA?9?$AA1?$AA?9?$AA1?$AA?$AA@ 00000001800475f8     libvcruntime:winapi_downlevel.obj
 0002:00004638       ??_C@_1DK@LPPGFMPP@?$AAa?$AAp?$AAi?$AA?9?$AAm?$AAs?$AA?9?$AAw?$AAi?$AAn?$AA?9?$AAc?$AAo?$AAr?$AAe?$AA?9?$AAs?$AAy?$AAn?$AAc?$AAh?$AA?9?$AAl?$AA1?$AA?9?$AA2?$AA?9?$AA0?$AA?$AA@ 0000000180047638     libvcruntime:winapi_downlevel.obj
 0002:00004678       ??_C@_1BC@GDMECMAK@?$AAk?$AAe?$AAr?$AAn?$AAe?$AAl?$AA3?$AA2?$AA?$AA@ 0000000180047678     libvcruntime:winapi_downlevel.obj
 0002:00004690       ??_C@_0O@BAMBGLIE@EventRegister?$AA@ 0000000180047690     libvcruntime:winapi_downlevel.obj
 0002:000046a8       ??_C@_0BE@BJEEGHGK@EventSetInformation?$AA@ 00000001800476a8     libvcruntime:winapi_downlevel.obj
 0002:000046c0       ??_C@_0BA@FAKLIPIC@EventUnregister?$AA@ 00000001800476c0     libvcruntime:winapi_downlevel.obj
 0002:000046d8       ??_C@_0BD@PKLHJPHD@EventWriteTransfer?$AA@ 00000001800476d8     libvcruntime:winapi_downlevel.obj
 0002:00004a40       ??_C@_08EHJDFFNH@__based?$CI?$AA@ 0000000180047a40     libvcruntime:undname.obj
 0002:00004a50       ??_C@_07KOLFKCDI@__cdecl?$AA@ 0000000180047a50     libvcruntime:undname.obj
 0002:00004a58       ??_C@_08GHMPAG@__pascal?$AA@ 0000000180047a58     libvcruntime:undname.obj
 0002:00004a68       ??_C@_09IFJBGAPI@__stdcall?$AA@ 0000000180047a68     libvcruntime:undname.obj
 0002:00004a78       ??_C@_0L@NPHFGOKO@__thiscall?$AA@ 0000000180047a78     libvcruntime:undname.obj
 0002:00004a88       ??_C@_0L@JMKHOMEK@__fastcall?$AA@ 0000000180047a88     libvcruntime:undname.obj
 0002:00004a98       ??_C@_0N@BCKKPABJ@__vectorcall?$AA@ 0000000180047a98     libvcruntime:undname.obj
 0002:00004aa8       ??_C@_09HIJEGCPM@__clrcall?$AA@ 0000000180047aa8     libvcruntime:undname.obj
 0002:00004ab4       ??_C@_06GHPCKEAG@__eabi?$AA@ 0000000180047ab4     libvcruntime:undname.obj
 0002:00004ac0       ??_C@_07JOMMBBKO@__ptr64?$AA@ 0000000180047ac0     libvcruntime:undname.obj
 0002:00004ac8       ??_C@_0L@PILCLIHE@__restrict?$AA@ 0000000180047ac8     libvcruntime:undname.obj
 0002:00004ad8       ??_C@_0M@GFIIJFMG@__unaligned?$AA@ 0000000180047ad8     libvcruntime:undname.obj
 0002:00004ae8       ??_C@_09DHDLOLLB@restrict?$CI?$AA@ 0000000180047ae8     libvcruntime:undname.obj
 0002:00004af4       ??_C@_04NIHEBCM@?5new?$AA@ 0000000180047af4     libvcruntime:undname.obj
 0002:00004b00       ??_C@_07FPCDHGMM@?5delete?$AA@ 0000000180047b00     libvcruntime:undname.obj
 0002:00004b08       ??_C@_01NEMOKFLO@?$DN?$AA@ 0000000180047b08     libvcruntime:undname.obj
 0002:00004b0c       ??_C@_02GPIOPFAK@?$DO?$DO?$AA@ 0000000180047b0c     libvcruntime:undname.obj
 0002:00004b10       ??_C@_02FODMEDOG@?$DM?$DM?$AA@ 0000000180047b10     libvcruntime:undname.obj
 0002:00004b14       ??_C@_01DCLJPIOD@?$CB?$AA@ 0000000180047b14     libvcruntime:undname.obj
 0002:00004b18       ??_C@_02EGOFBIJA@?$DN?$DN?$AA@ 0000000180047b18     libvcruntime:undname.obj
 0002:00004b1c       ??_C@_02FDNJECIE@?$CB?$DN?$AA@ 0000000180047b1c     libvcruntime:undname.obj
 0002:00004b20       ??_C@_02GPECMEKF@?$FL?$FN?$AA@ 0000000180047b20     libvcruntime:undname.obj
 0002:00004b28       ??_C@_08LHJFAFGD@operator?$AA@ 0000000180047b28     libvcruntime:undname.obj
 0002:00004b34       ??_C@_02HBOOOICD@?9?$DO?$AA@ 0000000180047b34     libvcruntime:undname.obj
 0002:00004b38       ??_C@_01NBENCBCI@?$CK?$AA@ 0000000180047b38     libvcruntime:undname.obj
 0002:00004b3c       ??_C@_02ECNGHCIF@?$CL?$CL?$AA@ 0000000180047b3c     libvcruntime:undname.obj
 0002:00004b40       ??_C@_02BAABKJLB@?9?9?$AA@ 0000000180047b40     libvcruntime:undname.obj
 0002:00004b44       ??_C@_01JOAMLHOP@?9?$AA@   0000000180047b44     libvcruntime:undname.obj
 0002:00004b48       ??_C@_01MIFGBAGJ@?$CL?$AA@ 0000000180047b48     libvcruntime:undname.obj
 0002:00004b4c       ??_C@_01HNPIGOCE@?$CG?$AA@ 0000000180047b4c     libvcruntime:undname.obj
 0002:00004b50       ??_C@_03MNHNFDLC@?9?$DO?$CK?$AA@ 0000000180047b50     libvcruntime:undname.obj
 0002:00004b54       ??_C@_01FGNFDNOH@?$CF?$AA@ 0000000180047b54     libvcruntime:undname.obj
 0002:00004b58       ??_C@_01MNNFJEPP@?$DM?$AA@ 0000000180047b58     libvcruntime:undname.obj
 0002:00004b5c       ??_C@_02EHCHHCKH@?$DM?$DN?$AA@ 0000000180047b5c     libvcruntime:undname.obj
 0002:00004b60       ??_C@_01PPODPGHN@?$DO?$AA@ 0000000180047b60     libvcruntime:undname.obj
 0002:00004b64       ??_C@_02EEKDKGMJ@?$DO?$DN?$AA@ 0000000180047b64     libvcruntime:undname.obj
 0002:00004b68       ??_C@_01IHBHIGKO@?0?$AA@   0000000180047b68     libvcruntime:undname.obj
 0002:00004b6c       ??_C@_02HCKGKOFO@?$CI?$CJ?$AA@ 0000000180047b6c     libvcruntime:undname.obj
 0002:00004b70       ??_C@_01PJKLJHI@?$HO?$AA@  0000000180047b70     libvcruntime:undname.obj
 0002:00004b74       ??_C@_01JKBOJNNK@?$FO?$AA@ 0000000180047b74     libvcruntime:undname.obj
 0002:00004b78       ??_C@_01DNKMNLPK@?$HM?$AA@ 0000000180047b78     libvcruntime:undname.obj
 0002:00004b7c       ??_C@_02PPKAJPJL@?$CG?$CG?$AA@ 0000000180047b7c     libvcruntime:undname.obj
 0002:00004b80       ??_C@_02NONPIBCD@?$HM?$HM?$AA@ 0000000180047b80     libvcruntime:undname.obj
 0002:00004b84       ??_C@_02FPIMKNGF@?$CK?$DN?$AA@ 0000000180047b84     libvcruntime:undname.obj
 0002:00004b88       ??_C@_02FOEOMHFC@?$CL?$DN?$AA@ 0000000180047b88     libvcruntime:undname.obj
 0002:00004b8c       ??_C@_02FKMDLLOA@?9?$DN?$AA@ 0000000180047b8c     libvcruntime:undname.obj
 0002:00004b90       ??_C@_02FJEHGPIO@?1?$DN?$AA@ 0000000180047b90     libvcruntime:undname.obj
 0002:00004b94       ??_C@_02FENAOKFI@?$CF?$DN?$AA@ 0000000180047b94     libvcruntime:undname.obj
 0002:00004b98       ??_C@_03IKFCCPFF@?$DO?$DO?$DN?$AA@ 0000000180047b98     libvcruntime:undname.obj
 0002:00004b9c       ??_C@_03CDNPDDLA@?$DM?$DM?$DN?$AA@ 0000000180047b9c     libvcruntime:undname.obj
 0002:00004ba0       ??_C@_02FGJGFEAB@?$CG?$DN?$AA@ 0000000180047ba0     libvcruntime:undname.obj
 0002:00004ba4       ??_C@_02DHLNPPGH@?$HM?$DN?$AA@ 0000000180047ba4     libvcruntime:undname.obj
 0002:00004ba8       ??_C@_02MHEGNOJ@?$FO?$DN?$AA@ 0000000180047ba8     libvcruntime:undname.obj
 0002:00004bb0       ??_C@_09IFPLHPGF@?$GAvftable?8?$AA@ 0000000180047bb0     libvcruntime:undname.obj
 0002:00004bc0       ??_C@_09BLBHBJP@?$GAvbtable?8?$AA@ 0000000180047bc0     libvcruntime:undname.obj
 0002:00004bd0       ??_C@_07FEEIOKP@?$GAvcall?8?$AA@ 0000000180047bd0     libvcruntime:undname.obj
 0002:00004bd8       ??_C@_08LLFFHHDJ@?$GAtypeof?8?$AA@ 0000000180047bd8     libvcruntime:undname.obj
 0002:00004be8       ??_C@_0BF@KDPPACIK@?$GAlocal?5static?5guard?8?$AA@ 0000000180047be8     libvcruntime:undname.obj
 0002:00004c00       ??_C@_08OBABFOLI@?$GAstring?8?$AA@ 0000000180047c00     libvcruntime:undname.obj
 0002:00004c10       ??_C@_0BD@JDLKDPAB@?$GAvbase?5destructor?8?$AA@ 0000000180047c10     libvcruntime:undname.obj
 0002:00004c28       ??_C@_0BN@DEGPLNFK@?$GAvector?5deleting?5destructor?8?$AA@ 0000000180047c28     libvcruntime:undname.obj
 0002:00004c48       ??_C@_0BO@OBMKPJIG@?$GAdefault?5constructor?5closure?8?$AA@ 0000000180047c48     libvcruntime:undname.obj
 0002:00004c68       ??_C@_0BN@IMDCHIKM@?$GAscalar?5deleting?5destructor?8?$AA@ 0000000180047c68     libvcruntime:undname.obj
 0002:00004c88       ??_C@_0BO@PFGOCPJJ@?$GAvector?5constructor?5iterator?8?$AA@ 0000000180047c88     libvcruntime:undname.obj
 0002:00004ca8       ??_C@_0BN@LFPFMEDL@?$GAvector?5destructor?5iterator?8?$AA@ 0000000180047ca8     libvcruntime:undname.obj
 0002:00004cc8       ??_C@_0CE@IKBNEHA@?$GAvector?5vbase?5constructor?5iterat@ 0000000180047cc8     libvcruntime:undname.obj
 0002:00004cf0       ??_C@_0BL@NILFHHPC@?$GAvirtual?5displacement?5map?8?$AA@ 0000000180047cf0     libvcruntime:undname.obj
 0002:00004d10       ??_C@_0CB@JONCMFFK@?$GAeh?5vector?5constructor?5iterator?8@ 0000000180047d10     libvcruntime:undname.obj
 0002:00004d38       ??_C@_0CA@GCEOPDGL@?$GAeh?5vector?5destructor?5iterator?8?$AA@ 0000000180047d38     libvcruntime:undname.obj
 0002:00004d58       ??_C@_0CH@OOJPLCPH@?$GAeh?5vector?5vbase?5constructor?5ite@ 0000000180047d58     libvcruntime:undname.obj
 0002:00004d80       ??_C@_0BL@LLKPOHJI@?$GAcopy?5constructor?5closure?8?$AA@ 0000000180047d80     libvcruntime:undname.obj
 0002:00004da0       ??_C@_0BA@KBCDOMBN@?$GAudt?5returning?8?$AA@ 0000000180047da0     libvcruntime:undname.obj
 0002:00004db0       ??_C@_03KLGMFNMG@?$GAEH?$AA@ 0000000180047db0     libvcruntime:undname.obj
 0002:00004db4       ??_C@_05KHLCHHI@?$GARTTI?$AA@ 0000000180047db4     libvcruntime:undname.obj
 0002:00004dc0       ??_C@_0BA@KKLDJDLB@?$GAlocal?5vftable?8?$AA@ 0000000180047dc0     libvcruntime:undname.obj
 0002:00004dd0       ??_C@_0CE@IIHCMGGL@?$GAlocal?5vftable?5constructor?5closu@ 0000000180047dd0     libvcruntime:undname.obj
 0002:00004df4       ??_C@_06FHBGPFGH@?5new?$FL?$FN?$AA@ 0000000180047df4     libvcruntime:undname.obj
 0002:00004e00       ??_C@_09LBNFPBCA@?5delete?$FL?$FN?$AA@ 0000000180047e00     libvcruntime:undname.obj
 0002:00004e10       ??_C@_0P@HJKNJFNN@?$GAomni?5callsig?8?$AA@ 0000000180047e10     libvcruntime:undname.obj
 0002:00004e20       ??_C@_0BL@CNOONJFP@?$GAplacement?5delete?5closure?8?$AA@ 0000000180047e20     libvcruntime:undname.obj
 0002:00004e40       ??_C@_0BN@CKNJLHMB@?$GAplacement?5delete?$FL?$FN?5closure?8?$AA@ 0000000180047e40     libvcruntime:undname.obj
 0002:00004e60       ??_C@_0CG@CFDHKGGD@?$GAmanaged?5vector?5constructor?5iter@ 0000000180047e60     libvcruntime:undname.obj
 0002:00004e88       ??_C@_0CF@IMGKMJNO@?$GAmanaged?5vector?5destructor?5itera@ 0000000180047e88     libvcruntime:undname.obj
 0002:00004eb0       ??_C@_0CG@HLDDJMAG@?$GAeh?5vector?5copy?5constructor?5iter@ 0000000180047eb0     libvcruntime:undname.obj
 0002:00004ed8       ??_C@_0CM@FCBBDIGB@?$GAeh?5vector?5vbase?5copy?5constructo@ 0000000180047ed8     libvcruntime:undname.obj
 0002:00004f08       ??_C@_0BL@CLIPGLGB@?$GAdynamic?5initializer?5for?5?8?$AA@ 0000000180047f08     libvcruntime:undname.obj
 0002:00004f28       ??_C@_0CB@PDBIFEP@?$GAdynamic?5atexit?5destructor?5for?5?8@ 0000000180047f28     libvcruntime:undname.obj
 0002:00004f50       ??_C@_0CD@CGAJBKEJ@?$GAvector?5copy?5constructor?5iterato@ 0000000180047f50     libvcruntime:undname.obj
 0002:00004f78       ??_C@_0CJ@GJELGAMM@?$GAvector?5vbase?5copy?5constructor?5i@ 0000000180047f78     libvcruntime:undname.obj
 0002:00004fa8       ??_C@_0CL@FGIJHLCE@?$GAmanaged?5vector?5copy?5constructor@ 0000000180047fa8     libvcruntime:undname.obj
 0002:00004fd8       ??_C@_0BM@PMGGMLDN@?$GAlocal?5static?5thread?5guard?8?$AA@ 0000000180047fd8     libvcruntime:undname.obj
 0002:00004ff8       ??_C@_0N@BDNMDMOL@operator?5?$CC?$CC?5?$AA@ 0000000180047ff8     libvcruntime:undname.obj
 0002:00005008       ??_C@_0BC@DAFEJGAK@?5Type?5Descriptor?8?$AA@ 0000000180048008     libvcruntime:undname.obj
 0002:00005020       ??_C@_0BM@LDKODKLH@?5Base?5Class?5Descriptor?5at?5?$CI?$AA@ 0000000180048020     libvcruntime:undname.obj
 0002:00005040       ??_C@_0BD@LGICGFMM@?5Base?5Class?5Array?8?$AA@ 0000000180048040     libvcruntime:undname.obj
 0002:00005058       ??_C@_0BN@MECKDCOJ@?5Class?5Hierarchy?5Descriptor?8?$AA@ 0000000180048058     libvcruntime:undname.obj
 0002:00005078       ??_C@_0BK@CFCOFLF@?5Complete?5Object?5Locator?8?$AA@ 0000000180048078     libvcruntime:undname.obj
 0002:00005210       __acrt_exception_action_table 0000000180048210     libucrt:exception_filter.obj
 0002:000052d0       __acrt_signal_action_table_count 00000001800482d0     libucrt:exception_filter.obj
 0002:000052d8       __acrt_signal_action_first_fpe_index 00000001800482d8     libucrt:exception_filter.obj
 0002:000052e0       __acrt_signal_action_fpe_count 00000001800482e0     libucrt:exception_filter.obj
 0002:000052e8       ??_C@_1BI@BGOHAHKC@?$AAm?$AAs?$AAc?$AAo?$AAr?$AAe?$AAe?$AA?4?$AAd?$AAl?$AAl?$AA?$AA@ 00000001800482e8     libucrt:exit.obj
 0002:00005300       ??_C@_0P@MIGLKIOC@CorExitProcess?$AA@ 0000000180048300     libucrt:exit.obj
 0002:00005500       ??_C@_04EIAKFFMI@sqrt?$AA@ 0000000180048500     libucrt:sqrt.obj
 0002:00005510       __newctype                 0000000180048510     libucrt:ctype.obj
 0002:00005810       __newclmap                 0000000180048810     libucrt:ctype.obj
 0002:00005990       __newcumap                 0000000180048990     libucrt:ctype.obj
 0002:00005b10       __lc_time_c                0000000180048b10     libucrt:nlsdata.obj
 0002:00005dd0       ??_C@_03KOEHGMDN@Sun?$AA@  0000000180048dd0     libucrt:nlsdata.obj
 0002:00005dd4       ??_C@_03PDAGKDH@Mon?$AA@   0000000180048dd4     libucrt:nlsdata.obj
 0002:00005dd8       ??_C@_03NAGEINEP@Tue?$AA@  0000000180048dd8     libucrt:nlsdata.obj
 0002:00005ddc       ??_C@_03MHOMLAJA@Wed?$AA@  0000000180048ddc     libucrt:nlsdata.obj
 0002:00005de0       ??_C@_03IOFIKPDN@Thu?$AA@  0000000180048de0     libucrt:nlsdata.obj
 0002:00005de4       ??_C@_03IDIOELNC@Fri?$AA@  0000000180048de4     libucrt:nlsdata.obj
 0002:00005de8       ??_C@_03FEFJNEK@Sat?$AA@   0000000180048de8     libucrt:nlsdata.obj
 0002:00005dec       ??_C@_06OOPIFAJ@Sunday?$AA@ 0000000180048dec     libucrt:nlsdata.obj
 0002:00005df4       ??_C@_06JLEDEDGH@Monday?$AA@ 0000000180048df4     libucrt:nlsdata.obj
 0002:00005e00       ??_C@_07BAAGCFCM@Tuesday?$AA@ 0000000180048e00     libucrt:nlsdata.obj
 0002:00005e08       ??_C@_09DLIGFAKA@Wednesday?$AA@ 0000000180048e08     libucrt:nlsdata.obj
 0002:00005e18       ??_C@_08HACCIKIA@Thursday?$AA@ 0000000180048e18     libucrt:nlsdata.obj
 0002:00005e24       ??_C@_06JECMNKMI@Friday?$AA@ 0000000180048e24     libucrt:nlsdata.obj
 0002:00005e30       ??_C@_08INBOOONO@Saturday?$AA@ 0000000180048e30     libucrt:nlsdata.obj
 0002:00005e3c       ??_C@_03JIHJHPIE@Jan?$AA@  0000000180048e3c     libucrt:nlsdata.obj
 0002:00005e40       ??_C@_03HJBDCHOM@Feb?$AA@  0000000180048e40     libucrt:nlsdata.obj
 0002:00005e44       ??_C@_03ODNJBKGA@Mar?$AA@  0000000180048e44     libucrt:nlsdata.obj
 0002:00005e48       ??_C@_03LEOLGMJP@Apr?$AA@  0000000180048e48     libucrt:nlsdata.obj
 0002:00005e4c       ??_C@_03CNMDKL@May?$AA@    0000000180048e4c     libucrt:nlsdata.obj
 0002:00005e50       ??_C@_03IDFGHECI@Jun?$AA@  0000000180048e50     libucrt:nlsdata.obj
 0002:00005e54       ??_C@_03LBGABGKK@Jul?$AA@  0000000180048e54     libucrt:nlsdata.obj
 0002:00005e58       ??_C@_03IFJFEIGA@Aug?$AA@  0000000180048e58     libucrt:nlsdata.obj
 0002:00005e5c       ??_C@_03GGCAPAJC@Sep?$AA@  0000000180048e5c     libucrt:nlsdata.obj
 0002:00005e60       ??_C@_03BMAOKBAD@Oct?$AA@  0000000180048e60     libucrt:nlsdata.obj
 0002:00005e64       ??_C@_03JPJOFNIA@Nov?$AA@  0000000180048e64     libucrt:nlsdata.obj
 0002:00005e68       ??_C@_03MKABNOCG@Dec?$AA@  0000000180048e68     libucrt:nlsdata.obj
 0002:00005e70       ??_C@_07CGJPFGJA@January?$AA@ 0000000180048e70     libucrt:nlsdata.obj
 0002:00005e78       ??_C@_08GNJGEPFN@February?$AA@ 0000000180048e78     libucrt:nlsdata.obj
 0002:00005e84       ??_C@_05HPCKOFNC@March?$AA@ 0000000180048e84     libucrt:nlsdata.obj
 0002:00005e8c       ??_C@_05DMJDNLEJ@April?$AA@ 0000000180048e8c     libucrt:nlsdata.obj
 0002:00005e94       ??_C@_04CNLMGBGM@June?$AA@ 0000000180048e94     libucrt:nlsdata.obj
 0002:00005e9c       ??_C@_04MIEPOIFP@July?$AA@ 0000000180048e9c     libucrt:nlsdata.obj
 0002:00005ea4       ??_C@_06LBBHFDDG@August?$AA@ 0000000180048ea4     libucrt:nlsdata.obj
 0002:00005eb0       ??_C@_09BHHEALKD@September?$AA@ 0000000180048eb0     libucrt:nlsdata.obj
 0002:00005ec0       ??_C@_07JJNFCEND@October?$AA@ 0000000180048ec0     libucrt:nlsdata.obj
 0002:00005ec8       ??_C@_08HCHEGEOA@November?$AA@ 0000000180048ec8     libucrt:nlsdata.obj
 0002:00005ed8       ??_C@_08EDHMEBNP@December?$AA@ 0000000180048ed8     libucrt:nlsdata.obj
 0002:00005ee4       ??_C@_02DEDBPAFC@AM?$AA@   0000000180048ee4     libucrt:nlsdata.obj
 0002:00005ee8       ??_C@_02CJNFDJBF@PM?$AA@   0000000180048ee8     libucrt:nlsdata.obj
 0002:00005ef0       ??_C@_08BPBNCDIB@MM?1dd?1yy?$AA@ 0000000180048ef0     libucrt:nlsdata.obj
 0002:00005f00       ??_C@_0BE@CKGJFCPC@dddd?0?5MMMM?5dd?0?5yyyy?$AA@ 0000000180048f00     libucrt:nlsdata.obj
 0002:00005f18       ??_C@_08JCCMCCIL@HH?3mm?3ss?$AA@ 0000000180048f18     libucrt:nlsdata.obj
 0002:00005f28       ??_C@_17MBGCMIPB@?$AAS?$AAu?$AAn?$AA?$AA@ 0000000180048f28     libucrt:nlsdata.obj
 0002:00005f30       ??_C@_17KBOMKBF@?$AAM?$AAo?$AAn?$AA?$AA@ 0000000180048f30     libucrt:nlsdata.obj
 0002:00005f38       ??_C@_17BMKGEGOJ@?$AAT?$AAu?$AAe?$AA?$AA@ 0000000180048f38     libucrt:nlsdata.obj
 0002:00005f40       ??_C@_17CJEDCEPE@?$AAW?$AAe?$AAd?$AA?$AA@ 0000000180048f40     libucrt:nlsdata.obj
 0002:00005f48       ??_C@_17PDPHAADD@?$AAT?$AAh?$AAu?$AA?$AA@ 0000000180048f48     libucrt:nlsdata.obj
 0002:00005f50       ??_C@_17HFOLPPLP@?$AAF?$AAr?$AAi?$AA?$AA@ 0000000180048f50     libucrt:nlsdata.obj
 0002:00005f58       ??_C@_17GGIBDPIH@?$AAS?$AAa?$AAt?$AA?$AA@ 0000000180048f58     libucrt:nlsdata.obj
 0002:00005f60       ??_C@_1O@IHNHDHPB@?$AAS?$AAu?$AAn?$AAd?$AAa?$AAy?$AA?$AA@ 0000000180048f60     libucrt:nlsdata.obj
 0002:00005f70       ??_C@_1O@MMNBFLIA@?$AAM?$AAo?$AAn?$AAd?$AAa?$AAy?$AA?$AA@ 0000000180048f70     libucrt:nlsdata.obj
 0002:00005f80       ??_C@_1BA@ENFBFFEK@?$AAT?$AAu?$AAe?$AAs?$AAd?$AAa?$AAy?$AA?$AA@ 0000000180048f80     libucrt:nlsdata.obj
 0002:00005f90       ??_C@_1BE@EBOGMDOH@?$AAW?$AAe?$AAd?$AAn?$AAe?$AAs?$AAd?$AAa?$AAy?$AA?$AA@ 0000000180048f90     libucrt:nlsdata.obj
 0002:00005fa8       ??_C@_1BC@HHMNLIHE@?$AAT?$AAh?$AAu?$AAr?$AAs?$AAd?$AAa?$AAy?$AA?$AA@ 0000000180048fa8     libucrt:nlsdata.obj
 0002:00005fc0       ??_C@_1O@PDICJHAG@?$AAF?$AAr?$AAi?$AAd?$AAa?$AAy?$AA?$AA@ 0000000180048fc0     libucrt:nlsdata.obj
 0002:00005fd0       ??_C@_1BC@ENMNNPAJ@?$AAS?$AAa?$AAt?$AAu?$AAr?$AAd?$AAa?$AAy?$AA?$AA@ 0000000180048fd0     libucrt:nlsdata.obj
 0002:00005fe8       ??_C@_17DKNBKCHM@?$AAJ?$AAa?$AAn?$AA?$AA@ 0000000180048fe8     libucrt:nlsdata.obj
 0002:00005ff0       ??_C@_17LMDJEKJN@?$AAF?$AAe?$AAb?$AA?$AA@ 0000000180048ff0     libucrt:nlsdata.obj
 0002:00005ff8       ??_C@_17CKNLEDEC@?$AAM?$AAa?$AAr?$AA?$AA@ 0000000180048ff8     libucrt:nlsdata.obj
 0002:00006000       ??_C@_17LFPOIHDD@?$AAA?$AAp?$AAr?$AA?$AA@ 0000000180049000     libucrt:nlsdata.obj
 0002:00006008       ??_C@_17PNNKMEED@?$AAM?$AAa?$AAy?$AA?$AA@ 0000000180049008     libucrt:nlsdata.obj
 0002:00006010       ??_C@_17KCJGOCPB@?$AAJ?$AAu?$AAn?$AA?$AA@ 0000000180049010     libucrt:nlsdata.obj
 0002:00006018       ??_C@_17IJPCKHK@?$AAJ?$AAu?$AAl?$AA?$AA@ 0000000180049018     libucrt:nlsdata.obj
 0002:00006020       ??_C@_17ICPELBCN@?$AAA?$AAu?$AAg?$AA?$AA@ 0000000180049020     libucrt:nlsdata.obj
 0002:00006028       ??_C@_17HCHCOKMG@?$AAS?$AAe?$AAp?$AA?$AA@ 0000000180049028     libucrt:nlsdata.obj
 0002:00006030       ??_C@_17FNLKOI@?$AAO?$AAc?$AAt?$AA?$AA@ 0000000180049030     libucrt:nlsdata.obj
 0002:00006038       ??_C@_17BBDMLCIG@?$AAN?$AAo?$AAv?$AA?$AA@ 0000000180049038     libucrt:nlsdata.obj
 0002:00006040       ??_C@_17EGKACKIF@?$AAD?$AAe?$AAc?$AA?$AA@ 0000000180049040     libucrt:nlsdata.obj
 0002:00006048       ??_C@_1BA@EFMEIEBA@?$AAJ?$AAa?$AAn?$AAu?$AAa?$AAr?$AAy?$AA?$AA@ 0000000180049048     libucrt:nlsdata.obj
 0002:00006058       ??_C@_1BC@JGDDFFAM@?$AAF?$AAe?$AAb?$AAr?$AAu?$AAa?$AAr?$AAy?$AA?$AA@ 0000000180049058     libucrt:nlsdata.obj
 0002:00006070       ??_C@_1M@IKEENEDF@?$AAM?$AAa?$AAr?$AAc?$AAh?$AA?$AA@ 0000000180049070     libucrt:nlsdata.obj
 0002:00006080       ??_C@_1M@GJNLMHFD@?$AAA?$AAp?$AAr?$AAi?$AAl?$AA?$AA@ 0000000180049080     libucrt:nlsdata.obj
 0002:00006090       ??_C@_19EPFLPGAP@?$AAJ?$AAu?$AAn?$AAe?$AA?$AA@ 0000000180049090     libucrt:nlsdata.obj
 0002:000060a0       ??_C@_19BIFMLPCD@?$AAJ?$AAu?$AAl?$AAy?$AA?$AA@ 00000001800490a0     libucrt:nlsdata.obj
 0002:000060b0       ??_C@_1O@PAHLKOAC@?$AAA?$AAu?$AAg?$AAu?$AAs?$AAt?$AA?$AA@ 00000001800490b0     libucrt:nlsdata.obj
 0002:000060c0       ??_C@_1BE@DKAAMBJL@?$AAS?$AAe?$AAp?$AAt?$AAe?$AAm?$AAb?$AAe?$AAr?$AA?$AA@ 00000001800490c0     libucrt:nlsdata.obj
 0002:000060d8       ??_C@_1BA@EPANDLNG@?$AAO?$AAc?$AAt?$AAo?$AAb?$AAe?$AAr?$AA?$AA@ 00000001800490d8     libucrt:nlsdata.obj
 0002:000060e8       ??_C@_1BC@BGLIFPF@?$AAN?$AAo?$AAv?$AAe?$AAm?$AAb?$AAe?$AAr?$AA?$AA@ 00000001800490e8     libucrt:nlsdata.obj
 0002:00006100       ??_C@_1BC@FEMKIFH@?$AAD?$AAe?$AAc?$AAe?$AAm?$AAb?$AAe?$AAr?$AA?$AA@ 0000000180049100     libucrt:nlsdata.obj
 0002:00006114       ??_C@_15ODEHAHHF@?$AAA?$AAM?$AA?$AA@ 0000000180049114     libucrt:nlsdata.obj
 0002:0000611c       ??_C@_15CLMNNGEL@?$AAP?$AAM?$AA?$AA@ 000000018004911c     libucrt:nlsdata.obj
 0002:00006128       ??_C@_1BC@IEBCMHCM@?$AAM?$AAM?$AA?1?$AAd?$AAd?$AA?1?$AAy?$AAy?$AA?$AA@ 0000000180049128     libucrt:nlsdata.obj
 0002:00006140       ??_C@_1CI@KNAKOEBC@?$AAd?$AAd?$AAd?$AAd?$AA?0?$AA?5?$AAM?$AAM?$AAM?$AAM?$AA?5?$AAd?$AAd?$AA?0?$AA?5?$AAy?$AAy?$AAy?$AAy?$AA?$AA@ 0000000180049140     libucrt:nlsdata.obj
 0002:00006168       ??_C@_1BC@GDGBMEMK@?$AAH?$AAH?$AA?3?$AAm?$AAm?$AA?3?$AAs?$AAs?$AA?$AA@ 0000000180049168     libucrt:nlsdata.obj
 0002:00006180       ??_C@_1M@BMHNFIME@?$AAe?$AAn?$AA?9?$AAU?$AAS?$AA?$AA@ 0000000180049180     libucrt:nlsdata.obj
 0002:00006230       ??_C@_1EG@CNNIPFIM@?$AAa?$AAp?$AAi?$AA?9?$AAm?$AAs?$AA?9?$AAw?$AAi?$AAn?$AA?9?$AAa?$AAp?$AAp?$AAm?$AAo?$AAd?$AAe?$AAl?$AA?9?$AAr?$AAu?$AAn?$AAt?$AAi?$AAm?$AAe?$AA?9?$AAl?$AA1?$AA?9?$AA1@ 0000000180049230     libucrt:winapi_thunks.obj
 0002:00006280       ??_C@_1EA@JGEFHKEI@?$AAa?$AAp?$AAi?$AA?9?$AAm?$AAs?$AA?9?$AAw?$AAi?$AAn?$AA?9?$AAc?$AAo?$AAr?$AAe?$AA?9?$AAd?$AAa?$AAt?$AAe?$AAt?$AAi?$AAm?$AAe?$AA?9?$AAl?$AA1?$AA?9?$AA1?$AA?9?$AA1?$AA?$AA@ 0000000180049280     libucrt:winapi_thunks.obj
 0002:000062c0       ??_C@_1DI@GCIAAENM@?$AAa?$AAp?$AAi?$AA?9?$AAm?$AAs?$AA?9?$AAw?$AAi?$AAn?$AA?9?$AAc?$AAo?$AAr?$AAe?$AA?9?$AAf?$AAi?$AAl?$AAe?$AA?9?$AAl?$AA2?$AA?9?$AA1?$AA?9?$AA1?$AA?$AA@ 00000001800492c0     libucrt:winapi_thunks.obj
 0002:00006300       ??_C@_1EI@MPIAOHOC@?$AAa?$AAp?$AAi?$AA?9?$AAm?$AAs?$AA?9?$AAw?$AAi?$AAn?$AA?9?$AAc?$AAo?$AAr?$AAe?$AA?9?$AAl?$AAo?$AAc?$AAa?$AAl?$AAi?$AAz?$AAa?$AAt?$AAi?$AAo?$AAn?$AA?9?$AAl?$AA1?$AA?9@ 0000000180049300     libucrt:winapi_thunks.obj
 0002:00006350       ??_C@_1FK@FPHCKFIE@?$AAa?$AAp?$AAi?$AA?9?$AAm?$AAs?$AA?9?$AAw?$AAi?$AAn?$AA?9?$AAc?$AAo?$AAr?$AAe?$AA?9?$AAl?$AAo?$AAc?$AAa?$AAl?$AAi?$AAz?$AAa?$AAt?$AAi?$AAo?$AAn?$AA?9?$AAo?$AAb?$AAs@ 0000000180049350     libucrt:winapi_thunks.obj
 0002:000063b0       ??_C@_1EM@DILCGIIO@?$AAa?$AAp?$AAi?$AA?9?$AAm?$AAs?$AA?9?$AAw?$AAi?$AAn?$AA?9?$AAc?$AAo?$AAr?$AAe?$AA?9?$AAp?$AAr?$AAo?$AAc?$AAe?$AAs?$AAs?$AAt?$AAh?$AAr?$AAe?$AAa?$AAd?$AAs?$AA?9?$AAl@ 00000001800493b0     libucrt:winapi_thunks.obj
 0002:00006400       ??_C@_1DM@LNCGDDPN@?$AAa?$AAp?$AAi?$AA?9?$AAm?$AAs?$AA?9?$AAw?$AAi?$AAn?$AA?9?$AAc?$AAo?$AAr?$AAe?$AA?9?$AAs?$AAt?$AAr?$AAi?$AAn?$AAg?$AA?9?$AAl?$AA1?$AA?9?$AA1?$AA?9?$AA0?$AA?$AA@ 0000000180049400     libucrt:winapi_thunks.obj
 0002:00006440       ??_C@_1DO@FPAPJEMD@?$AAa?$AAp?$AAi?$AA?9?$AAm?$AAs?$AA?9?$AAw?$AAi?$AAn?$AA?9?$AAc?$AAo?$AAr?$AAe?$AA?9?$AAs?$AAy?$AAs?$AAi?$AAn?$AAf?$AAo?$AA?9?$AAl?$AA1?$AA?9?$AA2?$AA?9?$AA1?$AA?$AA@ 0000000180049440     libucrt:winapi_thunks.obj
 0002:00006480       ??_C@_1DK@NDHNAHIO@?$AAa?$AAp?$AAi?$AA?9?$AAm?$AAs?$AA?9?$AAw?$AAi?$AAn?$AA?9?$AAc?$AAo?$AAr?$AAe?$AA?9?$AAw?$AAi?$AAn?$AAr?$AAt?$AA?9?$AAl?$AA1?$AA?9?$AA1?$AA?9?$AA0?$AA?$AA@ 0000000180049480     libucrt:winapi_thunks.obj
 0002:000064c0       ??_C@_1DM@KGHDGBCM@?$AAa?$AAp?$AAi?$AA?9?$AAm?$AAs?$AA?9?$AAw?$AAi?$AAn?$AA?9?$AAc?$AAo?$AAr?$AAe?$AA?9?$AAx?$AAs?$AAt?$AAa?$AAt?$AAe?$AA?9?$AAl?$AA2?$AA?9?$AA1?$AA?9?$AA0?$AA?$AA@ 00000001800494c0     libucrt:winapi_thunks.obj
 0002:00006500       ??_C@_1EO@IJIOEFOH@?$AAa?$AAp?$AAi?$AA?9?$AAm?$AAs?$AA?9?$AAw?$AAi?$AAn?$AA?9?$AAr?$AAt?$AAc?$AAo?$AAr?$AAe?$AA?9?$AAn?$AAt?$AAu?$AAs?$AAe?$AAr?$AA?9?$AAw?$AAi?$AAn?$AAd?$AAo?$AAw?$AA?9@ 0000000180049500     libucrt:winapi_thunks.obj
 0002:00006550       ??_C@_1FG@HHGEKANL@?$AAa?$AAp?$AAi?$AA?9?$AAm?$AAs?$AA?9?$AAw?$AAi?$AAn?$AA?9?$AAs?$AAe?$AAc?$AAu?$AAr?$AAi?$AAt?$AAy?$AA?9?$AAs?$AAy?$AAs?$AAt?$AAe?$AAm?$AAf?$AAu?$AAn?$AAc?$AAt?$AAi@ 0000000180049550     libucrt:winapi_thunks.obj
 0002:000065b0       ??_C@_1FG@NCKKOLKO@?$AAe?$AAx?$AAt?$AA?9?$AAm?$AAs?$AA?9?$AAw?$AAi?$AAn?$AA?9?$AAk?$AAe?$AAr?$AAn?$AAe?$AAl?$AA3?$AA2?$AA?9?$AAp?$AAa?$AAc?$AAk?$AAa?$AAg?$AAe?$AA?9?$AAc?$AAu?$AAr?$AAr@ 00000001800495b0     libucrt:winapi_thunks.obj
 0002:00006610       ??_C@_1EG@DBIOJECG@?$AAe?$AAx?$AAt?$AA?9?$AAm?$AAs?$AA?9?$AAw?$AAi?$AAn?$AA?9?$AAn?$AAt?$AAu?$AAs?$AAe?$AAr?$AA?9?$AAd?$AAi?$AAa?$AAl?$AAo?$AAg?$AAb?$AAo?$AAx?$AA?9?$AAl?$AA1?$AA?9?$AA1@ 0000000180049610     libucrt:winapi_thunks.obj
 0002:00006660       ??_C@_1EO@FIHMJCLF@?$AAe?$AAx?$AAt?$AA?9?$AAm?$AAs?$AA?9?$AAw?$AAi?$AAn?$AA?9?$AAn?$AAt?$AAu?$AAs?$AAe?$AAr?$AA?9?$AAw?$AAi?$AAn?$AAd?$AAo?$AAw?$AAs?$AAt?$AAa?$AAt?$AAi?$AAo?$AAn?$AA?9@ 0000000180049660     libucrt:winapi_thunks.obj
 0002:000066b0       ??_C@_1O@BCCLBEOE@?$AAu?$AAs?$AAe?$AAr?$AA3?$AA2?$AA?$AA@ 00000001800496b0     libucrt:winapi_thunks.obj
 0002:00006700       ??_C@_0BB@HBDEELFH@LocaleNameToLCID?$AA@ 0000000180049700     libucrt:winapi_thunks.obj
 0002:00006738       ??_C@_1M@HPNHIDJI@?$AAj?$AAa?$AA?9?$AAJ?$AAP?$AA?$AA@ 0000000180049738     libucrt:mbctype.obj
 0002:00006748       ??_C@_1M@BIBDDEMK@?$AAz?$AAh?$AA?9?$AAC?$AAN?$AA?$AA@ 0000000180049748     libucrt:mbctype.obj
 0002:00006758       ??_C@_1M@JLOOOEGK@?$AAk?$AAo?$AA?9?$AAK?$AAR?$AA?$AA@ 0000000180049758     libucrt:mbctype.obj
 0002:00006768       ??_C@_1M@CLNBBOPM@?$AAz?$AAh?$AA?9?$AAT?$AAW?$AA?$AA@ 0000000180049768     libucrt:mbctype.obj
 0002:00006780       __two_to_jby64_table       0000000180049780     libucrt:two_to_jby64_table.obj
 0002:00006980       __two_to_jby64_head_table  0000000180049980     libucrt:two_to_jby64_head_tail_table.obj
 0002:00006b80       __two_to_jby64_tail_table  0000000180049b80     libucrt:two_to_jby64_head_tail_table.obj
 0002:00006d80       ??_C@_03KHJOGHMM@exp?$AA@  0000000180049d80     libucrt:exp_special.obj
 0002:00006d84       ??_C@_15PJPFLCCM@?$AAu?$AAk?$AA?$AA@ 0000000180049d84     libucrt:get_qualified_locale.obj
 0002:00007bd0       ??_C@_15EMKDOKLE@?$AAa?$AAr?$AA?$AA@ 000000018004abd0     libucrt:lcidtoname_downlevel.obj
 0002:00007bd8       ??_C@_15KNPADPLH@?$AAb?$AAg?$AA?$AA@ 000000018004abd8     libucrt:lcidtoname_downlevel.obj
 0002:00007be0       ??_C@_15EDMHLDMO@?$AAc?$AAa?$AA?$AA@ 000000018004abe0     libucrt:lcidtoname_downlevel.obj
 0002:00007be8       ??_C@_1O@BPEAJADD@?$AAz?$AAh?$AA?9?$AAC?$AAH?$AAS?$AA?$AA@ 000000018004abe8     libucrt:lcidtoname_downlevel.obj
 0002:00007bf8       ??_C@_15LJNHCMNK@?$AAc?$AAs?$AA?$AA@ 000000018004abf8     libucrt:lcidtoname_downlevel.obj
 0002:00007c00       ??_C@_15FOMCIDHG@?$AAd?$AAa?$AA?$AA@ 000000018004ac00     libucrt:lcidtoname_downlevel.obj
 0002:00007c08       ??_C@_15NBKABECB@?$AAd?$AAe?$AA?$AA@ 000000018004ac08     libucrt:lcidtoname_downlevel.obj
 0002:00007c10       ??_C@_15GHPEIIAO@?$AAe?$AAl?$AA?$AA@ 000000018004ac10     libucrt:lcidtoname_downlevel.obj
 0002:00007c18       ??_C@_15MNPNEAIF@?$AAe?$AAn?$AA?$AA@ 000000018004ac18     libucrt:lcidtoname_downlevel.obj
 0002:00007c20       ??_C@_15GPIOMPMH@?$AAe?$AAs?$AA?$AA@ 000000018004ac20     libucrt:lcidtoname_downlevel.obj
 0002:00007c28       ??_C@_15NGLOAKJC@?$AAf?$AAi?$AA?$AA@ 000000018004ac28     libucrt:lcidtoname_downlevel.obj
 0002:00007c30       ??_C@_15FBKGNKAM@?$AAf?$AAr?$AA?$AA@ 000000018004ac30     libucrt:lcidtoname_downlevel.obj
 0002:00007c38       ??_C@_15KGGCNEFK@?$AAh?$AAe?$AA?$AA@ 000000018004ac38     libucrt:lcidtoname_downlevel.obj
 0002:00007c40       ??_C@_15PGHLIDMF@?$AAh?$AAu?$AA?$AA@ 000000018004ac40     libucrt:lcidtoname_downlevel.obj
 0002:00007c48       ??_C@_15BIEMAPLM@?$AAi?$AAs?$AA?$AA@ 000000018004ac48     libucrt:lcidtoname_downlevel.obj
 0002:00007c50       ??_C@_15IFJLDHAF@?$AAi?$AAt?$AA?$AA@ 000000018004ac50     libucrt:lcidtoname_downlevel.obj
 0002:00007c58       ??_C@_15GEMIOCAG@?$AAj?$AAa?$AA?$AA@ 000000018004ac58     libucrt:lcidtoname_downlevel.obj
 0002:00007c60       ??_C@_15EPELEGJA@?$AAk?$AAo?$AA?$AA@ 000000018004ac60     libucrt:lcidtoname_downlevel.obj
 0002:00007c68       ??_C@_15NDDHIMN@?$AAn?$AAl?$AA?$AA@ 000000018004ac68     libucrt:lcidtoname_downlevel.obj
 0002:00007c70       ??_C@_15BPIGNHCD@?$AAn?$AAo?$AA?$AA@ 000000018004ac70     libucrt:lcidtoname_downlevel.obj
 0002:00007c78       ??_C@_15DEOPBLCG@?$AAp?$AAl?$AA?$AA@ 000000018004ac78     libucrt:lcidtoname_downlevel.obj
 0002:00007c80       ??_C@_15KBECGEFG@?$AAp?$AAt?$AA?$AA@ 000000018004ac80     libucrt:lcidtoname_downlevel.obj
 0002:00007c88       ??_C@_15GLJCBFMD@?$AAr?$AAo?$AA?$AA@ 000000018004ac88     libucrt:lcidtoname_downlevel.obj
 0002:00007c90       ??_C@_15FEDGKCDI@?$AAr?$AAu?$AA?$AA@ 000000018004ac90     libucrt:lcidtoname_downlevel.obj
 0002:00007c98       ??_C@_15GLKMLLHM@?$AAh?$AAr?$AA?$AA@ 000000018004ac98     libucrt:lcidtoname_downlevel.obj
 0002:00007ca0       ??_C@_15CPKMFBDB@?$AAs?$AAk?$AA?$AA@ 000000018004aca0     libucrt:lcidtoname_downlevel.obj
 0002:00007ca8       ??_C@_15BAAIOGMK@?$AAs?$AAq?$AA?$AA@ 000000018004aca8     libucrt:lcidtoname_downlevel.obj
 0002:00007cb0       ??_C@_15INNPNOHD@?$AAs?$AAv?$AA?$AA@ 000000018004acb0     libucrt:lcidtoname_downlevel.obj
 0002:00007cb8       ??_C@_15CABMMOGH@?$AAt?$AAh?$AA?$AA@ 000000018004acb8     libucrt:lcidtoname_downlevel.obj
 0002:00007cc0       ??_C@_15BPLIHJJM@?$AAt?$AAr?$AA?$AA@ 000000018004acc0     libucrt:lcidtoname_downlevel.obj
 0002:00007cc8       ??_C@_15NEOEKKDJ@?$AAu?$AAr?$AA?$AA@ 000000018004acc8     libucrt:lcidtoname_downlevel.obj
 0002:00007cd0       ??_C@_15NFICGAJK@?$AAi?$AAd?$AA?$AA@ 000000018004acd0     libucrt:lcidtoname_downlevel.obj
 0002:00007cd8       ??_C@_15HPJPHDM@?$AAb?$AAe?$AA?$AA@ 000000018004acd8     libucrt:lcidtoname_downlevel.obj
 0002:00007ce0       ??_C@_15LCHLGJII@?$AAs?$AAl?$AA?$AA@ 000000018004ace0     libucrt:lcidtoname_downlevel.obj
 0002:00007ce8       ??_C@_15PCFJPHHO@?$AAe?$AAt?$AA?$AA@ 000000018004ace8     libucrt:lcidtoname_downlevel.obj
 0002:00007cf0       ??_C@_15HPFPGODN@?$AAl?$AAv?$AA?$AA@ 000000018004acf0     libucrt:lcidtoname_downlevel.obj
 0002:00007cf8       ??_C@_15NFFGKGLG@?$AAl?$AAt?$AA?$AA@ 000000018004acf8     libucrt:lcidtoname_downlevel.obj
 0002:00007d00       ??_C@_15BDAKCCHN@?$AAf?$AAa?$AA?$AA@ 000000018004ad00     libucrt:lcidtoname_downlevel.obj
 0002:00007d08       ??_C@_15NFGIAIAJ@?$AAv?$AAi?$AA?$AA@ 000000018004ad08     libucrt:lcidtoname_downlevel.obj
 0002:00007d10       ??_C@_15LMKNDMHN@?$AAh?$AAy?$AA?$AA@ 000000018004ad10     libucrt:lcidtoname_downlevel.obj
 0002:00007d18       ??_C@_15IJBHMCFL@?$AAa?$AAz?$AA?$AA@ 000000018004ad18     libucrt:lcidtoname_downlevel.obj
 0002:00007d20       ??_C@_15EKOFJABL@?$AAe?$AAu?$AA?$AA@ 000000018004ad20     libucrt:lcidtoname_downlevel.obj
 0002:00007d28       ??_C@_15BGHADCNK@?$AAm?$AAk?$AA?$AA@ 000000018004ad28     libucrt:lcidtoname_downlevel.obj
 0002:00007d30       ??_C@_15JDNICKHM@?$AAa?$AAf?$AA?$AA@ 000000018004ad30     libucrt:lcidtoname_downlevel.obj
 0002:00007d38       ??_C@_15KPJEDBKD@?$AAk?$AAa?$AA?$AA@ 000000018004ad38     libucrt:lcidtoname_downlevel.obj
 0002:00007d40       ??_C@_15PDNFFFEO@?$AAf?$AAo?$AA?$AA@ 000000018004ad40     libucrt:lcidtoname_downlevel.obj
 0002:00007d48       ??_C@_15OMLEGLOC@?$AAh?$AAi?$AA?$AA@ 000000018004ad48     libucrt:lcidtoname_downlevel.obj
 0002:00007d50       ??_C@_15IDNNENKK@?$AAm?$AAs?$AA?$AA@ 000000018004ad50     libucrt:lcidtoname_downlevel.obj
 0002:00007d58       ??_C@_15MACJNBMH@?$AAk?$AAk?$AA?$AA@ 000000018004ad58     libucrt:lcidtoname_downlevel.obj
 0002:00007d60       ??_C@_15DKDJEOND@?$AAk?$AAy?$AA?$AA@ 000000018004ad60     libucrt:lcidtoname_downlevel.obj
 0002:00007d68       ??_C@_15DFGDLJBG@?$AAs?$AAw?$AA?$AA@ 000000018004ad68     libucrt:lcidtoname_downlevel.obj
 0002:00007d70       ??_C@_15BBFAICNG@?$AAu?$AAz?$AA?$AA@ 000000018004ad70     libucrt:lcidtoname_downlevel.obj
 0002:00007d78       ??_C@_15DKNDCGEA@?$AAt?$AAt?$AA?$AA@ 000000018004ad78     libucrt:lcidtoname_downlevel.obj
 0002:00007d80       ??_C@_15MGIFMDPL@?$AAp?$AAa?$AA?$AA@ 000000018004ad80     libucrt:lcidtoname_downlevel.obj
 0002:00007d88       ??_C@_15HCNDBBA@?$AAg?$AAu?$AA?$AA@ 000000018004ad88     libucrt:lcidtoname_downlevel.obj
 0002:00007d90       ??_C@_15FNBEIBON@?$AAt?$AAa?$AA?$AA@ 000000018004ad90     libucrt:lcidtoname_downlevel.obj
 0002:00007d98       ??_C@_15NCHGBGLK@?$AAt?$AAe?$AA?$AA@ 000000018004ad98     libucrt:lcidtoname_downlevel.obj
 0002:00007da0       ??_C@_15PHPHCBPF@?$AAk?$AAn?$AA?$AA@ 000000018004ada0     libucrt:lcidtoname_downlevel.obj
 0002:00007da8       ??_C@_15DLGBCKMP@?$AAm?$AAr?$AA?$AA@ 000000018004ada8     libucrt:lcidtoname_downlevel.obj
 0002:00007db0       ??_C@_15EABBLBFF@?$AAs?$AAa?$AA?$AA@ 000000018004adb0     libucrt:lcidtoname_downlevel.obj
 0002:00007db8       ??_C@_15CBKOMCOI@?$AAm?$AAn?$AA?$AA@ 000000018004adb8     libucrt:lcidtoname_downlevel.obj
 0002:00007dc0       ??_C@_15CKDMCJAF@?$AAg?$AAl?$AA?$AA@ 000000018004adc0     libucrt:lcidtoname_downlevel.obj
 0002:00007dc8       ??_C@_17CNJFBPG@?$AAk?$AAo?$AAk?$AA?$AA@ 000000018004adc8     libucrt:lcidtoname_downlevel.obj
 0002:00007dd0       ??_C@_17FFBJICPL@?$AAs?$AAy?$AAr?$AA?$AA@ 000000018004add0     libucrt:lcidtoname_downlevel.obj
 0002:00007dd8       ??_C@_17KPNDCPAF@?$AAd?$AAi?$AAv?$AA?$AA@ 000000018004add8     libucrt:lcidtoname_downlevel.obj
 0002:00007de0       ??_C@_1M@OKAHONE@?$AAa?$AAr?$AA?9?$AAS?$AAA?$AA?$AA@ 000000018004ade0     libucrt:lcidtoname_downlevel.obj
 0002:00007df0       ??_C@_1M@FFFIGIGK@?$AAb?$AAg?$AA?9?$AAB?$AAG?$AA?$AA@ 000000018004adf0     libucrt:lcidtoname_downlevel.obj
 0002:00007e00       ??_C@_1M@BJNKEDC@?$AAc?$AAa?$AA?9?$AAE?$AAS?$AA?$AA@ 000000018004ae00     libucrt:lcidtoname_downlevel.obj
 0002:00007e10       ??_C@_1M@IJJHFJHA@?$AAc?$AAs?$AA?9?$AAC?$AAZ?$AA?$AA@ 000000018004ae10     libucrt:lcidtoname_downlevel.obj
 0002:00007e20       ??_C@_1M@CLPEOBGI@?$AAd?$AAa?$AA?9?$AAD?$AAK?$AA?$AA@ 000000018004ae20     libucrt:lcidtoname_downlevel.obj
 0002:00007e30       ??_C@_1M@MCMADGCB@?$AAd?$AAe?$AA?9?$AAD?$AAE?$AA?$AA@ 000000018004ae30     libucrt:lcidtoname_downlevel.obj
 0002:00007e40       ??_C@_1M@OOCKEMAM@?$AAe?$AAl?$AA?9?$AAG?$AAR?$AA?$AA@ 000000018004ae40     libucrt:lcidtoname_downlevel.obj
 0002:00007e50       ??_C@_1M@DDNJFGID@?$AAf?$AAi?$AA?9?$AAF?$AAI?$AA?$AA@ 000000018004ae50     libucrt:lcidtoname_downlevel.obj
 0002:00007e60       ??_C@_1M@GLIPPMAC@?$AAf?$AAr?$AA?9?$AAF?$AAR?$AA?$AA@ 000000018004ae60     libucrt:lcidtoname_downlevel.obj
 0002:00007e70       ??_C@_1M@GFMCHPE@?$AAh?$AAe?$AA?9?$AAI?$AAL?$AA?$AA@ 000000018004ae70     libucrt:lcidtoname_downlevel.obj
 0002:00007e80       ??_C@_1M@MHLPGNKM@?$AAh?$AAu?$AA?9?$AAH?$AAU?$AA?$AA@ 000000018004ae80     libucrt:lcidtoname_downlevel.obj
 0002:00007e90       ??_C@_1M@LPDDNNPN@?$AAi?$AAs?$AA?9?$AAI?$AAS?$AA?$AA@ 000000018004ae90     libucrt:lcidtoname_downlevel.obj
 0002:00007ea0       ??_C@_1M@MADIPODN@?$AAi?$AAt?$AA?9?$AAI?$AAT?$AA?$AA@ 000000018004aea0     libucrt:lcidtoname_downlevel.obj
 0002:00007eb0       ??_C@_1M@IHBJJGG@?$AAn?$AAl?$AA?9?$AAN?$AAL?$AA?$AA@ 000000018004aeb0     libucrt:lcidtoname_downlevel.obj
 0002:00007ec0       ??_C@_1M@EANAGDL@?$AAn?$AAb?$AA?9?$AAN?$AAO?$AA?$AA@ 000000018004aec0     libucrt:lcidtoname_downlevel.obj
 0002:00007ed0       ??_C@_1M@NEIEMEGP@?$AAp?$AAl?$AA?9?$AAP?$AAL?$AA?$AA@ 000000018004aed0     libucrt:lcidtoname_downlevel.obj
 0002:00007ee0       ??_C@_1M@BOCFIGEP@?$AAp?$AAt?$AA?9?$AAB?$AAR?$AA?$AA@ 000000018004aee0     libucrt:lcidtoname_downlevel.obj
 0002:00007ef0       ??_C@_1M@IMPFOPBG@?$AAr?$AAo?$AA?9?$AAR?$AAO?$AA?$AA@ 000000018004aef0     libucrt:lcidtoname_downlevel.obj
 0002:00007f00       ??_C@_1M@IDNNEJMM@?$AAr?$AAu?$AA?9?$AAR?$AAU?$AA?$AA@ 000000018004af00     libucrt:lcidtoname_downlevel.obj
 0002:00007f10       ??_C@_1M@LILEEOGM@?$AAh?$AAr?$AA?9?$AAH?$AAR?$AA?$AA@ 000000018004af10     libucrt:lcidtoname_downlevel.obj
 0002:00007f20       ??_C@_1M@FKIFEHPB@?$AAs?$AAk?$AA?9?$AAS?$AAK?$AA?$AA@ 000000018004af20     libucrt:lcidtoname_downlevel.obj
 0002:00007f30       ??_C@_1M@LJMAMNPJ@?$AAs?$AAq?$AA?9?$AAA?$AAL?$AA?$AA@ 000000018004af30     libucrt:lcidtoname_downlevel.obj
 0002:00007f40       ??_C@_1M@GIAKDKJK@?$AAs?$AAv?$AA?9?$AAS?$AAE?$AA?$AA@ 000000018004af40     libucrt:lcidtoname_downlevel.obj
 0002:00007f50       ??_C@_1M@MKJKIKCL@?$AAt?$AAh?$AA?9?$AAT?$AAH?$AA?$AA@ 000000018004af50     libucrt:lcidtoname_downlevel.obj
 0002:00007f60       ??_C@_1M@MFLCCMPB@?$AAt?$AAr?$AA?9?$AAT?$AAR?$AA?$AA@ 000000018004af60     libucrt:lcidtoname_downlevel.obj
 0002:00007f70       ??_C@_1M@OIJHDKJN@?$AAu?$AAr?$AA?9?$AAP?$AAK?$AA?$AA@ 000000018004af70     libucrt:lcidtoname_downlevel.obj
 0002:00007f80       ??_C@_1M@LHIPCIEK@?$AAi?$AAd?$AA?9?$AAI?$AAD?$AA?$AA@ 000000018004af80     libucrt:lcidtoname_downlevel.obj
 0002:00007f90       ??_C@_1M@MFMOBGI@?$AAu?$AAk?$AA?9?$AAU?$AAA?$AA?$AA@ 000000018004af90     libucrt:lcidtoname_downlevel.obj
 0002:00007fa0       ??_C@_1M@OBGLJIPL@?$AAb?$AAe?$AA?9?$AAB?$AAY?$AA?$AA@ 000000018004afa0     libucrt:lcidtoname_downlevel.obj
 0002:00007fb0       ??_C@_1M@BCFAJEAD@?$AAs?$AAl?$AA?9?$AAS?$AAI?$AA?$AA@ 000000018004afb0     libucrt:lcidtoname_downlevel.obj
 0002:00007fc0       ??_C@_1M@FKFFEDDN@?$AAe?$AAt?$AA?9?$AAE?$AAE?$AA?$AA@ 000000018004afc0     libucrt:lcidtoname_downlevel.obj
 0002:00007fd0       ??_C@_1M@KGKKAACI@?$AAl?$AAv?$AA?9?$AAL?$AAV?$AA?$AA@ 000000018004afd0     libucrt:lcidtoname_downlevel.obj
 0002:00007fe0       ??_C@_1M@IFGBIJO@?$AAl?$AAt?$AA?9?$AAL?$AAT?$AA?$AA@ 000000018004afe0     libucrt:lcidtoname_downlevel.obj
 0002:00007ff0       ??_C@_1M@FGEAHEDM@?$AAf?$AAa?$AA?9?$AAI?$AAR?$AA?$AA@ 000000018004aff0     libucrt:lcidtoname_downlevel.obj
 0002:00008000       ??_C@_1M@KBMAIBFN@?$AAv?$AAi?$AA?9?$AAV?$AAN?$AA?$AA@ 000000018004b000     libucrt:lcidtoname_downlevel.obj
 0002:00008010       ??_C@_1M@GPCBKDJK@?$AAh?$AAy?$AA?9?$AAA?$AAM?$AA?$AA@ 000000018004b010     libucrt:lcidtoname_downlevel.obj
 0002:00008020       ??_C@_1BG@BECMDDJB@?$AAa?$AAz?$AA?9?$AAA?$AAZ?$AA?9?$AAL?$AAa?$AAt?$AAn?$AA?$AA@ 000000018004b020     libucrt:lcidtoname_downlevel.obj
 0002:00008038       ??_C@_1M@MAOFCAEA@?$AAe?$AAu?$AA?9?$AAE?$AAS?$AA?$AA@ 000000018004b038     libucrt:lcidtoname_downlevel.obj
 0002:00008048       ??_C@_1M@IGHABKPI@?$AAm?$AAk?$AA?9?$AAM?$AAK?$AA?$AA@ 000000018004b048     libucrt:lcidtoname_downlevel.obj
 0002:00008058       ??_C@_1M@IAIGNEJG@?$AAt?$AAn?$AA?9?$AAZ?$AAA?$AA?$AA@ 000000018004b058     libucrt:lcidtoname_downlevel.obj
 0002:00008068       ??_C@_1M@IIJCOJFA@?$AAx?$AAh?$AA?9?$AAZ?$AAA?$AA?$AA@ 000000018004b068     libucrt:lcidtoname_downlevel.obj
 0002:00008078       ??_C@_1M@LGPJHNJH@?$AAz?$AAu?$AA?9?$AAZ?$AAA?$AA?$AA@ 000000018004b078     libucrt:lcidtoname_downlevel.obj
 0002:00008088       ??_C@_1M@HOKAOIO@?$AAa?$AAf?$AA?9?$AAZ?$AAA?$AA?$AA@ 000000018004b088     libucrt:lcidtoname_downlevel.obj
 0002:00008098       ??_C@_1M@DPCLHLIE@?$AAk?$AAa?$AA?9?$AAG?$AAE?$AA?$AA@ 000000018004b098     libucrt:lcidtoname_downlevel.obj
 0002:000080a8       ??_C@_1M@BLKMHJBI@?$AAf?$AAo?$AA?9?$AAF?$AAO?$AA?$AA@ 000000018004b0a8     libucrt:lcidtoname_downlevel.obj
 0002:000080b8       ??_C@_1M@LGGJAPPB@?$AAh?$AAi?$AA?9?$AAI?$AAN?$AA?$AA@ 000000018004b0b8     libucrt:lcidtoname_downlevel.obj
 0002:000080c8       ??_C@_1M@FIKPIHFE@?$AAm?$AAt?$AA?9?$AAM?$AAT?$AA?$AA@ 000000018004b0c8     libucrt:lcidtoname_downlevel.obj
 0002:000080d8       ??_C@_1M@HEGGPBFA@?$AAs?$AAe?$AA?9?$AAN?$AAO?$AA?$AA@ 000000018004b0d8     libucrt:lcidtoname_downlevel.obj
 0002:000080e8       ??_C@_1M@EIBJEEPA@?$AAm?$AAs?$AA?9?$AAM?$AAY?$AA?$AA@ 000000018004b0e8     libucrt:lcidtoname_downlevel.obj
 0002:000080f8       ??_C@_1M@FHLBGMPP@?$AAk?$AAk?$AA?9?$AAK?$AAZ?$AA?$AA@ 000000018004b0f8     libucrt:lcidtoname_downlevel.obj
 0002:00008108       ??_C@_1M@NGJJLCGI@?$AAk?$AAy?$AA?9?$AAK?$AAG?$AA?$AA@ 000000018004b108     libucrt:lcidtoname_downlevel.obj
 0002:00008118       ??_C@_1M@GIENNBFC@?$AAs?$AAw?$AA?9?$AAK?$AAE?$AA?$AA@ 000000018004b118     libucrt:lcidtoname_downlevel.obj
 0002:00008128       ??_C@_1BG@NDGMJIMJ@?$AAu?$AAz?$AA?9?$AAU?$AAZ?$AA?9?$AAL?$AAa?$AAt?$AAn?$AA?$AA@ 000000018004b128     libucrt:lcidtoname_downlevel.obj
 0002:00008140       ??_C@_1M@IDCCIHBC@?$AAt?$AAt?$AA?9?$AAR?$AAU?$AA?$AA@ 000000018004b140     libucrt:lcidtoname_downlevel.obj
 0002:00008150       ??_C@_1M@LOICPMOJ@?$AAb?$AAn?$AA?9?$AAI?$AAN?$AA?$AA@ 000000018004b150     libucrt:lcidtoname_downlevel.obj
 0002:00008160       ??_C@_1M@KPKKNEAH@?$AAp?$AAa?$AA?9?$AAI?$AAN?$AA?$AA@ 000000018004b160     libucrt:lcidtoname_downlevel.obj
 0002:00008170       ??_C@_1M@PJGPPBOG@?$AAg?$AAu?$AA?9?$AAI?$AAN?$AA?$AA@ 000000018004b170     libucrt:lcidtoname_downlevel.obj
 0002:00008180       ??_C@_1M@KMKMOPHI@?$AAt?$AAa?$AA?9?$AAI?$AAN?$AA?$AA@ 000000018004b180     libucrt:lcidtoname_downlevel.obj
 0002:00008190       ??_C@_1M@KFEHEPAC@?$AAt?$AAe?$AA?9?$AAI?$AAN?$AA?$AA@ 000000018004b190     libucrt:lcidtoname_downlevel.obj
 0002:000081a0       ??_C@_1M@CDCLMGHI@?$AAk?$AAn?$AA?9?$AAI?$AAN?$AA?$AA@ 000000018004b1a0     libucrt:lcidtoname_downlevel.obj
 0002:000081b0       ??_C@_1M@MIODLDKF@?$AAm?$AAl?$AA?9?$AAI?$AAN?$AA?$AA@ 000000018004b1b0     libucrt:lcidtoname_downlevel.obj
 0002:000081c0       ??_C@_1M@PBIEACPO@?$AAm?$AAr?$AA?9?$AAI?$AAN?$AA?$AA@ 000000018004b1c0     libucrt:lcidtoname_downlevel.obj
 0002:000081d0       ??_C@_1M@NIDEAGPH@?$AAs?$AAa?$AA?9?$AAI?$AAN?$AA?$AA@ 000000018004b1d0     libucrt:lcidtoname_downlevel.obj
 0002:000081e0       ??_C@_1M@FHIHCBIO@?$AAm?$AAn?$AA?9?$AAM?$AAN?$AA?$AA@ 000000018004b1e0     libucrt:lcidtoname_downlevel.obj
 0002:000081f0       ??_C@_1M@JAIJPENP@?$AAc?$AAy?$AA?9?$AAG?$AAB?$AA?$AA@ 000000018004b1f0     libucrt:lcidtoname_downlevel.obj
 0002:00008200       ??_C@_1M@PHGFBEPN@?$AAg?$AAl?$AA?9?$AAE?$AAS?$AA?$AA@ 000000018004b200     libucrt:lcidtoname_downlevel.obj
 0002:00008210       ??_C@_1O@KPIPDNCP@?$AAk?$AAo?$AAk?$AA?9?$AAI?$AAN?$AA?$AA@ 000000018004b210     libucrt:lcidtoname_downlevel.obj
 0002:00008220       ??_C@_1O@KNHJLDJA@?$AAs?$AAy?$AAr?$AA?9?$AAS?$AAY?$AA?$AA@ 000000018004b220     libucrt:lcidtoname_downlevel.obj
 0002:00008230       ??_C@_1O@MKEKBLAH@?$AAd?$AAi?$AAv?$AA?9?$AAM?$AAV?$AA?$AA@ 000000018004b230     libucrt:lcidtoname_downlevel.obj
 0002:00008240       ??_C@_1O@OHDCKDDF@?$AAq?$AAu?$AAz?$AA?9?$AAB?$AAO?$AA?$AA@ 000000018004b240     libucrt:lcidtoname_downlevel.obj
 0002:00008250       ??_C@_1M@LEPJNLFD@?$AAn?$AAs?$AA?9?$AAZ?$AAA?$AA?$AA@ 000000018004b250     libucrt:lcidtoname_downlevel.obj
 0002:00008260       ??_C@_1M@OMLEIIJB@?$AAm?$AAi?$AA?9?$AAN?$AAZ?$AA?$AA@ 000000018004b260     libucrt:lcidtoname_downlevel.obj
 0002:00008270       ??_C@_1M@PMPEAILG@?$AAa?$AAr?$AA?9?$AAI?$AAQ?$AA?$AA@ 000000018004b270     libucrt:lcidtoname_downlevel.obj
 0002:00008280       ??_C@_1M@CNKPNOEE@?$AAd?$AAe?$AA?9?$AAC?$AAH?$AA?$AA@ 000000018004b280     libucrt:lcidtoname_downlevel.obj
 0002:00008290       ??_C@_1M@LKMGMLKO@?$AAe?$AAn?$AA?9?$AAG?$AAB?$AA?$AA@ 000000018004b290     libucrt:lcidtoname_downlevel.obj
 0002:000082a0       ??_C@_1M@PGKJFFGL@?$AAe?$AAs?$AA?9?$AAM?$AAX?$AA?$AA@ 000000018004b2a0     libucrt:lcidtoname_downlevel.obj
 0002:000082b0       ??_C@_1M@DNNANBDC@?$AAf?$AAr?$AA?9?$AAB?$AAE?$AA?$AA@ 000000018004b2b0     libucrt:lcidtoname_downlevel.obj
 0002:000082c0       ??_C@_1M@HLGMDFHM@?$AAi?$AAt?$AA?9?$AAC?$AAH?$AA?$AA@ 000000018004b2c0     libucrt:lcidtoname_downlevel.obj
 0002:000082d0       ??_C@_1M@CLLBGJH@?$AAn?$AAl?$AA?9?$AAB?$AAE?$AA?$AA@ 000000018004b2d0     libucrt:lcidtoname_downlevel.obj
 0002:000082e0       ??_C@_1M@BODBOGLF@?$AAn?$AAn?$AA?9?$AAN?$AAO?$AA?$AA@ 000000018004b2e0     libucrt:lcidtoname_downlevel.obj
 0002:000082f0       ??_C@_1M@HFFAHKAD@?$AAp?$AAt?$AA?9?$AAP?$AAT?$AA?$AA@ 000000018004b2f0     libucrt:lcidtoname_downlevel.obj
 0002:00008300       ??_C@_1BG@LNOAKHIE@?$AAs?$AAr?$AA?9?$AAS?$AAP?$AA?9?$AAL?$AAa?$AAt?$AAn?$AA?$AA@ 000000018004b300     libucrt:lcidtoname_downlevel.obj
 0002:00008318       ??_C@_1M@HBMHBGAK@?$AAs?$AAv?$AA?9?$AAF?$AAI?$AA?$AA@ 000000018004b318     libucrt:lcidtoname_downlevel.obj
 0002:00008328       ??_C@_1BG@DGCJGJBE@?$AAa?$AAz?$AA?9?$AAA?$AAZ?$AA?9?$AAC?$AAy?$AAr?$AAl?$AA?$AA@ 000000018004b328     libucrt:lcidtoname_downlevel.obj
 0002:00008340       ??_C@_1M@KEJDAAHB@?$AAs?$AAe?$AA?9?$AAS?$AAE?$AA?$AA@ 000000018004b340     libucrt:lcidtoname_downlevel.obj
 0002:00008350       ??_C@_1M@HEIBJJAD@?$AAm?$AAs?$AA?9?$AAB?$AAN?$AA?$AA@ 000000018004b350     libucrt:lcidtoname_downlevel.obj
 0002:00008360       ??_C@_1BG@PBGJMCEM@?$AAu?$AAz?$AA?9?$AAU?$AAZ?$AA?9?$AAC?$AAy?$AAr?$AAl?$AA?$AA@ 000000018004b360     libucrt:lcidtoname_downlevel.obj
 0002:00008378       ??_C@_1O@LAOBCMDF@?$AAq?$AAu?$AAz?$AA?9?$AAE?$AAC?$AA?$AA@ 000000018004b378     libucrt:lcidtoname_downlevel.obj
 0002:00008388       ??_C@_1M@POEEMAIO@?$AAa?$AAr?$AA?9?$AAE?$AAG?$AA?$AA@ 000000018004b388     libucrt:lcidtoname_downlevel.obj
 0002:00008398       ??_C@_1M@EFAKDEDL@?$AAz?$AAh?$AA?9?$AAH?$AAK?$AA?$AA@ 000000018004b398     libucrt:lcidtoname_downlevel.obj
 0002:000083a8       ??_C@_1M@HKKIJHGI@?$AAd?$AAe?$AA?9?$AAA?$AAT?$AA?$AA@ 000000018004b3a8     libucrt:lcidtoname_downlevel.obj
 0002:000083b8       ??_C@_1M@KBFBEHJF@?$AAe?$AAn?$AA?9?$AAA?$AAU?$AA?$AA@ 000000018004b3b8     libucrt:lcidtoname_downlevel.obj
 0002:000083c8       ??_C@_1M@MNPLFAAH@?$AAe?$AAs?$AA?9?$AAE?$AAS?$AA?$AA@ 000000018004b3c8     libucrt:lcidtoname_downlevel.obj
 0002:000083d8       ??_C@_1M@HJOOJFMA@?$AAf?$AAr?$AA?9?$AAC?$AAA?$AA?$AA@ 000000018004b3d8     libucrt:lcidtoname_downlevel.obj
 0002:000083e8       ??_C@_1BG@JPOFPNAB@?$AAs?$AAr?$AA?9?$AAS?$AAP?$AA?9?$AAC?$AAy?$AAr?$AAl?$AA?$AA@ 000000018004b3e8     libucrt:lcidtoname_downlevel.obj
 0002:00008400       ??_C@_1M@LNFOCMOB@?$AAs?$AAe?$AA?9?$AAF?$AAI?$AA?$AA@ 000000018004b400     libucrt:lcidtoname_downlevel.obj
 0002:00008410       ??_C@_1O@MGJBOAMB@?$AAq?$AAu?$AAz?$AA?9?$AAP?$AAE?$AA?$AA@ 000000018004b410     libucrt:lcidtoname_downlevel.obj
 0002:00008420       ??_C@_1M@GJINLBOK@?$AAa?$AAr?$AA?9?$AAL?$AAY?$AA?$AA@ 000000018004b420     libucrt:lcidtoname_downlevel.obj
 0002:00008430       ??_C@_1M@GGMNHJNL@?$AAz?$AAh?$AA?9?$AAS?$AAG?$AA?$AA@ 000000018004b430     libucrt:lcidtoname_downlevel.obj
 0002:00008440       ??_C@_1M@HOIKODND@?$AAd?$AAe?$AA?9?$AAL?$AAU?$AA?$AA@ 000000018004b440     libucrt:lcidtoname_downlevel.obj
 0002:00008450       ??_C@_1M@DDOCCGFG@?$AAe?$AAn?$AA?9?$AAC?$AAA?$AA?$AA@ 000000018004b450     libucrt:lcidtoname_downlevel.obj
 0002:00008460       ??_C@_1M@BNOEMJLF@?$AAe?$AAs?$AA?9?$AAG?$AAT?$AA?$AA@ 000000018004b460     libucrt:lcidtoname_downlevel.obj
 0002:00008470       ??_C@_1M@EOGNKEK@?$AAf?$AAr?$AA?9?$AAC?$AAH?$AA?$AA@ 000000018004b470     libucrt:lcidtoname_downlevel.obj
 0002:00008480       ??_C@_1M@FLIDJFHL@?$AAh?$AAr?$AA?9?$AAB?$AAA?$AA?$AA@ 000000018004b480     libucrt:lcidtoname_downlevel.obj
 0002:00008490       ??_C@_1O@FMCELNAJ@?$AAs?$AAm?$AAj?$AA?9?$AAN?$AAO?$AA?$AA@ 000000018004b490     libucrt:lcidtoname_downlevel.obj
 0002:000084a0       ??_C@_1M@JHGLJMGJ@?$AAa?$AAr?$AA?9?$AAD?$AAZ?$AA?$AA@ 000000018004b4a0     libucrt:lcidtoname_downlevel.obj
 0002:000084b0       ??_C@_1M@JKKFDCNP@?$AAz?$AAh?$AA?9?$AAM?$AAO?$AA?$AA@ 000000018004b4b0     libucrt:lcidtoname_downlevel.obj
 0002:000084c0       ??_C@_1M@GEEFALPE@?$AAd?$AAe?$AA?9?$AAL?$AAI?$AA?$AA@ 000000018004b4c0     libucrt:lcidtoname_downlevel.obj
 0002:000084d0       ??_C@_1M@IGEOFBG@?$AAe?$AAn?$AA?9?$AAN?$AAZ?$AA?$AA@ 000000018004b4d0     libucrt:lcidtoname_downlevel.obj
 0002:000084e0       ??_C@_1M@KDBONEHP@?$AAe?$AAs?$AA?9?$AAC?$AAR?$AA?$AA@ 000000018004b4e0     libucrt:lcidtoname_downlevel.obj
 0002:000084f0       ??_C@_1M@FHMDOHNN@?$AAf?$AAr?$AA?9?$AAL?$AAU?$AA?$AA@ 000000018004b4f0     libucrt:lcidtoname_downlevel.obj
 0002:00008500       ??_C@_1BG@NFKKMAFG@?$AAb?$AAs?$AA?9?$AAB?$AAA?$AA?9?$AAL?$AAa?$AAt?$AAn?$AA?$AA@ 000000018004b500     libucrt:lcidtoname_downlevel.obj
 0002:00008518       ??_C@_1O@IMNBEMCI@?$AAs?$AAm?$AAj?$AA?9?$AAS?$AAE?$AA?$AA@ 000000018004b518     libucrt:lcidtoname_downlevel.obj
 0002:00008528       ??_C@_1M@DHHMBNDP@?$AAa?$AAr?$AA?9?$AAM?$AAA?$AA?$AA@ 000000018004b528     libucrt:lcidtoname_downlevel.obj
 0002:00008538       ??_C@_1M@BNBLJCGH@?$AAe?$AAn?$AA?9?$AAI?$AAE?$AA?$AA@ 000000018004b538     libucrt:lcidtoname_downlevel.obj
 0002:00008548       ??_C@_1M@GEPAFMDL@?$AAe?$AAs?$AA?9?$AAP?$AAA?$AA?$AA@ 000000018004b548     libucrt:lcidtoname_downlevel.obj
 0002:00008558       ??_C@_1M@OJONDMDL@?$AAf?$AAr?$AA?9?$AAM?$AAC?$AA?$AA@ 000000018004b558     libucrt:lcidtoname_downlevel.obj
 0002:00008568       ??_C@_1BG@OBCNFJB@?$AAs?$AAr?$AA?9?$AAB?$AAA?$AA?9?$AAL?$AAa?$AAt?$AAn?$AA?$AA@ 000000018004b568     libucrt:lcidtoname_downlevel.obj
 0002:00008580       ??_C@_1O@KEMEEGPO@?$AAs?$AAm?$AAa?$AA?9?$AAN?$AAO?$AA?$AA@ 000000018004b580     libucrt:lcidtoname_downlevel.obj
 0002:00008590       ??_C@_1M@ELMGFODK@?$AAa?$AAr?$AA?9?$AAT?$AAN?$AA?$AA@ 000000018004b590     libucrt:lcidtoname_downlevel.obj
 0002:000085a0       ??_C@_1M@BHDLHFAF@?$AAe?$AAn?$AA?9?$AAZ?$AAA?$AA?$AA@ 000000018004b5a0     libucrt:lcidtoname_downlevel.obj
 0002:000085b0       ??_C@_1M@BMGIGLIF@?$AAe?$AAs?$AA?9?$AAD?$AAO?$AA?$AA@ 000000018004b5b0     libucrt:lcidtoname_downlevel.obj
 0002:000085c0       ??_C@_1BG@CMBHIPBE@?$AAs?$AAr?$AA?9?$AAB?$AAA?$AA?9?$AAC?$AAy?$AAr?$AAl?$AA?$AA@ 000000018004b5c0     libucrt:lcidtoname_downlevel.obj
 0002:000085d8       ??_C@_1O@HEDBLHNP@?$AAs?$AAm?$AAa?$AA?9?$AAS?$AAE?$AA?$AA@ 000000018004b5d8     libucrt:lcidtoname_downlevel.obj
 0002:000085e8       ??_C@_1M@DAGCADIM@?$AAa?$AAr?$AA?9?$AAO?$AAM?$AA?$AA@ 000000018004b5e8     libucrt:lcidtoname_downlevel.obj
 0002:000085f8       ??_C@_1M@FODLMICG@?$AAe?$AAn?$AA?9?$AAJ?$AAM?$AA?$AA@ 000000018004b5f8     libucrt:lcidtoname_downlevel.obj
 0002:00008608       ??_C@_1M@DNMLCIHB@?$AAe?$AAs?$AA?9?$AAV?$AAE?$AA?$AA@ 000000018004b608     libucrt:lcidtoname_downlevel.obj
 0002:00008618       ??_C@_1O@EOKHMKJK@?$AAs?$AAm?$AAs?$AA?9?$AAF?$AAI?$AA?$AA@ 000000018004b618     libucrt:lcidtoname_downlevel.obj
 0002:00008628       ??_C@_1M@CAFJMKOF@?$AAa?$AAr?$AA?9?$AAY?$AAE?$AA?$AA@ 000000018004b628     libucrt:lcidtoname_downlevel.obj
 0002:00008638       ??_C@_1M@CBFHIJLI@?$AAe?$AAn?$AA?9?$AAC?$AAB?$AA?$AA@ 000000018004b638     libucrt:lcidtoname_downlevel.obj
 0002:00008648       ??_C@_1M@BGNFLDN@?$AAe?$AAs?$AA?9?$AAC?$AAO?$AA?$AA@ 000000018004b648     libucrt:lcidtoname_downlevel.obj
 0002:00008658       ??_C@_1O@JMPHMAMC@?$AAs?$AAm?$AAn?$AA?9?$AAF?$AAI?$AA?$AA@ 000000018004b658     libucrt:lcidtoname_downlevel.obj
 0002:00008668       ??_C@_1M@JLANABKE@?$AAa?$AAr?$AA?9?$AAS?$AAY?$AA?$AA@ 000000018004b668     libucrt:lcidtoname_downlevel.obj
 0002:00008678       ??_C@_1M@HPKGCFGN@?$AAe?$AAn?$AA?9?$AAB?$AAZ?$AA?$AA@ 000000018004b678     libucrt:lcidtoname_downlevel.obj
 0002:00008688       ??_C@_1M@OLJCMLGM@?$AAe?$AAs?$AA?9?$AAP?$AAE?$AA?$AA@ 000000018004b688     libucrt:lcidtoname_downlevel.obj
 0002:00008698       ??_C@_1M@MKKGFKLE@?$AAa?$AAr?$AA?9?$AAJ?$AAO?$AA?$AA@ 000000018004b698     libucrt:lcidtoname_downlevel.obj
 0002:000086a8       ??_C@_1M@EKPGLDNI@?$AAe?$AAn?$AA?9?$AAT?$AAT?$AA?$AA@ 000000018004b6a8     libucrt:lcidtoname_downlevel.obj
 0002:000086b8       ??_C@_1M@OONGHFHE@?$AAe?$AAs?$AA?9?$AAA?$AAR?$AA?$AA@ 000000018004b6b8     libucrt:lcidtoname_downlevel.obj
 0002:000086c8       ??_C@_1M@OOJFGBHE@?$AAa?$AAr?$AA?9?$AAL?$AAB?$AA?$AA@ 000000018004b6c8     libucrt:lcidtoname_downlevel.obj
 0002:000086d8       ??_C@_1M@GCEJHNEG@?$AAe?$AAn?$AA?9?$AAZ?$AAW?$AA?$AA@ 000000018004b6d8     libucrt:lcidtoname_downlevel.obj
 0002:000086e8       ??_C@_1M@JNOCAHJI@?$AAe?$AAs?$AA?9?$AAE?$AAC?$AA?$AA@ 000000018004b6e8     libucrt:lcidtoname_downlevel.obj
 0002:000086f8       ??_C@_1M@JEFHPGGB@?$AAa?$AAr?$AA?9?$AAK?$AAW?$AA?$AA@ 000000018004b6f8     libucrt:lcidtoname_downlevel.obj
 0002:00008708       ??_C@_1M@MLKIBJOJ@?$AAe?$AAn?$AA?9?$AAP?$AAH?$AA?$AA@ 000000018004b708     libucrt:lcidtoname_downlevel.obj
 0002:00008718       ??_C@_1M@BDNIPEND@?$AAe?$AAs?$AA?9?$AAC?$AAL?$AA?$AA@ 000000018004b718     libucrt:lcidtoname_downlevel.obj
 0002:00008728       ??_C@_1M@MPNMEKBD@?$AAa?$AAr?$AA?9?$AAA?$AAE?$AA?$AA@ 000000018004b728     libucrt:lcidtoname_downlevel.obj
 0002:00008738       ??_C@_1M@KBJALCPI@?$AAe?$AAs?$AA?9?$AAU?$AAY?$AA?$AA@ 000000018004b738     libucrt:lcidtoname_downlevel.obj
 0002:00008748       ??_C@_1M@LLCCOAGA@?$AAa?$AAr?$AA?9?$AAB?$AAH?$AA?$AA@ 000000018004b748     libucrt:lcidtoname_downlevel.obj
 0002:00008758       ??_C@_1M@PBFNCDEL@?$AAe?$AAs?$AA?9?$AAP?$AAY?$AA?$AA@ 000000018004b758     libucrt:lcidtoname_downlevel.obj
 0002:00008768       ??_C@_1M@EDGINPNP@?$AAa?$AAr?$AA?9?$AAQ?$AAA?$AA?$AA@ 000000018004b768     libucrt:lcidtoname_downlevel.obj
 0002:00008778       ??_C@_1M@MKDBIIJI@?$AAe?$AAs?$AA?9?$AAB?$AAO?$AA?$AA@ 000000018004b778     libucrt:lcidtoname_downlevel.obj
 0002:00008788       ??_C@_1M@CPKKEBLD@?$AAe?$AAs?$AA?9?$AAS?$AAV?$AA?$AA@ 000000018004b788     libucrt:lcidtoname_downlevel.obj
 0002:00008798       ??_C@_1M@NDBGMMJL@?$AAe?$AAs?$AA?9?$AAH?$AAN?$AA?$AA@ 000000018004b798     libucrt:lcidtoname_downlevel.obj
 0002:000087a8       ??_C@_1M@JIJIBHDP@?$AAe?$AAs?$AA?9?$AAN?$AAI?$AA?$AA@ 000000018004b7a8     libucrt:lcidtoname_downlevel.obj
 0002:000087b8       ??_C@_1M@CGFMKEEK@?$AAe?$AAs?$AA?9?$AAP?$AAR?$AA?$AA@ 000000018004b7b8     libucrt:lcidtoname_downlevel.obj
 0002:000087c8       ??_C@_1O@ICJHKIIK@?$AAz?$AAh?$AA?9?$AAC?$AAH?$AAT?$AA?$AA@ 000000018004b7c8     libucrt:lcidtoname_downlevel.obj
 0002:000087d8       ??_C@_15CLNEJCE@?$AAs?$AAr?$AA?$AA@ 000000018004b7d8     libucrt:lcidtoname_downlevel.obj
 0002:00009620       ??_C@_1M@KAHEKEIG@?$AAa?$AAf?$AA?9?$AAz?$AAa?$AA?$AA@ 000000018004c620     libucrt:lcidtoname_downlevel.obj
 0002:00009630       ??_C@_1M@GIECOABL@?$AAa?$AAr?$AA?9?$AAa?$AAe?$AA?$AA@ 000000018004c630     libucrt:lcidtoname_downlevel.obj
 0002:00009640       ??_C@_1M@BMLMEKGI@?$AAa?$AAr?$AA?9?$AAb?$AAh?$AA?$AA@ 000000018004c640     libucrt:lcidtoname_downlevel.obj
 0002:00009650       ??_C@_1M@DAPFDGGB@?$AAa?$AAr?$AA?9?$AAd?$AAz?$AA?$AA@ 000000018004c650     libucrt:lcidtoname_downlevel.obj
 0002:00009660       ??_C@_1M@FJNKGKIG@?$AAa?$AAr?$AA?9?$AAe?$AAg?$AA?$AA@ 000000018004c660     libucrt:lcidtoname_downlevel.obj
 0002:00009670       ??_C@_1M@FLGKKCLO@?$AAa?$AAr?$AA?9?$AAi?$AAq?$AA?$AA@ 000000018004c670     libucrt:lcidtoname_downlevel.obj
 0002:00009680       ??_C@_1M@GNDIPALM@?$AAa?$AAr?$AA?9?$AAj?$AAo?$AA?$AA@ 000000018004c680     libucrt:lcidtoname_downlevel.obj
 0002:00009690       ??_C@_1M@DDMJFMGJ@?$AAa?$AAr?$AA?9?$AAk?$AAw?$AA?$AA@ 000000018004c690     libucrt:lcidtoname_downlevel.obj
 0002:000096a0       ??_C@_1M@EJALMLHM@?$AAa?$AAr?$AA?9?$AAl?$AAb?$AA?$AA@ 000000018004c6a0     libucrt:lcidtoname_downlevel.obj
 0002:000096b0       ??_C@_1M@MOBDBLOC@?$AAa?$AAr?$AA?9?$AAl?$AAy?$AA?$AA@ 000000018004c6b0     libucrt:lcidtoname_downlevel.obj
 0002:000096c0       ??_C@_1M@JAOCLHDH@?$AAa?$AAr?$AA?9?$AAm?$AAa?$AA?$AA@ 000000018004c6c0     libucrt:lcidtoname_downlevel.obj
 0002:000096d0       ??_C@_1M@JHPMKJIE@?$AAa?$AAr?$AA?9?$AAo?$AAm?$AA?$AA@ 000000018004c6d0     libucrt:lcidtoname_downlevel.obj
 0002:000096e0       ??_C@_1M@OEPGHFNH@?$AAa?$AAr?$AA?9?$AAq?$AAa?$AA?$AA@ 000000018004c6e0     libucrt:lcidtoname_downlevel.obj
 0002:000096f0       ??_C@_1M@KJDONENM@?$AAa?$AAr?$AA?9?$AAs?$AAa?$AA?$AA@ 000000018004c6f0     libucrt:lcidtoname_downlevel.obj
 0002:00009700       ??_C@_1M@DMJDKLKM@?$AAa?$AAr?$AA?9?$AAs?$AAy?$AA?$AA@ 000000018004c700     libucrt:lcidtoname_downlevel.obj
 0002:00009710       ??_C@_1M@OMFIPEDC@?$AAa?$AAr?$AA?9?$AAt?$AAn?$AA?$AA@ 000000018004c710     libucrt:lcidtoname_downlevel.obj
 0002:00009720       ??_C@_1M@IHMHGAON@?$AAa?$AAr?$AA?9?$AAy?$AAe?$AA?$AA@ 000000018004c720     libucrt:lcidtoname_downlevel.obj
 0002:00009730       ??_C@_1BG@KDCPGJGB@?$AAa?$AAz?$AA?9?$AAa?$AAz?$AA?9?$AAc?$AAy?$AAr?$AAl?$AA?$AA@ 000000018004c730     libucrt:lcidtoname_downlevel.obj
 0002:00009748       ??_C@_1BG@IBCKDDOE@?$AAa?$AAz?$AA?9?$AAa?$AAz?$AA?9?$AAl?$AAa?$AAt?$AAn?$AA?$AA@ 000000018004c748     libucrt:lcidtoname_downlevel.obj
 0002:00009760       ??_C@_1M@EGPFDCPD@?$AAb?$AAe?$AA?9?$AAb?$AAy?$AA?$AA@ 000000018004c760     libucrt:lcidtoname_downlevel.obj
 0002:00009770       ??_C@_1M@PCMGMCGC@?$AAb?$AAg?$AA?9?$AAb?$AAg?$AA?$AA@ 000000018004c770     libucrt:lcidtoname_downlevel.obj
 0002:00009780       ??_C@_1M@BJBMFGOB@?$AAb?$AAn?$AA?9?$AAi?$AAn?$AA?$AA@ 000000018004c780     libucrt:lcidtoname_downlevel.obj
 0002:00009790       ??_C@_1BG@EAKMMACD@?$AAb?$AAs?$AA?9?$AAb?$AAa?$AA?9?$AAl?$AAa?$AAt?$AAn?$AA?$AA@ 000000018004c790     libucrt:lcidtoname_downlevel.obj
 0002:000097a8       ??_C@_1M@KGADAODK@?$AAc?$AAa?$AA?9?$AAe?$AAs?$AA?$AA@ 000000018004c7a8     libucrt:lcidtoname_downlevel.obj
 0002:000097b8       ??_C@_1M@COAJPDHI@?$AAc?$AAs?$AA?9?$AAc?$AAz?$AA?$AA@ 000000018004c7b8     libucrt:lcidtoname_downlevel.obj
 0002:000097c8       ??_C@_1M@DHBHFONH@?$AAc?$AAy?$AA?9?$AAg?$AAb?$AA?$AA@ 000000018004c7c8     libucrt:lcidtoname_downlevel.obj
 0002:000097d8       ??_C@_1M@IMGKELGA@?$AAd?$AAa?$AA?9?$AAd?$AAk?$AA?$AA@ 000000018004c7d8     libucrt:lcidtoname_downlevel.obj
 0002:000097e8       ??_C@_1M@NNDGDNGA@?$AAd?$AAe?$AA?9?$AAa?$AAt?$AA?$AA@ 000000018004c7e8     libucrt:lcidtoname_downlevel.obj
 0002:000097f8       ??_C@_1M@IKDBHEEM@?$AAd?$AAe?$AA?9?$AAc?$AAh?$AA?$AA@ 000000018004c7f8     libucrt:lcidtoname_downlevel.obj
 0002:00009808       ??_C@_1M@GFFOJMCJ@?$AAd?$AAe?$AA?9?$AAd?$AAe?$AA?$AA@ 000000018004c808     libucrt:lcidtoname_downlevel.obj
 0002:00009818       ??_C@_1M@MDNLKBPM@?$AAd?$AAe?$AA?9?$AAl?$AAi?$AA?$AA@ 000000018004c818     libucrt:lcidtoname_downlevel.obj
 0002:00009828       ??_C@_1M@NJBEEJNL@?$AAd?$AAe?$AA?9?$AAl?$AAu?$AA?$AA@ 000000018004c828     libucrt:lcidtoname_downlevel.obj
 0002:00009838       ??_C@_1O@GNNELBAP@?$AAd?$AAi?$AAv?$AA?9?$AAm?$AAv?$AA?$AA@ 000000018004c838     libucrt:lcidtoname_downlevel.obj
 0002:00009848       ??_C@_1M@EJLEOGAE@?$AAe?$AAl?$AA?9?$AAg?$AAr?$AA?$AA@ 000000018004c848     libucrt:lcidtoname_downlevel.obj
 0002:00009858       ??_C@_1M@GMPONJN@?$AAe?$AAn?$AA?9?$AAa?$AAu?$AA?$AA@ 000000018004c858     libucrt:lcidtoname_downlevel.obj
 0002:00009868       ??_C@_1M@NIDIIPGF@?$AAe?$AAn?$AA?9?$AAb?$AAz?$AA?$AA@ 000000018004c868     libucrt:lcidtoname_downlevel.obj
 0002:00009878       ??_C@_1M@JEHMIMFO@?$AAe?$AAn?$AA?9?$AAc?$AAa?$AA?$AA@ 000000018004c878     libucrt:lcidtoname_downlevel.obj
 0002:00009888       ??_C@_1M@IGMJCDLA@?$AAe?$AAn?$AA?9?$AAc?$AAb?$AA?$AA@ 000000018004c888     libucrt:lcidtoname_downlevel.obj
 0002:00009898       ??_C@_1M@BNFIGBKG@?$AAe?$AAn?$AA?9?$AAg?$AAb?$AA?$AA@ 000000018004c898     libucrt:lcidtoname_downlevel.obj
 0002:000098a8       ??_C@_1M@LKIFDIGP@?$AAe?$AAn?$AA?9?$AAi?$AAe?$AA?$AA@ 000000018004c8a8     libucrt:lcidtoname_downlevel.obj
 0002:000098b8       ??_C@_1M@PJKFGCCO@?$AAe?$AAn?$AA?9?$AAj?$AAm?$AA?$AA@ 000000018004c8b8     libucrt:lcidtoname_downlevel.obj
 0002:000098c8       ??_C@_1M@KPPKEPBO@?$AAe?$AAn?$AA?9?$AAn?$AAz?$AA?$AA@ 000000018004c8c8     libucrt:lcidtoname_downlevel.obj
 0002:000098d8       ??_C@_1M@GMDGLDOB@?$AAe?$AAn?$AA?9?$AAp?$AAh?$AA?$AA@ 000000018004c8d8     libucrt:lcidtoname_downlevel.obj
 0002:000098e8       ??_C@_1M@ONGIBJNA@?$AAe?$AAn?$AA?9?$AAt?$AAt?$AA?$AA@ 000000018004c8e8     libucrt:lcidtoname_downlevel.obj
 0002:000098f8       ??_C@_1M@LLODPCMM@?$AAe?$AAn?$AA?9?$AAu?$AAs?$AA?$AA@ 000000018004c8f8     libucrt:lcidtoname_downlevel.obj
 0002:00009908       ??_C@_1M@LAKFNPAN@?$AAe?$AAn?$AA?9?$AAz?$AAa?$AA?$AA@ 000000018004c908     libucrt:lcidtoname_downlevel.obj
 0002:00009918       ??_C@_1M@MFNHNHEO@?$AAe?$AAn?$AA?9?$AAz?$AAw?$AA?$AA@ 000000018004c918     libucrt:lcidtoname_downlevel.obj
 0002:00009928       ??_C@_1M@EJEINPHM@?$AAe?$AAs?$AA?9?$AAa?$AAr?$AA?$AA@ 000000018004c928     libucrt:lcidtoname_downlevel.obj
 0002:00009938       ??_C@_1M@GNKPCCJA@?$AAe?$AAs?$AA?9?$AAb?$AAo?$AA?$AA@ 000000018004c938     libucrt:lcidtoname_downlevel.obj
 0002:00009948       ??_C@_1M@LEEGFONL@?$AAe?$AAs?$AA?9?$AAc?$AAl?$AA?$AA@ 000000018004c948     libucrt:lcidtoname_downlevel.obj
 0002:00009958       ??_C@_1M@KGPDPBDF@?$AAe?$AAs?$AA?9?$AAc?$AAo?$AA?$AA@ 000000018004c958     libucrt:lcidtoname_downlevel.obj
 0002:00009968       ??_C@_1M@EIAHOHH@?$AAe?$AAs?$AA?9?$AAc?$AAr?$AA?$AA@ 000000018004c968     libucrt:lcidtoname_downlevel.obj
 0002:00009978       ??_C@_1M@LLPGMBIN@?$AAe?$AAs?$AA?9?$AAd?$AAo?$AA?$AA@ 000000018004c978     libucrt:lcidtoname_downlevel.obj
 0002:00009988       ??_C@_1M@DKHMKNJA@?$AAe?$AAs?$AA?9?$AAe?$AAc?$AA?$AA@ 000000018004c988     libucrt:lcidtoname_downlevel.obj
 0002:00009998       ??_C@_1M@GKGFPKAP@?$AAe?$AAs?$AA?9?$AAe?$AAs?$AA?$AA@ 000000018004c998     libucrt:lcidtoname_downlevel.obj
 0002:000099a8       ??_C@_1M@LKHKGDLN@?$AAe?$AAs?$AA?9?$AAg?$AAt?$AA?$AA@ 000000018004c9a8     libucrt:lcidtoname_downlevel.obj
 0002:000099b8       ??_C@_1M@HEIIGGJD@?$AAe?$AAs?$AA?9?$AAh?$AAn?$AA?$AA@ 000000018004c9b8     libucrt:lcidtoname_downlevel.obj
 0002:000099c8       ??_C@_1M@FBDHPPGD@?$AAe?$AAs?$AA?9?$AAm?$AAx?$AA?$AA@ 000000018004c9c8     libucrt:lcidtoname_downlevel.obj
 0002:000099d8       ??_C@_1M@DPAGLNDH@?$AAe?$AAs?$AA?9?$AAn?$AAi?$AA?$AA@ 000000018004c9d8     libucrt:lcidtoname_downlevel.obj
 0002:000099e8       ??_C@_1M@MDGOPGDD@?$AAe?$AAs?$AA?9?$AAp?$AAa?$AA?$AA@ 000000018004c9e8     libucrt:lcidtoname_downlevel.obj
 0002:000099f8       ??_C@_1M@EMAMGBGE@?$AAe?$AAs?$AA?9?$AAp?$AAe?$AA?$AA@ 000000018004c9f8     libucrt:lcidtoname_downlevel.obj
 0002:00009a08       ??_C@_1M@IBMCAOEC@?$AAe?$AAs?$AA?9?$AAp?$AAr?$AA?$AA@ 000000018004ca08     libucrt:lcidtoname_downlevel.obj
 0002:00009a18       ??_C@_1M@FGMDIJED@?$AAe?$AAs?$AA?9?$AAp?$AAy?$AA?$AA@ 000000018004ca18     libucrt:lcidtoname_downlevel.obj
 0002:00009a28       ??_C@_1M@IIDEOLLL@?$AAe?$AAs?$AA?9?$AAs?$AAv?$AA?$AA@ 000000018004ca28     libucrt:lcidtoname_downlevel.obj
 0002:00009a38       ??_C@_1M@GAOBIPA@?$AAe?$AAs?$AA?9?$AAu?$AAy?$AA?$AA@ 000000018004ca38     libucrt:lcidtoname_downlevel.obj
 0002:00009a48       ??_C@_1M@JKFFICHJ@?$AAe?$AAs?$AA?9?$AAv?$AAe?$AA?$AA@ 000000018004ca48     libucrt:lcidtoname_downlevel.obj
 0002:00009a58       ??_C@_1M@PNMLOJDF@?$AAe?$AAt?$AA?9?$AAe?$AAe?$AA?$AA@ 000000018004ca58     libucrt:lcidtoname_downlevel.obj
 0002:00009a68       ??_C@_1M@GHHLIKEI@?$AAe?$AAu?$AA?9?$AAe?$AAs?$AA?$AA@ 000000018004ca68     libucrt:lcidtoname_downlevel.obj
 0002:00009a78       ??_C@_1M@PBNONODE@?$AAf?$AAa?$AA?9?$AAi?$AAr?$AA?$AA@ 000000018004ca78     libucrt:lcidtoname_downlevel.obj
 0002:00009a88       ??_C@_1M@JEEHPMIL@?$AAf?$AAi?$AA?9?$AAf?$AAi?$AA?$AA@ 000000018004ca88     libucrt:lcidtoname_downlevel.obj
 0002:00009a98       ??_C@_1M@LMDCNDBA@?$AAf?$AAo?$AA?9?$AAf?$AAo?$AA?$AA@ 000000018004ca98     libucrt:lcidtoname_downlevel.obj
 0002:00009aa8       ??_C@_1M@JKEOHLDK@?$AAf?$AAr?$AA?9?$AAb?$AAe?$AA?$AA@ 000000018004caa8     libucrt:lcidtoname_downlevel.obj
 0002:00009ab8       ??_C@_1M@NOHADPMI@?$AAf?$AAr?$AA?9?$AAc?$AAa?$AA?$AA@ 000000018004cab8     libucrt:lcidtoname_downlevel.obj
 0002:00009ac8       ??_C@_1M@KDHIHAEC@?$AAf?$AAr?$AA?9?$AAc?$AAh?$AA?$AA@ 000000018004cac8     libucrt:lcidtoname_downlevel.obj
 0002:00009ad8       ??_C@_1M@MMBBFGAK@?$AAf?$AAr?$AA?9?$AAf?$AAr?$AA?$AA@ 000000018004cad8     libucrt:lcidtoname_downlevel.obj
 0002:00009ae8       ??_C@_1M@PAFNENNF@?$AAf?$AAr?$AA?9?$AAl?$AAu?$AA?$AA@ 000000018004cae8     libucrt:lcidtoname_downlevel.obj
 0002:00009af8       ??_C@_1M@EOHDJGDD@?$AAf?$AAr?$AA?9?$AAm?$AAc?$AA?$AA@ 000000018004caf8     libucrt:lcidtoname_downlevel.obj
 0002:00009b08       ??_C@_1M@FAPLLOPF@?$AAg?$AAl?$AA?9?$AAe?$AAs?$AA?$AA@ 000000018004cb08     libucrt:lcidtoname_downlevel.obj
 0002:00009b18       ??_C@_1M@FOPBFLOO@?$AAg?$AAu?$AA?9?$AAi?$AAn?$AA?$AA@ 000000018004cb18     libucrt:lcidtoname_downlevel.obj
 0002:00009b28       ??_C@_1M@KBMCINPM@?$AAh?$AAe?$AA?9?$AAi?$AAl?$AA?$AA@ 000000018004cb28     libucrt:lcidtoname_downlevel.obj
 0002:00009b38       ??_C@_1M@BBPHKFPJ@?$AAh?$AAi?$AA?9?$AAi?$AAn?$AA?$AA@ 000000018004cb38     libucrt:lcidtoname_downlevel.obj
 0002:00009b48       ??_C@_1M@PMBNDPHD@?$AAh?$AAr?$AA?9?$AAb?$AAa?$AA?$AA@ 000000018004cb48     libucrt:lcidtoname_downlevel.obj
 0002:00009b58       ??_C@_1M@BPCKOEGE@?$AAh?$AAr?$AA?9?$AAh?$AAr?$AA?$AA@ 000000018004cb58     libucrt:lcidtoname_downlevel.obj
 0002:00009b68       ??_C@_1M@GACBMHKE@?$AAh?$AAu?$AA?9?$AAh?$AAu?$AA?$AA@ 000000018004cb68     libucrt:lcidtoname_downlevel.obj
 0002:00009b78       ??_C@_1M@MILPAJJC@?$AAh?$AAy?$AA?9?$AAa?$AAm?$AA?$AA@ 000000018004cb78     libucrt:lcidtoname_downlevel.obj
 0002:00009b88       ??_C@_1M@BABBICEC@?$AAi?$AAd?$AA?9?$AAi?$AAd?$AA?$AA@ 000000018004cb88     libucrt:lcidtoname_downlevel.obj
 0002:00009b98       ??_C@_1M@BIKNHHPF@?$AAi?$AAs?$AA?9?$AAi?$AAs?$AA?$AA@ 000000018004cb98     libucrt:lcidtoname_downlevel.obj
 0002:00009ba8       ??_C@_1M@NMPCJPHE@?$AAi?$AAt?$AA?9?$AAc?$AAh?$AA?$AA@ 000000018004cba8     libucrt:lcidtoname_downlevel.obj
 0002:00009bb8       ??_C@_1M@GHKGFEDF@?$AAi?$AAt?$AA?9?$AAi?$AAt?$AA?$AA@ 000000018004cbb8     libucrt:lcidtoname_downlevel.obj
 0002:00009bc8       ??_C@_1M@NIEJCJJA@?$AAj?$AAa?$AA?9?$AAj?$AAp?$AA?$AA@ 000000018004cbc8     libucrt:lcidtoname_downlevel.obj
 0002:00009bd8       ??_C@_1M@JILFNBIM@?$AAk?$AAa?$AA?9?$AAg?$AAe?$AA?$AA@ 000000018004cbd8     libucrt:lcidtoname_downlevel.obj
 0002:00009be8       ??_C@_1M@PACPMGPH@?$AAk?$AAk?$AA?9?$AAk?$AAz?$AA?$AA@ 000000018004cbe8     libucrt:lcidtoname_downlevel.obj
 0002:00009bf8       ??_C@_1M@IELFGMHA@?$AAk?$AAn?$AA?9?$AAi?$AAn?$AA?$AA@ 000000018004cbf8     libucrt:lcidtoname_downlevel.obj
 0002:00009c08       ??_C@_1O@IBBJHCH@?$AAk?$AAo?$AAk?$AA?9?$AAi?$AAn?$AA?$AA@ 000000018004cc08     libucrt:lcidtoname_downlevel.obj
 0002:00009c18       ??_C@_1M@DMHAEOGC@?$AAk?$AAo?$AA?9?$AAk?$AAr?$AA?$AA@ 000000018004cc18     libucrt:lcidtoname_downlevel.obj
 0002:00009c28       ??_C@_1M@HBAHBIGA@?$AAk?$AAy?$AA?9?$AAk?$AAg?$AA?$AA@ 000000018004cc28     libucrt:lcidtoname_downlevel.obj
 0002:00009c38       ??_C@_1M@KPMILCJG@?$AAl?$AAt?$AA?9?$AAl?$AAt?$AA?$AA@ 000000018004cc38     libucrt:lcidtoname_downlevel.obj
 0002:00009c48       ??_C@_1M@BDEKKCA@?$AAl?$AAv?$AA?9?$AAl?$AAv?$AA?$AA@ 000000018004cc48     libucrt:lcidtoname_downlevel.obj
 0002:00009c58       ??_C@_1M@ELCKCCJJ@?$AAm?$AAi?$AA?9?$AAn?$AAz?$AA?$AA@ 000000018004cc58     libucrt:lcidtoname_downlevel.obj
 0002:00009c68       ??_C@_1M@CBOOLAPA@?$AAm?$AAk?$AA?9?$AAm?$AAk?$AA?$AA@ 000000018004cc68     libucrt:lcidtoname_downlevel.obj
 0002:00009c78       ??_C@_1M@GPHNBJKN@?$AAm?$AAl?$AA?9?$AAi?$AAn?$AA?$AA@ 000000018004cc78     libucrt:lcidtoname_downlevel.obj
 0002:00009c88       ??_C@_1M@PABJILIG@?$AAm?$AAn?$AA?9?$AAm?$AAn?$AA?$AA@ 000000018004cc88     libucrt:lcidtoname_downlevel.obj
 0002:00009c98       ??_C@_1M@FGBKKIPG@?$AAm?$AAr?$AA?9?$AAi?$AAn?$AA?$AA@ 000000018004cc98     libucrt:lcidtoname_downlevel.obj
 0002:00009ca8       ??_C@_1M@NDBPDDAL@?$AAm?$AAs?$AA?9?$AAb?$AAn?$AA?$AA@ 000000018004cca8     libucrt:lcidtoname_downlevel.obj
 0002:00009cb8       ??_C@_1M@OPIHOOPI@?$AAm?$AAs?$AA?9?$AAm?$AAy?$AA?$AA@ 000000018004ccb8     libucrt:lcidtoname_downlevel.obj
 0002:00009cc8       ??_C@_1M@PPDBCNFM@?$AAm?$AAt?$AA?9?$AAm?$AAt?$AA?$AA@ 000000018004ccc8     libucrt:lcidtoname_downlevel.obj
 0002:00009cd8       ??_C@_1M@KDJDKMDD@?$AAn?$AAb?$AA?9?$AAn?$AAo?$AA?$AA@ 000000018004ccd8     libucrt:lcidtoname_downlevel.obj
 0002:00009ce8       ??_C@_1M@KFCFLMJP@?$AAn?$AAl?$AA?9?$AAb?$AAe?$AA?$AA@ 000000018004cce8     libucrt:lcidtoname_downlevel.obj
 0002:00009cf8       ??_C@_1M@KPOPDDGO@?$AAn?$AAl?$AA?9?$AAn?$AAl?$AA?$AA@ 000000018004ccf8     libucrt:lcidtoname_downlevel.obj
 0002:00009d08       ??_C@_1M@LJKPEMLN@?$AAn?$AAn?$AA?9?$AAn?$AAo?$AA?$AA@ 000000018004cd08     libucrt:lcidtoname_downlevel.obj
 0002:00009d18       ??_C@_1M@BDGHHBFL@?$AAn?$AAs?$AA?9?$AAz?$AAa?$AA?$AA@ 000000018004cd18     libucrt:lcidtoname_downlevel.obj
 0002:00009d28       ??_C@_1M@IDEHOAP@?$AAp?$AAa?$AA?9?$AAi?$AAn?$AA?$AA@ 000000018004cd28     libucrt:lcidtoname_downlevel.obj
 0002:00009d38       ??_C@_1M@HDBKGOGH@?$AAp?$AAl?$AA?9?$AAp?$AAl?$AA?$AA@ 000000018004cd38     libucrt:lcidtoname_downlevel.obj
 0002:00009d48       ??_C@_1M@LJLLCMEH@?$AAp?$AAt?$AA?9?$AAb?$AAr?$AA?$AA@ 000000018004cd48     libucrt:lcidtoname_downlevel.obj
 0002:00009d58       ??_C@_1M@NCMONAAL@?$AAp?$AAt?$AA?9?$AAp?$AAt?$AA?$AA@ 000000018004cd58     libucrt:lcidtoname_downlevel.obj
 0002:00009d68       ??_C@_1O@EAKMAJDN@?$AAq?$AAu?$AAz?$AA?9?$AAb?$AAo?$AA?$AA@ 000000018004cd68     libucrt:lcidtoname_downlevel.obj
 0002:00009d78       ??_C@_1O@BHHPIGDN@?$AAq?$AAu?$AAz?$AA?9?$AAe?$AAc?$AA?$AA@ 000000018004cd78     libucrt:lcidtoname_downlevel.obj
 0002:00009d88       ??_C@_1O@GBAPEKMJ@?$AAq?$AAu?$AAz?$AA?9?$AAp?$AAe?$AA?$AA@ 000000018004cd88     libucrt:lcidtoname_downlevel.obj
 0002:00009d98       ??_C@_1M@CLGLEFBO@?$AAr?$AAo?$AA?9?$AAr?$AAo?$AA?$AA@ 000000018004cd98     libucrt:lcidtoname_downlevel.obj
 0002:00009da8       ??_C@_1M@CEEDODME@?$AAr?$AAu?$AA?9?$AAr?$AAu?$AA?$AA@ 000000018004cda8     libucrt:lcidtoname_downlevel.obj
 0002:00009db8       ??_C@_1M@HPKKKMPP@?$AAs?$AAa?$AA?9?$AAi?$AAn?$AA?$AA@ 000000018004cdb8     libucrt:lcidtoname_downlevel.obj
 0002:00009dc8       ??_C@_1M@BKMAIGOJ@?$AAs?$AAe?$AA?9?$AAf?$AAi?$AA?$AA@ 000000018004cdc8     libucrt:lcidtoname_downlevel.obj
 0002:00009dd8       ??_C@_1M@NDPIFLFI@?$AAs?$AAe?$AA?9?$AAn?$AAo?$AA?$AA@ 000000018004cdd8     libucrt:lcidtoname_downlevel.obj
 0002:00009de8       ??_C@_1M@DANKKHJ@?$AAs?$AAe?$AA?9?$AAs?$AAe?$AA?$AA@ 000000018004cde8     libucrt:lcidtoname_downlevel.obj
 0002:00009df8       ??_C@_1M@PNBLONPJ@?$AAs?$AAk?$AA?9?$AAs?$AAk?$AA?$AA@ 000000018004cdf8     libucrt:lcidtoname_downlevel.obj
 0002:00009e08       ??_C@_1M@LFMODOAL@?$AAs?$AAl?$AA?9?$AAs?$AAi?$AA?$AA@ 000000018004ce08     libucrt:lcidtoname_downlevel.obj
 0002:00009e18       ??_C@_1O@DFKOMPG@?$AAs?$AAm?$AAa?$AA?9?$AAn?$AAo?$AA?$AA@ 000000018004ce18     libucrt:lcidtoname_downlevel.obj
 0002:00009e28       ??_C@_1O@NDKPBNNH@?$AAs?$AAm?$AAa?$AA?9?$AAs?$AAe?$AA?$AA@ 000000018004ce28     libucrt:lcidtoname_downlevel.obj
 0002:00009e38       ??_C@_1O@PLLKBHAB@?$AAs?$AAm?$AAj?$AA?9?$AAn?$AAo?$AA?$AA@ 000000018004ce38     libucrt:lcidtoname_downlevel.obj
 0002:00009e48       ??_C@_1O@CLEPOGCA@?$AAs?$AAm?$AAj?$AA?9?$AAs?$AAe?$AA?$AA@ 000000018004ce48     libucrt:lcidtoname_downlevel.obj
 0002:00009e58       ??_C@_1O@DLGJGKMK@?$AAs?$AAm?$AAn?$AA?9?$AAf?$AAi?$AA?$AA@ 000000018004ce58     libucrt:lcidtoname_downlevel.obj
 0002:00009e68       ??_C@_1O@OJDJGAJC@?$AAs?$AAm?$AAs?$AA?9?$AAf?$AAi?$AA?$AA@ 000000018004ce68     libucrt:lcidtoname_downlevel.obj
 0002:00009e78       ??_C@_1M@BOFOGHPB@?$AAs?$AAq?$AA?9?$AAa?$AAl?$AA?$AA@ 000000018004ce78     libucrt:lcidtoname_downlevel.obj
 0002:00009e88       ??_C@_1BG@LJBBIPGB@?$AAs?$AAr?$AA?9?$AAb?$AAa?$AA?9?$AAc?$AAy?$AAr?$AAl?$AA?$AA@ 000000018004ce88     libucrt:lcidtoname_downlevel.obj
 0002:00009ea0       ??_C@_1BG@JLBENFOE@?$AAs?$AAr?$AA?9?$AAb?$AAa?$AA?9?$AAl?$AAa?$AAt?$AAn?$AA?$AA@ 000000018004cea0     libucrt:lcidtoname_downlevel.obj
 0002:00009eb8       ??_C@_1BG@KODPNHE@?$AAs?$AAr?$AA?9?$AAs?$AAp?$AA?9?$AAc?$AAy?$AAr?$AAl?$AA?$AA@ 000000018004ceb8     libucrt:lcidtoname_downlevel.obj
 0002:00009ed0       ??_C@_1BG@CIOGKHPB@?$AAs?$AAr?$AA?9?$AAs?$AAp?$AA?9?$AAl?$AAa?$AAt?$AAn?$AA?$AA@ 000000018004ced0     libucrt:lcidtoname_downlevel.obj
 0002:00009ee8       ??_C@_1M@NGFJLMAC@?$AAs?$AAv?$AA?9?$AAf?$AAi?$AA?$AA@ 000000018004cee8     libucrt:lcidtoname_downlevel.obj
 0002:00009ef8       ??_C@_1M@MPJEJAJC@?$AAs?$AAv?$AA?9?$AAs?$AAe?$AA?$AA@ 000000018004cef8     libucrt:lcidtoname_downlevel.obj
 0002:00009f08       ??_C@_1M@MPNDHLFK@?$AAs?$AAw?$AA?9?$AAk?$AAe?$AA?$AA@ 000000018004cf08     libucrt:lcidtoname_downlevel.obj
 0002:00009f18       ??_C@_1O@KOHBJJI@?$AAs?$AAy?$AAr?$AA?9?$AAs?$AAy?$AA?$AA@ 000000018004cf18     libucrt:lcidtoname_downlevel.obj
 0002:00009f28       ??_C@_1M@LDCEFHA@?$AAt?$AAa?$AA?9?$AAi?$AAn?$AA?$AA@ 000000018004cf28     libucrt:lcidtoname_downlevel.obj
 0002:00009f38       ??_C@_1M@CNJOFAK@?$AAt?$AAe?$AA?9?$AAi?$AAn?$AA?$AA@ 000000018004cf38     libucrt:lcidtoname_downlevel.obj
 0002:00009f48       ??_C@_1M@GNAECACD@?$AAt?$AAh?$AA?9?$AAt?$AAh?$AA?$AA@ 000000018004cf48     libucrt:lcidtoname_downlevel.obj
 0002:00009f58       ??_C@_1M@CHBIHOJO@?$AAt?$AAn?$AA?9?$AAz?$AAa?$AA?$AA@ 000000018004cf58     libucrt:lcidtoname_downlevel.obj
 0002:00009f68       ??_C@_1M@GCCMIGPJ@?$AAt?$AAr?$AA?9?$AAt?$AAr?$AA?$AA@ 000000018004cf68     libucrt:lcidtoname_downlevel.obj
 0002:00009f78       ??_C@_1M@CELMCNBK@?$AAt?$AAt?$AA?9?$AAr?$AAu?$AA?$AA@ 000000018004cf78     libucrt:lcidtoname_downlevel.obj
 0002:00009f88       ??_C@_1M@KLMCELGA@?$AAu?$AAk?$AA?9?$AAu?$AAa?$AA?$AA@ 000000018004cf88     libucrt:lcidtoname_downlevel.obj
 0002:00009f98       ??_C@_1M@EPAJJAJF@?$AAu?$AAr?$AA?9?$AAp?$AAk?$AA?$AA@ 000000018004cf98     libucrt:lcidtoname_downlevel.obj
 0002:00009fa8       ??_C@_1BG@GEGPMCDJ@?$AAu?$AAz?$AA?9?$AAu?$AAz?$AA?9?$AAc?$AAy?$AAr?$AAl?$AA?$AA@ 000000018004cfa8     libucrt:lcidtoname_downlevel.obj
 0002:00009fc0       ??_C@_1BG@EGGKJILM@?$AAu?$AAz?$AA?9?$AAu?$AAz?$AA?9?$AAl?$AAa?$AAt?$AAn?$AA?$AA@ 000000018004cfc0     libucrt:lcidtoname_downlevel.obj
 0002:00009fd8       ??_C@_1M@GFOCLFF@?$AAv?$AAi?$AA?9?$AAv?$AAn?$AA?$AA@ 000000018004cfd8     libucrt:lcidtoname_downlevel.obj
 0002:00009fe8       ??_C@_1M@CPAMEDFI@?$AAx?$AAh?$AA?9?$AAz?$AAa?$AA?$AA@ 000000018004cfe8     libucrt:lcidtoname_downlevel.obj
 0002:00009ff8       ??_C@_1O@EBKIFIGN@?$AAz?$AAh?$AA?9?$AAc?$AAh?$AAs?$AA?$AA@ 000000018004cff8     libucrt:lcidtoname_downlevel.obj
 0002:0000a008       ??_C@_1O@NMHPGANE@?$AAz?$AAh?$AA?9?$AAc?$AAh?$AAt?$AA?$AA@ 000000018004d008     libucrt:lcidtoname_downlevel.obj
 0002:0000a018       ??_C@_1M@LPINJOMC@?$AAz?$AAh?$AA?9?$AAc?$AAn?$AA?$AA@ 000000018004d018     libucrt:lcidtoname_downlevel.obj
 0002:0000a028       ??_C@_1M@OCJEJODD@?$AAz?$AAh?$AA?9?$AAh?$AAk?$AA?$AA@ 000000018004d028     libucrt:lcidtoname_downlevel.obj
 0002:0000a038       ??_C@_1M@DNDLJINH@?$AAz?$AAh?$AA?9?$AAm?$AAo?$AA?$AA@ 000000018004d038     libucrt:lcidtoname_downlevel.obj
 0002:0000a048       ??_C@_1M@MBFDNDND@?$AAz?$AAh?$AA?9?$AAs?$AAg?$AA?$AA@ 000000018004d048     libucrt:lcidtoname_downlevel.obj
 0002:0000a058       ??_C@_1M@IMEPLEPE@?$AAz?$AAh?$AA?9?$AAt?$AAw?$AA?$AA@ 000000018004d058     libucrt:lcidtoname_downlevel.obj
 0002:0000a068       ??_C@_1M@BBGHNHJP@?$AAz?$AAu?$AA?9?$AAz?$AAa?$AA?$AA@ 000000018004d068     libucrt:lcidtoname_downlevel.obj
 0002:0000a074       ??_C@_05HGHHAHAP@log10?$AA@ 000000018004d074     libucrt:fpexcept.obj
 0002:0000a2d0       ??_C@_1BA@BALFACEM@?$AAC?$AAO?$AAN?$AAO?$AAU?$AAT?$AA$?$AA?$AA@ 000000018004d2d0     libucrt:initcon.obj
 0002:0000a2f0       __log10_256_lead           000000018004d2f0     libucrt:log10_256_lead_tail_table.obj
 0002:0000ab00       __log10_256_tail           000000018004db00     libucrt:log10_256_lead_tail_table.obj
 0002:0000b310       __log_F_inv_qword          000000018004e310     libucrt:log_f_inv_qword_table.obj
 0002:0000bb20       ??_C@_1BK@DBDEIDLH@?$AAK?$AAE?$AAR?$AAN?$AAE?$AAL?$AA3?$AA2?$AA?4?$AAD?$AAL?$AAL?$AA?$AA@ 000000018004eb20     DelayImp:delayhlp.obj
 0002:0000bc88       ??_7_Ref_count_base@std@@6B@ 000000018004ec88     libcpmt:excptptr.obj
 0002:0000bcb0       ??_7?$_Ref_count@V__ExceptionPtr@@@std@@6B@ 000000018004ecb0     libcpmt:excptptr.obj
 0002:0000bcd8       ??_7?$_Ref_count_del_alloc@V__ExceptionPtr@@P6AXPEAV1@@ZU?$_DebugMallocator@H@@@std@@6B@ 000000018004ecd8     libcpmt:excptptr.obj
 0002:0000bd28       ??_7stl_condition_variable_vista@details@Concurrency@@6B@ 000000018004ed28     libcpmt:cond.obj
 0002:0000bd58       ??_7stl_condition_variable_win7@details@Concurrency@@6B@ 000000018004ed58     libcpmt:cond.obj
 0002:0000bd88       ??_7stl_condition_variable_concrt@details@Concurrency@@6B@ 000000018004ed88     libcpmt:cond.obj
 0002:0000bdb0       _load_config_used          000000018004edb0     LIBCMT:loadcfg.obj
 0002:0000be48       ??_C@_0BA@JFNIOLAK@string?5too?5long?$AA@ 000000018004ee48     Extensions.obj
 0002:0000be58       ??_C@_0BI@CFPLBAOH@invalid?5string?5position?$AA@ 000000018004ee58     Extensions.obj
 0002:0000be70       ??_C@_0BD@HHMCKPNL@permessage?9deflate?$AA@ 000000018004ee70     Extensions.obj
 0002:0000be88       ??_C@_0BN@PKNKMMCB@?$DL?5client_no_context_takeover?$AA@ 000000018004ee88     Extensions.obj
 0002:0000bea8       ??_C@_0BN@HELDBIFL@?$DL?5server_no_context_takeover?$AA@ 000000018004eea8     Extensions.obj
 0002:0000bec8       ??_C@_0BD@OLBABOEK@vector?$DMT?$DO?5too?5long?$AA@ 000000018004eec8     Group.obj
 0002:0000bee0       ??_C@_0BC@KBDMBKEH@deque?$DMT?$DO?5too?5long?$AA@ 000000018004eee0     Group.obj
 0002:0000bef8       ??_7?$_Func_impl@V<lambda_13e57b1e6f46784fe5e88169e8d03d4a>@@V?$allocator@H@std@@XH@std@@6B@ 000000018004eef8     Group.obj
 0002:0000bf28       ??_7?$_Func_impl@V<lambda_8a3e0fb102bfd2d8e0f223fe18fbe897>@@V?$allocator@H@std@@XU?$WebSocket@$0A@@uWS@@HPEAD_K@std@@6B@ 000000018004ef28     Group.obj
 0002:0000bf58       ??_7?$_Func_impl@V<lambda_3d86c511e010b43e6f8203b61383b85c>@@V?$allocator@H@std@@XU?$WebSocket@$0A@@uWS@@PEAD_KW4OpCode@5@@std@@6B@ 000000018004ef58     Group.obj
 0002:0000bf88       ??_7?$_Func_impl@V<lambda_5736c457d53447cfc1bfb3a81f663ee9>@@V?$allocator@H@std@@XU?$WebSocket@$0A@@uWS@@UUpgradeInfo@5@@std@@6B@ 000000018004ef88     Group.obj
 0002:0000bfb8       ??_7?$_Func_impl@V<lambda_e603fd495cf5a235430e5b5080b4caa2>@@V?$allocator@H@std@@XU?$WebSocket@$0A@@uWS@@PEAD_K@std@@6B@ 000000018004efb8     Group.obj
 0002:0000bfe8       ??_7?$_Func_impl@V<lambda_920f95ed73d1043375081833dac2d3c1>@@V?$allocator@H@std@@XU?$WebSocket@$00@uWS@@PEAD_KW4OpCode@5@@std@@6B@ 000000018004efe8     Group.obj
 0002:0000c018       ??_7?$_Func_base@XU?$WebSocket@$0A@@uWS@@PEAD_KW4OpCode@2@@std@@6B@ 000000018004f018     Group.obj
 0002:0000c018       ??_7?$_Func_base@XU?$WebSocket@$00@uWS@@PEAD_KW4OpCode@2@@std@@6B@ 000000018004f018     Group.obj
 0002:0000c018       ??_7?$_Func_base@XPEAX@std@@6B@ 000000018004f018     Group.obj
 0002:0000c018       ??_7?$_Func_base@XU?$WebSocket@$00@uWS@@UUpgradeInfo@2@@std@@6B@ 000000018004f018     Group.obj
 0002:0000c018       ??_7?$_Func_base@XU?$WebSocket@$0A@@uWS@@UUpgradeInfo@2@@std@@6B@ 000000018004f018     Group.obj
 0002:0000c018       ??_7?$_Func_base@XU?$WebSocket@$0A@@uWS@@HPEAD_K@std@@6B@ 000000018004f018     Group.obj
 0002:0000c018       ??_7?$_Func_base@XU?$WebSocket@$00@uWS@@PEAD_K@std@@6B@ 000000018004f018     Group.obj
 0002:0000c018       ??_7?$_Func_base@XU?$WebSocket@$0A@@uWS@@PEAD_K@std@@6B@ 000000018004f018     Group.obj
 0002:0000c018       ??_7?$_Func_base@XU?$WebSocket@$00@uWS@@HPEAD_K@std@@6B@ 000000018004f018     Group.obj
 0002:0000c018       ??_7?$_Func_base@XH@std@@6B@ 000000018004f018     Group.obj
 0002:0000c048       ??_7?$_Func_impl@V<lambda_caac1bcd1aa04a978a1724d6bfd6f36e>@@V?$allocator@H@std@@XU?$WebSocket@$00@uWS@@HPEAD_K@std@@6B@ 000000018004f048     Group.obj
 0002:0000c078       ??_7?$_Func_impl@V<lambda_6cf58e420d6c310e5678e01e82a10463>@@V?$allocator@H@std@@XPEAX@std@@6B@ 000000018004f078     Group.obj
 0002:0000c0a8       ??_7?$_Func_impl@V<lambda_daa4108c0f85d8cc00ee44b5f15cb0cf>@@V?$allocator@H@std@@XU?$WebSocket@$00@uWS@@PEAD_K@std@@6B@ 000000018004f0a8     Group.obj
 0002:0000c0d8       ??_7?$_Func_impl@V<lambda_f05790a8ac7f1f0c4e43cd67fdc7b60b>@@V?$allocator@H@std@@XU?$WebSocket@$00@uWS@@UUpgradeInfo@5@@std@@6B@ 000000018004f0d8     Group.obj
 0002:0000c108       ??_C@_05IAIEPMAK@1?42?48?$AA@ 000000018004f108     WebSocketImpl.obj
 0002:0000c110       ??_C@_04DOBFCDEM@?4?4?4?4?$AA@ 000000018004f110     WebSocketImpl.obj
 0002:0000c118       ?LARGE_BUFFER_SIZE@Hub@uWS@@2HB 000000018004f118     WebSocketImpl.obj
 0002:0000c120       ??_C@_0BG@HGEDEDEC@invalid?5stoi?5argument?$AA@ 000000018004f120     Hub.obj
 0002:0000c138       ??_C@_0BL@MFFNMGGC@stoi?5argument?5out?5of?5range?$AA@ 000000018004f138     Hub.obj
 0002:0000c154       ??_C@_03GACAABJG@?3?1?1?$AA@ 000000018004f154     Hub.obj
 0002:0000c158       ??_C@_02DLFOHOMG@?3?1?$AA@ 000000018004f158     Hub.obj
 0002:0000c15c       ??_C@_01KMDKNFGN@?1?$AA@   000000018004f15c     Hub.obj
 0002:0000c160       ??_C@_03HKPGEEPK@wss?$AA@  000000018004f160     Hub.obj
 0002:0000c164       ??_C@_02FFBCHCAN@ws?$AA@   000000018004f164     Hub.obj
 0002:0000c170       ??_C@_0EB@NFPJKBDG@ABCDEFGHIJKLMNOPQRSTUVWXYZabcdef@ 000000018004f170     HTTPSocket.obj
 0002:0000c1b8       ??_C@_0DN@FABGFECK@XXXXXXXXXXXXXXXXXXXXXXXX258EAFA5@ 000000018004f1b8     HTTPSocket.obj
 0002:0000c200       ??_C@_0GC@JOKHANIK@HTTP?11?41?5101?5Switching?5Protocols@ 000000018004f200     HTTPSocket.obj
 0002:0000c268       ??_C@_0BL@EPDBCPNN@Sec?9WebSocket?9Extensions?3?5?$AA@ 000000018004f268     HTTPSocket.obj
 0002:0000c288       ??_C@_0BJ@IBJCJIFD@Sec?9WebSocket?9Protocol?3?5?$AA@ 000000018004f288     HTTPSocket.obj
 0002:0000c2a8       ??_C@_0CA@CLLACJIP@?$AN?6Sec?9WebSocket?9Version?3?513?$AN?6?$AN?6?$AA@ 000000018004f2a8     HTTPSocket.obj
 0002:0000c2d0       ??_C@_0GI@FHFKJNCH@?5HTTP?11?41?$AN?6Upgrade?3?5websocket?$AN?6C@ 000000018004f2d0     HTTPSocket.obj
 0002:0000c338       ??_C@_05KCENFFMJ@GET?5?1?$AA@ 000000018004f338     HTTPSocket.obj
 0002:0000c340       ??_C@_04FMMHFHOO@?$AN?6?$AN?6?$AA@ 000000018004f340     HTTPSocket.obj
 0002:0000c348       ??_C@_0BC@IDPNCDHH@sec?9websocket?9key?$AA@ 000000018004f348     HTTPSocket.obj
 0002:0000c360       ??_C@_0BJ@OJNOAKHD@sec?9websocket?9extensions?$AA@ 000000018004f360     HTTPSocket.obj
 0002:0000c380       ??_C@_0BH@CAKDAFHO@sec?9websocket?9protocol?$AA@ 000000018004f380     HTTPSocket.obj
 0002:0000c398       ??_C@_07NACIIPHM@upgrade?$AA@ 000000018004f398     HTTPSocket.obj
 0002:0000c3a0       ??_C@_09JPACNFNK@websocket?$AA@ 000000018004f3a0     HTTPSocket.obj
 0002:0000c3aa       ??_C@_00CNPNBAHC@?$AA@     000000018004f3aa     Socket.obj
 0002:0000c3ac       ??_C@_04EMGFNKGN@IPv4?$AA@ 000000018004f3ac     Socket.obj
 0002:0000c3b4       ??_C@_04HOFDLIOP@IPv6?$AA@ 000000018004f3b4     Socket.obj
 0002:0000c3bc       ??_C@_06HJHJCKIO@server?$AA@ 000000018004f3bc     addon.obj
 0002:0000c3c4       ??_C@_06DGDLPBAN@client?$AA@ 000000018004f3c4     addon.obj
 0002:0000c3d0       ??_C@_0M@INFGNMEL@setUserData?$AA@ 000000018004f3d0     addon.obj
 0002:0000c3e0       ??_C@_0M@ICEIAKMI@getUserData?$AA@ 000000018004f3e0     addon.obj
 0002:0000c3f0       ??_C@_0O@BNCPOBGN@clearUserData?$AA@ 000000018004f3f0     addon.obj
 0002:0000c400       ??_C@_0L@KDPCDPCO@getAddress?$AA@ 000000018004f400     addon.obj
 0002:0000c410       ??_C@_08LGNJOGGB@transfer?$AA@ 000000018004f410     addon.obj
 0002:0000c420       ??_C@_07KAIBNCHO@connect?$AA@ 000000018004f420     addon.obj
 0002:0000c428       ??_C@_07BJANGOOG@setNoop?$AA@ 000000018004f428     addon.obj
 0002:0000c430       ??_C@_0BB@MMCPDBML@?4?4?2src?2addon?4cpp?$AA@ 000000018004f430     addon.obj
 0002:0000c444       ??_C@_03NHPGCEKN@uws?$AA@  000000018004f444     addon.obj
 0002:0000c448       ??_C@_04MIIPNNEF@send?$AA@ 000000018004f448     addon.obj
 0002:0000c450       ??_C@_05LBOHBHFK@close?$AA@ 000000018004f450     addon.obj
 0002:0000c458       ??_C@_09DACGJFPO@terminate?$AA@ 000000018004f458     addon.obj
 0002:0000c468       ??_C@_0P@OJKPOCHM@prepareMessage?$AA@ 000000018004f468     addon.obj
 0002:0000c478       ??_C@_0N@PJIIIDIB@sendPrepared?$AA@ 000000018004f478     addon.obj
 0002:0000c488       ??_C@_0BA@KGPPAAJG@finalizeMessage?$AA@ 000000018004f488     addon.obj
 0002:0000c498       ??_C@_0N@IDIKOLKI@onConnection?$AA@ 000000018004f498     addon.obj
 0002:0000c4a8       ??_C@_09CGGCBBGN@onMessage?$AA@ 000000018004f4a8     addon.obj
 0002:0000c4b8       ??_C@_0BA@JEHIJFKG@onDisconnection?$AA@ 000000018004f4b8     addon.obj
 0002:0000c4c8       ??_C@_07LKMHCDH@onError?$AA@ 000000018004f4c8     addon.obj
 0002:0000c4d0       ??_C@_07EDHBMKOF@forEach?$AA@ 000000018004f4d0     addon.obj
 0002:0000c4d8       ??_C@_07HBLPNKFH@getSize?$AA@ 000000018004f4d8     addon.obj
 0002:0000c4e0       ??_C@_0O@PCAIEFAM@startAutoPing?$AA@ 000000018004f4e0     addon.obj
 0002:0000c4f0       ??_C@_06DLFLBOKP@onPing?$AA@ 000000018004f4f0     addon.obj
 0002:0000c4f8       ??_C@_06BODAEBHD@onPong?$AA@ 000000018004f4f8     addon.obj
 0002:0000c500       ??_C@_06HBNONAG@create?$AA@ 000000018004f500     addon.obj
 0002:0000c508       ??_C@_06FOBLBEIN@delete?$AA@ 000000018004f508     addon.obj
 0002:0000c510       ??_C@_09OALBOHJN@broadcast?$AA@ 000000018004f510     addon.obj
 0002:0000c51c       ??_C@_05MGJOOGAJ@group?$AA@ 000000018004f51c     addon.obj
 0002:0000c528       ??_7?$_Func_impl@V<lambda_1df6e9150329589b41c0fe6f8b1f264e>@@V?$allocator@H@std@@XU?$WebSocket@$0A@@uWS@@HPEAD_K@std@@6B@ 000000018004f528     addon.obj
 0002:0000c558       ??_7?$_Func_impl@V<lambda_5340ffcb4045c7e221e6ed34d69e440b>@@V?$allocator@H@std@@XU?$WebSocket@$00@uWS@@PEAD_K@std@@6B@ 000000018004f558     addon.obj
 0002:0000c588       ??_7?$_Func_impl@V<lambda_d7bdfb5a58f2c1f8ad741cf189cc386b>@@V?$allocator@H@std@@XU?$WebSocket@$00@uWS@@HPEAD_K@std@@6B@ 000000018004f588     addon.obj
 0002:0000c5b8       ??_7?$_Func_impl@V<lambda_30da2cf7fb27dca016834439ea08639b>@@V?$allocator@H@std@@XU?$WebSocket@$0A@@uWS@@PEAD_K@std@@6B@ 000000018004f5b8     addon.obj
 0002:0000c5e8       ??_7?$_Func_impl@V<lambda_a0d45c30ed7d53f13017b910323e74db>@@V?$allocator@H@std@@XU?$WebSocket@$0A@@uWS@@UUpgradeInfo@5@@std@@6B@ 000000018004f5e8     addon.obj
 0002:0000c618       ??_7?$_Func_impl@V<lambda_c9a652ce08ab70a880491b309a6e9b7f>@@V?$allocator@H@std@@XU?$WebSocket@$0A@@uWS@@PEAD_KW4OpCode@5@@std@@6B@ 000000018004f618     addon.obj
 0002:0000c648       ??_7?$_Func_impl@V<lambda_185a28332b424bb2e46d1162c88273d4>@@V?$allocator@H@std@@XU?$WebSocket@$0A@@uWS@@PEAD_K@std@@6B@ 000000018004f648     addon.obj
 0002:0000c678       ??_7?$_Func_impl@V<lambda_2084e076f6151854c0db1be6acabce48>@@V?$allocator@H@std@@XPEAX@std@@6B@ 000000018004f678     addon.obj
 0002:0000c6a8       ??_7?$_Func_impl@V<lambda_253b4a1404c612c2f71c88eb2317caa4>@@V?$allocator@H@std@@XU?$WebSocket@$00@uWS@@PEAD_KW4OpCode@5@@std@@6B@ 000000018004f6a8     addon.obj
 0002:0000c6d8       ??_7?$_Func_impl@V<lambda_a6cfd1bcc674317fad83658b5d0786e9>@@V?$allocator@H@std@@XU?$WebSocket@$00@uWS@@PEAD_K@std@@6B@ 000000018004f6d8     addon.obj
 0002:0000c708       ??_7?$_Func_impl@V<lambda_9f4f12a84d8f5559c2caf0fccde4cecf>@@V?$allocator@H@std@@XU?$WebSocket@$00@uWS@@UUpgradeInfo@5@@std@@6B@ 000000018004f708     addon.obj
 0002:0000c738       ??_C@_08HCOMDCCD@iojs?4exe?$AA@ 000000018004f738     win_delay_load_hook.obj
 0002:0000c748       ??_C@_08JDDNMFDB@node?4exe?$AA@ 000000018004f748     win_delay_load_hook.obj
 0002:0000c7b8       _tls_used                  000000018004f7b8     LIBCMT:tlssup.obj
 0002:0000c7e0       ??_R4exception@std@@6B@    000000018004f7e0     libcpmt:xthrow.obj
 0002:0000c808       ??_R3exception@std@@8      000000018004f808     libcpmt:xthrow.obj
 0002:0000c820       ??_R2exception@std@@8      000000018004f820     libcpmt:xthrow.obj
 0002:0000c830       ??_R1A@?0A@EA@exception@std@@8 000000018004f830     libcpmt:xthrow.obj
 0002:0000c858       ??_R4bad_alloc@std@@6B@    000000018004f858     libcpmt:xthrow.obj
 0002:0000c880       ??_R3bad_alloc@std@@8      000000018004f880     libcpmt:xthrow.obj
 0002:0000c898       ??_R2bad_alloc@std@@8      000000018004f898     libcpmt:xthrow.obj
 0002:0000c8b0       ??_R1A@?0A@EA@bad_alloc@std@@8 000000018004f8b0     libcpmt:xthrow.obj
 0002:0000c8d8       ??_R4logic_error@std@@6B@  000000018004f8d8     libcpmt:xthrow.obj
 0002:0000c900       ??_R3logic_error@std@@8    000000018004f900     libcpmt:xthrow.obj
 0002:0000c918       ??_R2logic_error@std@@8    000000018004f918     libcpmt:xthrow.obj
 0002:0000c930       ??_R1A@?0A@EA@logic_error@std@@8 000000018004f930     libcpmt:xthrow.obj
 0002:0000c958       ??_R4invalid_argument@std@@6B@ 000000018004f958     libcpmt:xthrow.obj
 0002:0000c980       ??_R3invalid_argument@std@@8 000000018004f980     libcpmt:xthrow.obj
 0002:0000c998       ??_R2invalid_argument@std@@8 000000018004f998     libcpmt:xthrow.obj
 0002:0000c9b8       ??_R1A@?0A@EA@invalid_argument@std@@8 000000018004f9b8     libcpmt:xthrow.obj
 0002:0000c9e0       ??_R4length_error@std@@6B@ 000000018004f9e0     libcpmt:xthrow.obj
 0002:0000ca08       ??_R3length_error@std@@8   000000018004fa08     libcpmt:xthrow.obj
 0002:0000ca20       ??_R2length_error@std@@8   000000018004fa20     libcpmt:xthrow.obj
 0002:0000ca40       ??_R1A@?0A@EA@length_error@std@@8 000000018004fa40     libcpmt:xthrow.obj
 0002:0000ca68       ??_R4out_of_range@std@@6B@ 000000018004fa68     libcpmt:xthrow.obj
 0002:0000ca90       ??_R3out_of_range@std@@8   000000018004fa90     libcpmt:xthrow.obj
 0002:0000caa8       ??_R2out_of_range@std@@8   000000018004faa8     libcpmt:xthrow.obj
 0002:0000cac8       ??_R1A@?0A@EA@out_of_range@std@@8 000000018004fac8     libcpmt:xthrow.obj
 0002:0000caf0       ??_R4runtime_error@std@@6B@ 000000018004faf0     libcpmt:xthrow.obj
 0002:0000cb18       ??_R3runtime_error@std@@8  000000018004fb18     libcpmt:xthrow.obj
 0002:0000cb30       ??_R2runtime_error@std@@8  000000018004fb30     libcpmt:xthrow.obj
 0002:0000cb48       ??_R1A@?0A@EA@runtime_error@std@@8 000000018004fb48     libcpmt:xthrow.obj
 0002:0000cb70       ??_R4bad_function_call@std@@6B@ 000000018004fb70     libcpmt:xthrow.obj
 0002:0000cb98       ??_R3bad_function_call@std@@8 000000018004fb98     libcpmt:xthrow.obj
 0002:0000cbb0       ??_R2bad_function_call@std@@8 000000018004fbb0     libcpmt:xthrow.obj
 0002:0000cbc8       ??_R1A@?0A@EA@bad_function_call@std@@8 000000018004fbc8     libcpmt:xthrow.obj
 0002:0000cbf0       ??_R4error_category@std@@6B@ 000000018004fbf0     libcpmt:thread0.obj
 0002:0000cc18       ??_R3error_category@std@@8 000000018004fc18     libcpmt:thread0.obj
 0002:0000cc30       ??_R2error_category@std@@8 000000018004fc30     libcpmt:thread0.obj
 0002:0000cc40       ??_R1A@?0A@EA@error_category@std@@8 000000018004fc40     libcpmt:thread0.obj
 0002:0000cc68       ??_R4_System_error@std@@6B@ 000000018004fc68     libcpmt:thread0.obj
 0002:0000cc90       ??_R3_System_error@std@@8  000000018004fc90     libcpmt:thread0.obj
 0002:0000cca8       ??_R2_System_error@std@@8  000000018004fca8     libcpmt:thread0.obj
 0002:0000ccc8       ??_R1A@?0A@EA@_System_error@std@@8 000000018004fcc8     libcpmt:thread0.obj
 0002:0000ccf0       ??_R4system_error@std@@6B@ 000000018004fcf0     libcpmt:thread0.obj
 0002:0000cd18       ??_R3system_error@std@@8   000000018004fd18     libcpmt:thread0.obj
 0002:0000cd30       ??_R2system_error@std@@8   000000018004fd30     libcpmt:thread0.obj
 0002:0000cd58       ??_R1A@?0A@EA@system_error@std@@8 000000018004fd58     libcpmt:thread0.obj
 0002:0000cd80       ??_R4_Generic_error_category@std@@6B@ 000000018004fd80     libcpmt:thread0.obj
 0002:0000cda8       ??_R3_Generic_error_category@std@@8 000000018004fda8     libcpmt:thread0.obj
 0002:0000cdc0       ??_R2_Generic_error_category@std@@8 000000018004fdc0     libcpmt:thread0.obj
 0002:0000cdd8       ??_R1A@?0A@EA@_Generic_error_category@std@@8 000000018004fdd8     libcpmt:thread0.obj
 0002:0000ce00       ??_R3stl_critical_section_interface@details@Concurrency@@8 000000018004fe00     libcpmt:mutex.obj
 0002:0000ce18       ??_R2stl_critical_section_interface@details@Concurrency@@8 000000018004fe18     libcpmt:mutex.obj
 0002:0000ce28       ??_R1A@?0A@EA@stl_critical_section_interface@details@Concurrency@@8 000000018004fe28     libcpmt:mutex.obj
 0002:0000ce50       ??_R4stl_critical_section_vista@details@Concurrency@@6B@ 000000018004fe50     libcpmt:mutex.obj
 0002:0000ce78       ??_R3stl_critical_section_vista@details@Concurrency@@8 000000018004fe78     libcpmt:mutex.obj
 0002:0000ce90       ??_R2stl_critical_section_vista@details@Concurrency@@8 000000018004fe90     libcpmt:mutex.obj
 0002:0000cea8       ??_R1A@?0A@EA@stl_critical_section_vista@details@Concurrency@@8 000000018004fea8     libcpmt:mutex.obj
 0002:0000ced0       ??_R4stl_critical_section_win7@details@Concurrency@@6B@ 000000018004fed0     libcpmt:mutex.obj
 0002:0000cef8       ??_R3stl_critical_section_win7@details@Concurrency@@8 000000018004fef8     libcpmt:mutex.obj
 0002:0000cf10       ??_R2stl_critical_section_win7@details@Concurrency@@8 000000018004ff10     libcpmt:mutex.obj
 0002:0000cf28       ??_R1A@?0A@EA@stl_critical_section_win7@details@Concurrency@@8 000000018004ff28     libcpmt:mutex.obj
 0002:0000cf50       ??_R4stl_critical_section_concrt@details@Concurrency@@6B@ 000000018004ff50     libcpmt:mutex.obj
 0002:0000cf78       ??_R3stl_critical_section_concrt@details@Concurrency@@8 000000018004ff78     libcpmt:mutex.obj
 0002:0000cf90       ??_R2stl_critical_section_concrt@details@Concurrency@@8 000000018004ff90     libcpmt:mutex.obj
 0002:0000cfa8       ??_R1A@?0A@EA@stl_critical_section_concrt@details@Concurrency@@8 000000018004ffa8     libcpmt:mutex.obj
 0002:0000cfd0       ??_R4type_info@@6B@        000000018004ffd0     LIBCMT:std_type_info_static.obj
 0002:0000cff8       ??_R3type_info@@8          000000018004fff8     LIBCMT:std_type_info_static.obj
 0002:0000d010       ??_R2type_info@@8          0000000180050010     LIBCMT:std_type_info_static.obj
 0002:0000d020       ??_R1A@?0A@EA@type_info@@8 0000000180050020     LIBCMT:std_type_info_static.obj
 0002:0000d048       ??_R4bad_array_new_length@std@@6B@ 0000000180050048     LIBCMT:throw_bad_alloc.obj
 0002:0000d070       ??_R3bad_array_new_length@std@@8 0000000180050070     LIBCMT:throw_bad_alloc.obj
 0002:0000d088       ??_R2bad_array_new_length@std@@8 0000000180050088     LIBCMT:throw_bad_alloc.obj
 0002:0000d0a8       ??_R1A@?0A@EA@bad_array_new_length@std@@8 00000001800500a8     LIBCMT:throw_bad_alloc.obj
 0002:0000d0d0       ??_R4improper_lock@Concurrency@@6B@ 00000001800500d0     libconcrt:rtlocks.obj
 0002:0000d0f8       ??_R3improper_lock@Concurrency@@8 00000001800500f8     libconcrt:rtlocks.obj
 0002:0000d110       ??_R2improper_lock@Concurrency@@8 0000000180050110     libconcrt:rtlocks.obj
 0002:0000d128       ??_R1A@?0A@EA@improper_lock@Concurrency@@8 0000000180050128     libconcrt:rtlocks.obj
 0002:0000d150       ??_R4scheduler_resource_allocation_error@Concurrency@@6B@ 0000000180050150     libconcrt:Platform.obj
 0002:0000d178       ??_R3scheduler_resource_allocation_error@Concurrency@@8 0000000180050178     libconcrt:Platform.obj
 0002:0000d190       ??_R2scheduler_resource_allocation_error@Concurrency@@8 0000000180050190     libconcrt:Platform.obj
 0002:0000d1a8       ??_R1A@?0A@EA@scheduler_resource_allocation_error@Concurrency@@8 00000001800501a8     libconcrt:Platform.obj
 0002:0000d1d0       ??_R4scheduler_worker_creation_error@Concurrency@@6B@ 00000001800501d0     libconcrt:Exceptions.obj
 0002:0000d1f8       ??_R3scheduler_worker_creation_error@Concurrency@@8 00000001800501f8     libconcrt:Exceptions.obj
 0002:0000d210       ??_R2scheduler_worker_creation_error@Concurrency@@8 0000000180050210     libconcrt:Exceptions.obj
 0002:0000d230       ??_R1A@?0A@EA@scheduler_worker_creation_error@Concurrency@@8 0000000180050230     libconcrt:Exceptions.obj
 0002:0000d258       ??_R4unsupported_os@Concurrency@@6B@ 0000000180050258     libconcrt:Exceptions.obj
 0002:0000d280       ??_R3unsupported_os@Concurrency@@8 0000000180050280     libconcrt:Exceptions.obj
 0002:0000d298       ??_R2unsupported_os@Concurrency@@8 0000000180050298     libconcrt:Exceptions.obj
 0002:0000d2b0       ??_R1A@?0A@EA@unsupported_os@Concurrency@@8 00000001800502b0     libconcrt:Exceptions.obj
 0002:0000d2d8       ??_R4improper_scheduler_attach@Concurrency@@6B@ 00000001800502d8     libconcrt:Exceptions.obj
 0002:0000d300       ??_R3improper_scheduler_attach@Concurrency@@8 0000000180050300     libconcrt:Exceptions.obj
 0002:0000d318       ??_R2improper_scheduler_attach@Concurrency@@8 0000000180050318     libconcrt:Exceptions.obj
 0002:0000d330       ??_R1A@?0A@EA@improper_scheduler_attach@Concurrency@@8 0000000180050330     libconcrt:Exceptions.obj
 0002:0000d358       ??_R4improper_scheduler_reference@Concurrency@@6B@ 0000000180050358     libconcrt:Exceptions.obj
 0002:0000d380       ??_R3improper_scheduler_reference@Concurrency@@8 0000000180050380     libconcrt:Exceptions.obj
 0002:0000d398       ??_R2improper_scheduler_reference@Concurrency@@8 0000000180050398     libconcrt:Exceptions.obj
 0002:0000d3b0       ??_R1A@?0A@EA@improper_scheduler_reference@Concurrency@@8 00000001800503b0     libconcrt:Exceptions.obj
 0002:0000d3d8       ??_R4context_unblock_unbalanced@Concurrency@@6B@ 00000001800503d8     libconcrt:Exceptions.obj
 0002:0000d400       ??_R3context_unblock_unbalanced@Concurrency@@8 0000000180050400     libconcrt:Exceptions.obj
 0002:0000d418       ??_R2context_unblock_unbalanced@Concurrency@@8 0000000180050418     libconcrt:Exceptions.obj
 0002:0000d430       ??_R1A@?0A@EA@context_unblock_unbalanced@Concurrency@@8 0000000180050430     libconcrt:Exceptions.obj
 0002:0000d458       ??_R4context_self_unblock@Concurrency@@6B@ 0000000180050458     libconcrt:Exceptions.obj
 0002:0000d480       ??_R3context_self_unblock@Concurrency@@8 0000000180050480     libconcrt:Exceptions.obj
 0002:0000d498       ??_R2context_self_unblock@Concurrency@@8 0000000180050498     libconcrt:Exceptions.obj
 0002:0000d4b0       ??_R1A@?0A@EA@context_self_unblock@Concurrency@@8 00000001800504b0     libconcrt:Exceptions.obj
 0002:0000d4d8       ??_R4missing_wait@Concurrency@@6B@ 00000001800504d8     libconcrt:Exceptions.obj
 0002:0000d500       ??_R3missing_wait@Concurrency@@8 0000000180050500     libconcrt:Exceptions.obj
 0002:0000d518       ??_R2missing_wait@Concurrency@@8 0000000180050518     libconcrt:Exceptions.obj
 0002:0000d530       ??_R1A@?0A@EA@missing_wait@Concurrency@@8 0000000180050530     libconcrt:Exceptions.obj
 0002:0000d558       ??_R4invalid_scheduler_policy_key@Concurrency@@6B@ 0000000180050558     libconcrt:Exceptions.obj
 0002:0000d580       ??_R3invalid_scheduler_policy_key@Concurrency@@8 0000000180050580     libconcrt:Exceptions.obj
 0002:0000d598       ??_R2invalid_scheduler_policy_key@Concurrency@@8 0000000180050598     libconcrt:Exceptions.obj
 0002:0000d5b0       ??_R1A@?0A@EA@invalid_scheduler_policy_key@Concurrency@@8 00000001800505b0     libconcrt:Exceptions.obj
 0002:0000d5d8       ??_R4invalid_scheduler_policy_value@Concurrency@@6B@ 00000001800505d8     libconcrt:Exceptions.obj
 0002:0000d600       ??_R3invalid_scheduler_policy_value@Concurrency@@8 0000000180050600     libconcrt:Exceptions.obj
 0002:0000d618       ??_R2invalid_scheduler_policy_value@Concurrency@@8 0000000180050618     libconcrt:Exceptions.obj
 0002:0000d630       ??_R1A@?0A@EA@invalid_scheduler_policy_value@Concurrency@@8 0000000180050630     libconcrt:Exceptions.obj
 0002:0000d658       ??_R4invalid_scheduler_policy_thread_specification@Concurrency@@6B@ 0000000180050658     libconcrt:Exceptions.obj
 0002:0000d680       ??_R3invalid_scheduler_policy_thread_specification@Concurrency@@8 0000000180050680     libconcrt:Exceptions.obj
 0002:0000d698       ??_R2invalid_scheduler_policy_thread_specification@Concurrency@@8 0000000180050698     libconcrt:Exceptions.obj
 0002:0000d6b0       ??_R1A@?0A@EA@invalid_scheduler_policy_thread_specification@Concurrency@@8 00000001800506b0     libconcrt:Exceptions.obj
 0002:0000d6d8       ??_R4nested_scheduler_missing_detach@Concurrency@@6B@ 00000001800506d8     libconcrt:Exceptions.obj
 0002:0000d700       ??_R3nested_scheduler_missing_detach@Concurrency@@8 0000000180050700     libconcrt:Exceptions.obj
 0002:0000d718       ??_R2nested_scheduler_missing_detach@Concurrency@@8 0000000180050718     libconcrt:Exceptions.obj
 0002:0000d730       ??_R1A@?0A@EA@nested_scheduler_missing_detach@Concurrency@@8 0000000180050730     libconcrt:Exceptions.obj
 0002:0000d758       ??_R4invalid_oversubscribe_operation@Concurrency@@6B@ 0000000180050758     libconcrt:Exceptions.obj
 0002:0000d780       ??_R3invalid_oversubscribe_operation@Concurrency@@8 0000000180050780     libconcrt:Exceptions.obj
 0002:0000d798       ??_R2invalid_oversubscribe_operation@Concurrency@@8 0000000180050798     libconcrt:Exceptions.obj
 0002:0000d7b0       ??_R1A@?0A@EA@invalid_oversubscribe_operation@Concurrency@@8 00000001800507b0     libconcrt:Exceptions.obj
 0002:0000d7d8       ??_R4ResourceManager@details@Concurrency@@6B@ 00000001800507d8     libconcrt:ResourceManager.obj
 0002:0000d800       ??_R3ResourceManager@details@Concurrency@@8 0000000180050800     libconcrt:ResourceManager.obj
 0002:0000d818       ??_R2ResourceManager@details@Concurrency@@8 0000000180050818     libconcrt:ResourceManager.obj
 0002:0000d830       ??_R1A@?0A@EA@ResourceManager@details@Concurrency@@8 0000000180050830     libconcrt:ResourceManager.obj
 0002:0000d858       ??_R1A@?0A@EA@IResourceManager@Concurrency@@8 0000000180050858     libconcrt:ResourceManager.obj
 0002:0000d880       ??_R3IResourceManager@Concurrency@@8 0000000180050880     libconcrt:ResourceManager.obj
 0002:0000d898       ??_R2IResourceManager@Concurrency@@8 0000000180050898     libconcrt:ResourceManager.obj
 0002:0000d8a8       ??_R4invalid_operation@Concurrency@@6B@ 00000001800508a8     libconcrt:ResourceManager.obj
 0002:0000d8d0       ??_R3invalid_operation@Concurrency@@8 00000001800508d0     libconcrt:ResourceManager.obj
 0002:0000d8e8       ??_R2invalid_operation@Concurrency@@8 00000001800508e8     libconcrt:ResourceManager.obj
 0002:0000d900       ??_R1A@?0A@EA@invalid_operation@Concurrency@@8 0000000180050900     libconcrt:ResourceManager.obj
 0002:0000d928       ??_R3ITopologyExecutionResource@Concurrency@@8 0000000180050928     libconcrt:ResourceManager.obj
 0002:0000d940       ??_R2ITopologyExecutionResource@Concurrency@@8 0000000180050940     libconcrt:ResourceManager.obj
 0002:0000d950       ??_R1A@?0A@EA@ITopologyExecutionResource@Concurrency@@8 0000000180050950     libconcrt:ResourceManager.obj
 0002:0000d978       ??_R3ITopologyNode@Concurrency@@8 0000000180050978     libconcrt:ResourceManager.obj
 0002:0000d990       ??_R2ITopologyNode@Concurrency@@8 0000000180050990     libconcrt:ResourceManager.obj
 0002:0000d9a0       ??_R1A@?0A@EA@ITopologyNode@Concurrency@@8 00000001800509a0     libconcrt:ResourceManager.obj
 0002:0000d9c8       ??_R4TopologyObject@GlobalCore@details@Concurrency@@6B@ 00000001800509c8     libconcrt:ResourceManager.obj
 0002:0000d9f0       ??_R3TopologyObject@GlobalCore@details@Concurrency@@8 00000001800509f0     libconcrt:ResourceManager.obj
 0002:0000da08       ??_R2TopologyObject@GlobalCore@details@Concurrency@@8 0000000180050a08     libconcrt:ResourceManager.obj
 0002:0000da20       ??_R1A@?0A@EA@TopologyObject@GlobalCore@details@Concurrency@@8 0000000180050a20     libconcrt:ResourceManager.obj
 0002:0000da48       ??_R4TopologyObject@GlobalNode@details@Concurrency@@6B@ 0000000180050a48     libconcrt:ResourceManager.obj
 0002:0000da70       ??_R3TopologyObject@GlobalNode@details@Concurrency@@8 0000000180050a70     libconcrt:ResourceManager.obj
 0002:0000da88       ??_R2TopologyObject@GlobalNode@details@Concurrency@@8 0000000180050a88     libconcrt:ResourceManager.obj
 0002:0000daa0       ??_R1A@?0A@EA@TopologyObject@GlobalNode@details@Concurrency@@8 0000000180050aa0     libconcrt:ResourceManager.obj
 0002:0000dac8       ??_R3ScheduleGroupBase@details@Concurrency@@8 0000000180050ac8     libconcrt:SchedulerBase.obj
 0002:0000dae0       ??_R2ScheduleGroupBase@details@Concurrency@@8 0000000180050ae0     libconcrt:SchedulerBase.obj
 0002:0000daf8       ??_R1A@?0A@EA@ScheduleGroupBase@details@Concurrency@@8 0000000180050af8     libconcrt:SchedulerBase.obj
 0002:0000db20       ??_R1A@?0A@EA@ScheduleGroup@Concurrency@@8 0000000180050b20     libconcrt:SchedulerBase.obj
 0002:0000db48       ??_R3ScheduleGroup@Concurrency@@8 0000000180050b48     libconcrt:SchedulerBase.obj
 0002:0000db60       ??_R2ScheduleGroup@Concurrency@@8 0000000180050b60     libconcrt:SchedulerBase.obj
 0002:0000db70       ??_R4CacheLocalScheduleGroup@details@Concurrency@@6B@ 0000000180050b70     libconcrt:SchedulerBase.obj
 0002:0000db98       ??_R3CacheLocalScheduleGroup@details@Concurrency@@8 0000000180050b98     libconcrt:SchedulerBase.obj
 0002:0000dbb0       ??_R2CacheLocalScheduleGroup@details@Concurrency@@8 0000000180050bb0     libconcrt:SchedulerBase.obj
 0002:0000dbd0       ??_R1A@?0A@EA@CacheLocalScheduleGroup@details@Concurrency@@8 0000000180050bd0     libconcrt:SchedulerBase.obj
 0002:0000dbf8       ??_R4FairScheduleGroup@details@Concurrency@@6B@ 0000000180050bf8     libconcrt:SchedulerBase.obj
 0002:0000dc20       ??_R3FairScheduleGroup@details@Concurrency@@8 0000000180050c20     libconcrt:SchedulerBase.obj
 0002:0000dc38       ??_R2FairScheduleGroup@details@Concurrency@@8 0000000180050c38     libconcrt:SchedulerBase.obj
 0002:0000dc58       ??_R1A@?0A@EA@FairScheduleGroup@details@Concurrency@@8 0000000180050c58     libconcrt:SchedulerBase.obj
 0002:0000dc80       ??_R4SchedulerBase@details@Concurrency@@6B@ 0000000180050c80     libconcrt:SchedulerBase.obj
 0002:0000dca8       ??_R3SchedulerBase@details@Concurrency@@8 0000000180050ca8     libconcrt:SchedulerBase.obj
 0002:0000dcc0       ??_R2SchedulerBase@details@Concurrency@@8 0000000180050cc0     libconcrt:SchedulerBase.obj
 0002:0000dcd8       ??_R1A@?0A@EA@SchedulerBase@details@Concurrency@@8 0000000180050cd8     libconcrt:SchedulerBase.obj
 0002:0000dd00       ??_R1A@?0A@EA@Scheduler@Concurrency@@8 0000000180050d00     libconcrt:SchedulerBase.obj
 0002:0000dd28       ??_R3Scheduler@Concurrency@@8 0000000180050d28     libconcrt:SchedulerBase.obj
 0002:0000dd40       ??_R2Scheduler@Concurrency@@8 0000000180050d40     libconcrt:SchedulerBase.obj
 0002:0000dd50       ??_R1A@?0A@EA@_Chore@details@Concurrency@@8 0000000180050d50     libconcrt:SchedulerBase.obj
 0002:0000dd78       ??_R3_Chore@details@Concurrency@@8 0000000180050d78     libconcrt:SchedulerBase.obj
 0002:0000dd90       ??_R2_Chore@details@Concurrency@@8 0000000180050d90     libconcrt:SchedulerBase.obj
 0002:0000dda0       ??_R4Scheduler@Concurrency@@6B@ 0000000180050da0     libconcrt:SchedulerBase.obj
 0002:0000ddc8       ??_R4ScheduleGroup@Concurrency@@6B@ 0000000180050dc8     libconcrt:SchedulerBase.obj
 0002:0000ddf0       ??_R4_Chore@details@Concurrency@@6B@ 0000000180050df0     libconcrt:SchedulerBase.obj
 0002:0000de18       ??_R4RealizedChore@details@Concurrency@@6B@ 0000000180050e18     libconcrt:SchedulerBase.obj
 0002:0000de40       ??_R3RealizedChore@details@Concurrency@@8 0000000180050e40     libconcrt:SchedulerBase.obj
 0002:0000de58       ??_R2RealizedChore@details@Concurrency@@8 0000000180050e58     libconcrt:SchedulerBase.obj
 0002:0000de70       ??_R1A@?0A@EA@RealizedChore@details@Concurrency@@8 0000000180050e70     libconcrt:SchedulerBase.obj
 0002:0000de98       ??_R4CacheLocalScheduleGroupSegment@details@Concurrency@@6B@ 0000000180050e98     libconcrt:SchedulerBase.obj
 0002:0000dec0       ??_R3CacheLocalScheduleGroupSegment@details@Concurrency@@8 0000000180050ec0     libconcrt:SchedulerBase.obj
 0002:0000ded8       ??_R2CacheLocalScheduleGroupSegment@details@Concurrency@@8 0000000180050ed8     libconcrt:SchedulerBase.obj
 0002:0000def0       ??_R1A@?0A@EA@CacheLocalScheduleGroupSegment@details@Concurrency@@8 0000000180050ef0     libconcrt:SchedulerBase.obj
 0002:0000df18       ??_R1A@?0A@EA@ScheduleGroupSegmentBase@details@Concurrency@@8 0000000180050f18     libconcrt:SchedulerBase.obj
 0002:0000df40       ??_R3ScheduleGroupSegmentBase@details@Concurrency@@8 0000000180050f40     libconcrt:SchedulerBase.obj
 0002:0000df58       ??_R2ScheduleGroupSegmentBase@details@Concurrency@@8 0000000180050f58     libconcrt:SchedulerBase.obj
 0002:0000df68       ??_R4FairScheduleGroupSegment@details@Concurrency@@6B@ 0000000180050f68     libconcrt:SchedulerBase.obj
 0002:0000df90       ??_R3FairScheduleGroupSegment@details@Concurrency@@8 0000000180050f90     libconcrt:SchedulerBase.obj
 0002:0000dfa8       ??_R2FairScheduleGroupSegment@details@Concurrency@@8 0000000180050fa8     libconcrt:SchedulerBase.obj
 0002:0000dfc0       ??_R1A@?0A@EA@FairScheduleGroupSegment@details@Concurrency@@8 0000000180050fc0     libconcrt:SchedulerBase.obj
 0002:0000dfe8       ??_R4WaitBlock@details@Concurrency@@6B@ 0000000180050fe8     libconcrt:event.obj
 0002:0000e010       ??_R3WaitBlock@details@Concurrency@@8 0000000180051010     libconcrt:event.obj
 0002:0000e028       ??_R2WaitBlock@details@Concurrency@@8 0000000180051028     libconcrt:event.obj
 0002:0000e038       ??_R1A@?0A@EA@WaitBlock@details@Concurrency@@8 0000000180051038     libconcrt:event.obj
 0002:0000e060       ??_R4SingleWaitBlock@details@Concurrency@@6B@ 0000000180051060     libconcrt:event.obj
 0002:0000e088       ??_R3SingleWaitBlock@details@Concurrency@@8 0000000180051088     libconcrt:event.obj
 0002:0000e0a0       ??_R2SingleWaitBlock@details@Concurrency@@8 00000001800510a0     libconcrt:event.obj
 0002:0000e0b8       ??_R1A@?0A@EA@SingleWaitBlock@details@Concurrency@@8 00000001800510b8     libconcrt:event.obj
 0002:0000e0e0       ??_R4MultiWaitBlock@details@Concurrency@@6B@ 00000001800510e0     libconcrt:event.obj
 0002:0000e108       ??_R3MultiWaitBlock@details@Concurrency@@8 0000000180051108     libconcrt:event.obj
 0002:0000e120       ??_R2MultiWaitBlock@details@Concurrency@@8 0000000180051120     libconcrt:event.obj
 0002:0000e138       ??_R1A@?0A@EA@MultiWaitBlock@details@Concurrency@@8 0000000180051138     libconcrt:event.obj
 0002:0000e160       ??_R4WaitAllBlock@details@Concurrency@@6B@ 0000000180051160     libconcrt:event.obj
 0002:0000e188       ??_R3WaitAllBlock@details@Concurrency@@8 0000000180051188     libconcrt:event.obj
 0002:0000e1a0       ??_R2WaitAllBlock@details@Concurrency@@8 00000001800511a0     libconcrt:event.obj
 0002:0000e1c0       ??_R1A@?0A@EA@WaitAllBlock@details@Concurrency@@8 00000001800511c0     libconcrt:event.obj
 0002:0000e1e8       ??_R4WaitAnyBlock@details@Concurrency@@6B@ 00000001800511e8     libconcrt:event.obj
 0002:0000e210       ??_R3WaitAnyBlock@details@Concurrency@@8 0000000180051210     libconcrt:event.obj
 0002:0000e228       ??_R2WaitAnyBlock@details@Concurrency@@8 0000000180051228     libconcrt:event.obj
 0002:0000e248       ??_R1A@?0A@EA@WaitAnyBlock@details@Concurrency@@8 0000000180051248     libconcrt:event.obj
 0002:0000e270       ??_R4TimedSingleWaitBlock@details@Concurrency@@6B@ 0000000180051270     libconcrt:event.obj
 0002:0000e298       ??_R3TimedSingleWaitBlock@details@Concurrency@@8 0000000180051298     libconcrt:event.obj
 0002:0000e2b0       ??_R2TimedSingleWaitBlock@details@Concurrency@@8 00000001800512b0     libconcrt:event.obj
 0002:0000e2d0       ??_R1A@?0A@EA@TimedSingleWaitBlock@details@Concurrency@@8 00000001800512d0     libconcrt:event.obj
 0002:0000e2f8       ??_R4?$_MallocaArrayHolder@PEAVContext@Concurrency@@@details@Concurrency@@6B@ 00000001800512f8     libconcrt:event.obj
 0002:0000e320       ??_R3?$_MallocaArrayHolder@PEAVContext@Concurrency@@@details@Concurrency@@8 0000000180051320     libconcrt:event.obj
 0002:0000e338       ??_R2?$_MallocaArrayHolder@PEAVContext@Concurrency@@@details@Concurrency@@8 0000000180051338     libconcrt:event.obj
 0002:0000e348       ??_R1A@?0A@EA@?$_MallocaArrayHolder@PEAVContext@Concurrency@@@details@Concurrency@@8 0000000180051348     libconcrt:event.obj
 0002:0000e370       ??_R4ContextBase@details@Concurrency@@6B@ 0000000180051370     libconcrt:ContextBase.obj
 0002:0000e398       ??_R3ContextBase@details@Concurrency@@8 0000000180051398     libconcrt:ContextBase.obj
 0002:0000e3b0       ??_R2ContextBase@details@Concurrency@@8 00000001800513b0     libconcrt:ContextBase.obj
 0002:0000e3c8       ??_R1A@?0A@EA@ContextBase@details@Concurrency@@8 00000001800513c8     libconcrt:ContextBase.obj
 0002:0000e3f0       ??_R1A@?0A@EA@Context@Concurrency@@8 00000001800513f0     libconcrt:ContextBase.obj
 0002:0000e418       ??_R3Context@Concurrency@@8 0000000180051418     libconcrt:ContextBase.obj
 0002:0000e430       ??_R2Context@Concurrency@@8 0000000180051430     libconcrt:ContextBase.obj
 0002:0000e440       ??_R4Context@Concurrency@@6B@ 0000000180051440     libconcrt:ContextBase.obj
 0002:0000e468       ??_R4_Interruption_exception@details@Concurrency@@6B@ 0000000180051468     libconcrt:TaskCollection.obj
 0002:0000e490       ??_R3_Interruption_exception@details@Concurrency@@8 0000000180051490     libconcrt:TaskCollection.obj
 0002:0000e4a8       ??_R2_Interruption_exception@details@Concurrency@@8 00000001800514a8     libconcrt:TaskCollection.obj
 0002:0000e4c0       ??_R1A@?0A@EA@_Interruption_exception@details@Concurrency@@8 00000001800514c0     libconcrt:TaskCollection.obj
 0002:0000e4e8       ??_R1A@?0A@EA@_RefCounter@details@Concurrency@@8 00000001800514e8     libconcrt:TaskCollection.obj
 0002:0000e510       ??_R3_RefCounter@details@Concurrency@@8 0000000180051510     libconcrt:TaskCollection.obj
 0002:0000e528       ??_R2_RefCounter@details@Concurrency@@8 0000000180051528     libconcrt:TaskCollection.obj
 0002:0000e538       ??_R4_CancellationTokenRegistration@details@Concurrency@@6B@ 0000000180051538     libconcrt:TaskCollection.obj
 0002:0000e560       ??_R3_CancellationTokenRegistration@details@Concurrency@@8 0000000180051560     libconcrt:TaskCollection.obj
 0002:0000e578       ??_R2_CancellationTokenRegistration@details@Concurrency@@8 0000000180051578     libconcrt:TaskCollection.obj
 0002:0000e590       ??_R1A@?0A@EA@_CancellationTokenRegistration@details@Concurrency@@8 0000000180051590     libconcrt:TaskCollection.obj
 0002:0000e5b8       ??_R4_RefCounter@details@Concurrency@@6B@ 00000001800515b8     libconcrt:TaskCollection.obj
 0002:0000e5e0       ??_R4CancellationTokenRegistration_TaskProc@details@Concurrency@@6B@ 00000001800515e0     libconcrt:TaskCollection.obj
 0002:0000e608       ??_R3CancellationTokenRegistration_TaskProc@details@Concurrency@@8 0000000180051608     libconcrt:TaskCollection.obj
 0002:0000e620       ??_R2CancellationTokenRegistration_TaskProc@details@Concurrency@@8 0000000180051620     libconcrt:TaskCollection.obj
 0002:0000e640       ??_R1A@?0A@EA@CancellationTokenRegistration_TaskProc@details@Concurrency@@8 0000000180051640     libconcrt:TaskCollection.obj
 0002:0000e668       ??_R4?$_MallocaArrayHolder@PEAVevent@Concurrency@@@details@Concurrency@@6B@ 0000000180051668     libconcrt:TaskCollection.obj
 0002:0000e690       ??_R3?$_MallocaArrayHolder@PEAVevent@Concurrency@@@details@Concurrency@@8 0000000180051690     libconcrt:TaskCollection.obj
 0002:0000e6a8       ??_R2?$_MallocaArrayHolder@PEAVevent@Concurrency@@@details@Concurrency@@8 00000001800516a8     libconcrt:TaskCollection.obj
 0002:0000e6b8       ??_R1A@?0A@EA@?$_MallocaArrayHolder@PEAVevent@Concurrency@@@details@Concurrency@@8 00000001800516b8     libconcrt:TaskCollection.obj
 0002:0000e6e0       ??_R4ExecutionResource@details@Concurrency@@6B@ 00000001800516e0     libconcrt:ExecutionResource.obj
 0002:0000e708       ??_R3ExecutionResource@details@Concurrency@@8 0000000180051708     libconcrt:ExecutionResource.obj
 0002:0000e720       ??_R2ExecutionResource@details@Concurrency@@8 0000000180051720     libconcrt:ExecutionResource.obj
 0002:0000e738       ??_R1A@?0A@EA@ExecutionResource@details@Concurrency@@8 0000000180051738     libconcrt:ExecutionResource.obj
 0002:0000e760       ??_R1A@?0A@EA@IExecutionResource@Concurrency@@8 0000000180051760     libconcrt:ExecutionResource.obj
 0002:0000e788       ??_R3IExecutionResource@Concurrency@@8 0000000180051788     libconcrt:ExecutionResource.obj
 0002:0000e7a0       ??_R2IExecutionResource@Concurrency@@8 00000001800517a0     libconcrt:ExecutionResource.obj
 0002:0000e7b0       ??_R4SchedulerProxy@details@Concurrency@@6B@ 00000001800517b0     libconcrt:SchedulerProxy.obj
 0002:0000e7d8       ??_R3SchedulerProxy@details@Concurrency@@8 00000001800517d8     libconcrt:SchedulerProxy.obj
 0002:0000e7f0       ??_R2SchedulerProxy@details@Concurrency@@8 00000001800517f0     libconcrt:SchedulerProxy.obj
 0002:0000e808       ??_R1A@?0A@EA@SchedulerProxy@details@Concurrency@@8 0000000180051808     libconcrt:SchedulerProxy.obj
 0002:0000e830       ??_R1A@?0A@EA@ISchedulerProxy@Concurrency@@8 0000000180051830     libconcrt:SchedulerProxy.obj
 0002:0000e858       ??_R3ISchedulerProxy@Concurrency@@8 0000000180051858     libconcrt:SchedulerProxy.obj
 0002:0000e870       ??_R2ISchedulerProxy@Concurrency@@8 0000000180051870     libconcrt:SchedulerProxy.obj
 0002:0000e880       ??_R4FreeThreadProxy@details@Concurrency@@6B@ 0000000180051880     libconcrt:ThreadProxyFactoryManager.obj
 0002:0000e8a8       ??_R3FreeThreadProxy@details@Concurrency@@8 00000001800518a8     libconcrt:ThreadProxyFactoryManager.obj
 0002:0000e8c0       ??_R2FreeThreadProxy@details@Concurrency@@8 00000001800518c0     libconcrt:ThreadProxyFactoryManager.obj
 0002:0000e8e0       ??_R1A@?0A@EA@FreeThreadProxy@details@Concurrency@@8 00000001800518e0     libconcrt:ThreadProxyFactoryManager.obj
 0002:0000e908       ??_R1A@?0A@EA@ThreadProxy@details@Concurrency@@8 0000000180051908     libconcrt:ThreadProxyFactoryManager.obj
 0002:0000e930       ??_R3ThreadProxy@details@Concurrency@@8 0000000180051930     libconcrt:ThreadProxyFactoryManager.obj
 0002:0000e948       ??_R2ThreadProxy@details@Concurrency@@8 0000000180051948     libconcrt:ThreadProxyFactoryManager.obj
 0002:0000e960       ??_R1A@?0A@EA@IThreadProxy@Concurrency@@8 0000000180051960     libconcrt:ThreadProxyFactoryManager.obj
 0002:0000e988       ??_R3IThreadProxy@Concurrency@@8 0000000180051988     libconcrt:ThreadProxyFactoryManager.obj
 0002:0000e9a0       ??_R2IThreadProxy@Concurrency@@8 00000001800519a0     libconcrt:ThreadProxyFactoryManager.obj
 0002:0000e9b0       ??_R4IThreadProxyFactory@details@Concurrency@@6B@ 00000001800519b0     libconcrt:ThreadProxyFactoryManager.obj
 0002:0000e9d8       ??_R3IThreadProxyFactory@details@Concurrency@@8 00000001800519d8     libconcrt:ThreadProxyFactoryManager.obj
 0002:0000e9f0       ??_R2IThreadProxyFactory@details@Concurrency@@8 00000001800519f0     libconcrt:ThreadProxyFactoryManager.obj
 0002:0000ea00       ??_R1A@?0A@EA@IThreadProxyFactory@details@Concurrency@@8 0000000180051a00     libconcrt:ThreadProxyFactoryManager.obj
 0002:0000ea28       ??_R4FreeThreadProxyFactory@details@Concurrency@@6B@ 0000000180051a28     libconcrt:ThreadProxyFactoryManager.obj
 0002:0000ea50       ??_R3FreeThreadProxyFactory@details@Concurrency@@8 0000000180051a50     libconcrt:ThreadProxyFactoryManager.obj
 0002:0000ea68       ??_R2FreeThreadProxyFactory@details@Concurrency@@8 0000000180051a68     libconcrt:ThreadProxyFactoryManager.obj
 0002:0000ea88       ??_R1A@?0A@EA@FreeThreadProxyFactory@details@Concurrency@@8 0000000180051a88     libconcrt:ThreadProxyFactoryManager.obj
 0002:0000eab0       ??_R1A@?0A@EA@?$ThreadProxyFactory@VFreeThreadProxy@details@Concurrency@@@details@Concurrency@@8 0000000180051ab0     libconcrt:ThreadProxyFactoryManager.obj
 0002:0000ead8       ??_R3?$ThreadProxyFactory@VFreeThreadProxy@details@Concurrency@@@details@Concurrency@@8 0000000180051ad8     libconcrt:ThreadProxyFactoryManager.obj
 0002:0000eaf0       ??_R2?$ThreadProxyFactory@VFreeThreadProxy@details@Concurrency@@@details@Concurrency@@8 0000000180051af0     libconcrt:ThreadProxyFactoryManager.obj
 0002:0000eb08       ??_R4?$ThreadProxyFactory@VFreeThreadProxy@details@Concurrency@@@details@Concurrency@@6B@ 0000000180051b08     libconcrt:ThreadProxyFactoryManager.obj
 0002:0000eb30       ??_R4VirtualProcessor@details@Concurrency@@6B@ 0000000180051b30     libconcrt:VirtualProcessor.obj
 0002:0000eb58       ??_R3VirtualProcessor@details@Concurrency@@8 0000000180051b58     libconcrt:VirtualProcessor.obj
 0002:0000eb70       ??_R2VirtualProcessor@details@Concurrency@@8 0000000180051b70     libconcrt:VirtualProcessor.obj
 0002:0000eb80       ??_R1A@?0A@EA@VirtualProcessor@details@Concurrency@@8 0000000180051b80     libconcrt:VirtualProcessor.obj
 0002:0000eba8       ??_R4InternalContextBase@details@Concurrency@@6BIExecutionContext@2@@ 0000000180051ba8     libconcrt:InternalContextBase.obj
 0002:0000ebd0       ??_R3InternalContextBase@details@Concurrency@@8 0000000180051bd0     libconcrt:InternalContextBase.obj
 0002:0000ebe8       ??_R2InternalContextBase@details@Concurrency@@8 0000000180051be8     libconcrt:InternalContextBase.obj
 0002:0000ec10       ??_R1A@?0A@EA@InternalContextBase@details@Concurrency@@8 0000000180051c10     libconcrt:InternalContextBase.obj
 0002:0000ec38       ??_R1A@?0A@EA@IExecutionContext@Concurrency@@8 0000000180051c38     libconcrt:InternalContextBase.obj
 0002:0000ec60       ??_R3IExecutionContext@Concurrency@@8 0000000180051c60     libconcrt:InternalContextBase.obj
 0002:0000ec78       ??_R2IExecutionContext@Concurrency@@8 0000000180051c78     libconcrt:InternalContextBase.obj
 0002:0000ec88       ??_R1BA@?0A@EA@ContextBase@details@Concurrency@@8 0000000180051c88     libconcrt:InternalContextBase.obj
 0002:0000ecb0       ??_R1BA@?0A@EA@Context@Concurrency@@8 0000000180051cb0     libconcrt:InternalContextBase.obj
 0002:0000ecd8       ??_R4InternalContextBase@details@Concurrency@@6BContextBase@12@@ 0000000180051cd8     libconcrt:InternalContextBase.obj
 0002:0000ed00       ??_R4IExecutionContext@Concurrency@@6B@ 0000000180051d00     libconcrt:InternalContextBase.obj
 0002:0000ed28       ??_R4ScheduleGroupBase@details@Concurrency@@6B@ 0000000180051d28     libconcrt:ScheduleGroupBase.obj
 0002:0000ed50       ??_R4ScheduleGroupSegmentBase@details@Concurrency@@6B@ 0000000180051d50     libconcrt:ScheduleGroupBase.obj
 0002:0000ed78       ??_R4ExternalContextBase@details@Concurrency@@6B@ 0000000180051d78     libconcrt:ExternalContextBase.obj
 0002:0000eda0       ??_R3ExternalContextBase@details@Concurrency@@8 0000000180051da0     libconcrt:ExternalContextBase.obj
 0002:0000edb8       ??_R2ExternalContextBase@details@Concurrency@@8 0000000180051db8     libconcrt:ExternalContextBase.obj
 0002:0000edd8       ??_R1A@?0A@EA@ExternalContextBase@details@Concurrency@@8 0000000180051dd8     libconcrt:ExternalContextBase.obj
 0002:0000ee00       ??_R4ThreadScheduler@details@Concurrency@@6BIScheduler@2@@ 0000000180051e00     libconcrt:ThreadScheduler.obj
 0002:0000ee28       ??_R3ThreadScheduler@details@Concurrency@@8 0000000180051e28     libconcrt:ThreadScheduler.obj
 0002:0000ee40       ??_R2ThreadScheduler@details@Concurrency@@8 0000000180051e40     libconcrt:ThreadScheduler.obj
 0002:0000ee68       ??_R1A@?0A@EA@ThreadScheduler@details@Concurrency@@8 0000000180051e68     libconcrt:ThreadScheduler.obj
 0002:0000ee90       ??_R1A@?0A@EA@IScheduler@Concurrency@@8 0000000180051e90     libconcrt:ThreadScheduler.obj
 0002:0000eeb8       ??_R3IScheduler@Concurrency@@8 0000000180051eb8     libconcrt:ThreadScheduler.obj
 0002:0000eed0       ??_R2IScheduler@Concurrency@@8 0000000180051ed0     libconcrt:ThreadScheduler.obj
 0002:0000eee0       ??_R1BA@?0A@EA@SchedulerBase@details@Concurrency@@8 0000000180051ee0     libconcrt:ThreadScheduler.obj
 0002:0000ef08       ??_R1BA@?0A@EA@Scheduler@Concurrency@@8 0000000180051f08     libconcrt:ThreadScheduler.obj
 0002:0000ef30       ??_R4ThreadScheduler@details@Concurrency@@6BSchedulerBase@12@@ 0000000180051f30     libconcrt:ThreadScheduler.obj
 0002:0000ef58       ??_R4IScheduler@Concurrency@@6B@ 0000000180051f58     libconcrt:ThreadScheduler.obj
 0002:0000ef80       ??_R4ThreadInternalContext@details@Concurrency@@6BIExecutionContext@2@@ 0000000180051f80     libconcrt:ThreadScheduler.obj
 0002:0000efa8       ??_R3ThreadInternalContext@details@Concurrency@@8 0000000180051fa8     libconcrt:ThreadScheduler.obj
 0002:0000efc0       ??_R2ThreadInternalContext@details@Concurrency@@8 0000000180051fc0     libconcrt:ThreadScheduler.obj
 0002:0000eff0       ??_R1A@?0A@EA@ThreadInternalContext@details@Concurrency@@8 0000000180051ff0     libconcrt:ThreadScheduler.obj
 0002:0000f018       ??_R4ThreadInternalContext@details@Concurrency@@6BContextBase@12@@ 0000000180052018     libconcrt:ThreadScheduler.obj
 0002:0000f040       ??_R4VirtualProcessorRoot@details@Concurrency@@6B@ 0000000180052040     libconcrt:VirtualProcessorRoot.obj
 0002:0000f068       ??_R3VirtualProcessorRoot@details@Concurrency@@8 0000000180052068     libconcrt:VirtualProcessorRoot.obj
 0002:0000f080       ??_R2VirtualProcessorRoot@details@Concurrency@@8 0000000180052080     libconcrt:VirtualProcessorRoot.obj
 0002:0000f0a0       ??_R1A@?0A@EA@VirtualProcessorRoot@details@Concurrency@@8 00000001800520a0     libconcrt:VirtualProcessorRoot.obj
 0002:0000f0c8       ??_R1A@?0A@EA@IVirtualProcessorRoot@Concurrency@@8 00000001800520c8     libconcrt:VirtualProcessorRoot.obj
 0002:0000f0f0       ??_R3IVirtualProcessorRoot@Concurrency@@8 00000001800520f0     libconcrt:VirtualProcessorRoot.obj
 0002:0000f108       ??_R2IVirtualProcessorRoot@Concurrency@@8 0000000180052108     libconcrt:VirtualProcessorRoot.obj
 0002:0000f120       ??_R4FreeVirtualProcessorRoot@details@Concurrency@@6B@ 0000000180052120     libconcrt:FreeVirtualProcessorRoot.obj
 0002:0000f148       ??_R3FreeVirtualProcessorRoot@details@Concurrency@@8 0000000180052148     libconcrt:FreeVirtualProcessorRoot.obj
 0002:0000f160       ??_R2FreeVirtualProcessorRoot@details@Concurrency@@8 0000000180052160     libconcrt:FreeVirtualProcessorRoot.obj
 0002:0000f188       ??_R1A@?0A@EA@FreeVirtualProcessorRoot@details@Concurrency@@8 0000000180052188     libconcrt:FreeVirtualProcessorRoot.obj
 0002:0000f1b0       ??_R4ThreadProxy@details@Concurrency@@6B@ 00000001800521b0     libconcrt:ThreadProxy.obj
 0002:0000f1d8       ??_R4ThreadVirtualProcessor@details@Concurrency@@6B@ 00000001800521d8     libconcrt:ThreadVirtualProcessor.obj
 0002:0000f200       ??_R3ThreadVirtualProcessor@details@Concurrency@@8 0000000180052200     libconcrt:ThreadVirtualProcessor.obj
 0002:0000f218       ??_R2ThreadVirtualProcessor@details@Concurrency@@8 0000000180052218     libconcrt:ThreadVirtualProcessor.obj
 0002:0000f230       ??_R1A@?0A@EA@ThreadVirtualProcessor@details@Concurrency@@8 0000000180052230     libconcrt:ThreadVirtualProcessor.obj
 0002:0000f258       ??_R4bad_exception@std@@6B@ 0000000180052258     libvcruntime:frame.obj
 0002:0000f280       ??_R3bad_exception@std@@8  0000000180052280     libvcruntime:frame.obj
 0002:0000f298       ??_R2bad_exception@std@@8  0000000180052298     libvcruntime:frame.obj
 0002:0000f2b0       ??_R1A@?0A@EA@bad_exception@std@@8 00000001800522b0     libvcruntime:frame.obj
 0002:0000f2d8       ??_R4bad_cast@std@@6B@     00000001800522d8     libvcruntime:rtti.obj
 0002:0000f300       ??_R3bad_cast@std@@8       0000000180052300     libvcruntime:rtti.obj
 0002:0000f318       ??_R2bad_cast@std@@8       0000000180052318     libvcruntime:rtti.obj
 0002:0000f330       ??_R1A@?0A@EA@bad_cast@std@@8 0000000180052330     libvcruntime:rtti.obj
 0002:0000f358       ??_R4bad_typeid@std@@6B@   0000000180052358     libvcruntime:rtti.obj
 0002:0000f380       ??_R3bad_typeid@std@@8     0000000180052380     libvcruntime:rtti.obj
 0002:0000f398       ??_R2bad_typeid@std@@8     0000000180052398     libvcruntime:rtti.obj
 0002:0000f3b0       ??_R1A@?0A@EA@bad_typeid@std@@8 00000001800523b0     libvcruntime:rtti.obj
 0002:0000f3d8       ??_R4__non_rtti_object@std@@6B@ 00000001800523d8     libvcruntime:rtti.obj
 0002:0000f400       ??_R3__non_rtti_object@std@@8 0000000180052400     libvcruntime:rtti.obj
 0002:0000f418       ??_R2__non_rtti_object@std@@8 0000000180052418     libvcruntime:rtti.obj
 0002:0000f438       ??_R1A@?0A@EA@__non_rtti_object@std@@8 0000000180052438     libvcruntime:rtti.obj
 0002:0000f460       ??_R4_Ref_count_base@std@@6B@ 0000000180052460     libcpmt:excptptr.obj
 0002:0000f488       ??_R3_Ref_count_base@std@@8 0000000180052488     libcpmt:excptptr.obj
 0002:0000f4a0       ??_R2_Ref_count_base@std@@8 00000001800524a0     libcpmt:excptptr.obj
 0002:0000f4b0       ??_R1A@?0A@EA@_Ref_count_base@std@@8 00000001800524b0     libcpmt:excptptr.obj
 0002:0000f4d8       ??_R4?$_Ref_count@V__ExceptionPtr@@@std@@6B@ 00000001800524d8     libcpmt:excptptr.obj
 0002:0000f500       ??_R3?$_Ref_count@V__ExceptionPtr@@@std@@8 0000000180052500     libcpmt:excptptr.obj
 0002:0000f518       ??_R2?$_Ref_count@V__ExceptionPtr@@@std@@8 0000000180052518     libcpmt:excptptr.obj
 0002:0000f530       ??_R1A@?0A@EA@?$_Ref_count@V__ExceptionPtr@@@std@@8 0000000180052530     libcpmt:excptptr.obj
 0002:0000f558       ??_R4?$_Ref_count_del_alloc@V__ExceptionPtr@@P6AXPEAV1@@ZU?$_DebugMallocator@H@@@std@@6B@ 0000000180052558     libcpmt:excptptr.obj
 0002:0000f580       ??_R3?$_Ref_count_del_alloc@V__ExceptionPtr@@P6AXPEAV1@@ZU?$_DebugMallocator@H@@@std@@8 0000000180052580     libcpmt:excptptr.obj
 0002:0000f598       ??_R2?$_Ref_count_del_alloc@V__ExceptionPtr@@P6AXPEAV1@@ZU?$_DebugMallocator@H@@@std@@8 0000000180052598     libcpmt:excptptr.obj
 0002:0000f5b0       ??_R1A@?0A@EA@?$_Ref_count_del_alloc@V__ExceptionPtr@@P6AXPEAV1@@ZU?$_DebugMallocator@H@@@std@@8 00000001800525b0     libcpmt:excptptr.obj
 0002:0000f5d8       ??_R3stl_condition_variable_interface@details@Concurrency@@8 00000001800525d8     libcpmt:cond.obj
 0002:0000f5f0       ??_R2stl_condition_variable_interface@details@Concurrency@@8 00000001800525f0     libcpmt:cond.obj
 0002:0000f600       ??_R1A@?0A@EA@stl_condition_variable_interface@details@Concurrency@@8 0000000180052600     libcpmt:cond.obj
 0002:0000f628       ??_R4stl_condition_variable_vista@details@Concurrency@@6B@ 0000000180052628     libcpmt:cond.obj
 0002:0000f650       ??_R3stl_condition_variable_vista@details@Concurrency@@8 0000000180052650     libcpmt:cond.obj
 0002:0000f668       ??_R2stl_condition_variable_vista@details@Concurrency@@8 0000000180052668     libcpmt:cond.obj
 0002:0000f680       ??_R1A@?0A@EA@stl_condition_variable_vista@details@Concurrency@@8 0000000180052680     libcpmt:cond.obj
 0002:0000f6a8       ??_R4stl_condition_variable_win7@details@Concurrency@@6B@ 00000001800526a8     libcpmt:cond.obj
 0002:0000f6d0       ??_R3stl_condition_variable_win7@details@Concurrency@@8 00000001800526d0     libcpmt:cond.obj
 0002:0000f6e8       ??_R2stl_condition_variable_win7@details@Concurrency@@8 00000001800526e8     libcpmt:cond.obj
 0002:0000f700       ??_R1A@?0A@EA@stl_condition_variable_win7@details@Concurrency@@8 0000000180052700     libcpmt:cond.obj
 0002:0000f728       ??_R4stl_condition_variable_concrt@details@Concurrency@@6B@ 0000000180052728     libcpmt:cond.obj
 0002:0000f750       ??_R3stl_condition_variable_concrt@details@Concurrency@@8 0000000180052750     libcpmt:cond.obj
 0002:0000f768       ??_R2stl_condition_variable_concrt@details@Concurrency@@8 0000000180052768     libcpmt:cond.obj
 0002:0000f780       ??_R1A@?0A@EA@stl_condition_variable_concrt@details@Concurrency@@8 0000000180052780     libcpmt:cond.obj
 0002:0000f7a8       ?_TraceLoggingMetadata@?1??_TlgWrite@__vcrt_trace_logging_provider@@YAJPEBU_TlgProvider_t@2@PEFBXPEBU_GUID@@2IPEAU_EVENT_DATA_DESCRIPTOR@@@Z@4U_TraceLoggingMetadata_t@2@B 00000001800527a8     libvcruntime:telemetry.obj
 0002:0000f85b       ?_TraceLoggingMetadataEnd@?1??_TlgWrite@__vcrt_trace_logging_provider@@YAJPEBU_TlgProvider_t@2@PEFBXPEBU_GUID@@2IPEAU_EVENT_DATA_DESCRIPTOR@@@Z@4EB 000000018005285b     libvcruntime:telemetry.obj
 0002:0000fd60       __rtc_iaa                  0000000180052d60     LIBCMT:_initsect_.obj
 0002:0000fd68       __rtc_izz                  0000000180052d68     LIBCMT:_initsect_.obj
 0002:0000fd70       __rtc_taa                  0000000180052d70     LIBCMT:_initsect_.obj
 0002:0000fd78       __rtc_tzz                  0000000180052d78     LIBCMT:_initsect_.obj
 0002:00014750       _TI2?AVbad_alloc@std@@     0000000180057750     libcpmt:xthrow.obj
 0002:00014770       _CTA2?AVbad_alloc@std@@    0000000180057770     libcpmt:xthrow.obj
 0002:00014788       _CT??_R0?AVbad_alloc@std@@@8??0bad_alloc@std@@QEAA@AEBV01@@Z24 0000000180057788     libcpmt:xthrow.obj
 0002:000147b0       _CT??_R0?AVexception@std@@@8??0exception@std@@QEAA@AEBV01@@Z24 00000001800577b0     libcpmt:xthrow.obj
 0002:000147d8       _TI3?AVinvalid_argument@std@@ 00000001800577d8     libcpmt:xthrow.obj
 0002:000147f8       _CTA3?AVinvalid_argument@std@@ 00000001800577f8     libcpmt:xthrow.obj
 0002:00014818       _CT??_R0?AVinvalid_argument@std@@@8??0invalid_argument@std@@QEAA@AEBV01@@Z24 0000000180057818     libcpmt:xthrow.obj
 0002:00014840       _CT??_R0?AVlogic_error@std@@@8??0logic_error@std@@QEAA@AEBV01@@Z24 0000000180057840     libcpmt:xthrow.obj
 0002:00014868       _TI3?AVlength_error@std@@  0000000180057868     libcpmt:xthrow.obj
 0002:00014888       _CTA3?AVlength_error@std@@ 0000000180057888     libcpmt:xthrow.obj
 0002:000148a8       _CT??_R0?AVlength_error@std@@@8??0length_error@std@@QEAA@AEBV01@@Z24 00000001800578a8     libcpmt:xthrow.obj
 0002:000148d0       _TI3?AVout_of_range@std@@  00000001800578d0     libcpmt:xthrow.obj
 0002:000148f0       _CTA3?AVout_of_range@std@@ 00000001800578f0     libcpmt:xthrow.obj
 0002:00014910       _CT??_R0?AVout_of_range@std@@@8??0out_of_range@std@@QEAA@AEBV01@@Z24 0000000180057910     libcpmt:xthrow.obj
 0002:00014938       _CT??_R0?AVruntime_error@std@@@8??0runtime_error@std@@QEAA@AEBV01@@Z24 0000000180057938     libcpmt:xthrow.obj
 0002:00014960       _TI2?AVbad_function_call@std@@ 0000000180057960     libcpmt:xthrow.obj
 0002:00014980       _CTA2?AVbad_function_call@std@@ 0000000180057980     libcpmt:xthrow.obj
 0002:00014998       _CT??_R0?AVbad_function_call@std@@@8??0bad_function_call@std@@QEAA@AEBV01@@Z24 0000000180057998     libcpmt:xthrow.obj
 0002:000149c0       _TI4?AVsystem_error@std@@  00000001800579c0     libcpmt:thread0.obj
 0002:000149e0       _CTA4?AVsystem_error@std@@ 00000001800579e0     libcpmt:thread0.obj
 0002:00014a08       _CT??_R0?AVsystem_error@std@@@8??0system_error@std@@QEAA@AEBV01@@Z40 0000000180057a08     libcpmt:thread0.obj
 0002:00014a30       _CT??_R0?AV_System_error@std@@@8??0_System_error@std@@QEAA@AEBV01@@Z40 0000000180057a30     libcpmt:thread0.obj
 0002:00014a58       _TI3?AVbad_array_new_length@std@@ 0000000180057a58     LIBCMT:throw_bad_alloc.obj
 0002:00014a78       _CTA3?AVbad_array_new_length@std@@ 0000000180057a78     LIBCMT:throw_bad_alloc.obj
 0002:00014a98       _CT??_R0?AVbad_array_new_length@std@@@8??0bad_array_new_length@std@@QEAA@AEBV01@@Z24 0000000180057a98     LIBCMT:throw_bad_alloc.obj
 0002:00014ac0       _TI2?AVimproper_lock@Concurrency@@ 0000000180057ac0     libconcrt:rtlocks.obj
 0002:00014ae0       _CTA2?AVimproper_lock@Concurrency@@ 0000000180057ae0     libconcrt:rtlocks.obj
 0002:00014af8       _CT??_R0?AVimproper_lock@Concurrency@@@8??0improper_lock@Concurrency@@QEAA@AEBV01@@Z24 0000000180057af8     libconcrt:rtlocks.obj
 0002:00014b20       _TI2?AVscheduler_resource_allocation_error@Concurrency@@ 0000000180057b20     libconcrt:Platform.obj
 0002:00014b40       _CTA2?AVscheduler_resource_allocation_error@Concurrency@@ 0000000180057b40     libconcrt:Platform.obj
 0002:00014b58       _CT??_R0?AVscheduler_resource_allocation_error@Concurrency@@@8??0scheduler_resource_allocation_error@Concurrency@@QEAA@AEBV01@@Z32 0000000180057b58     libconcrt:Platform.obj
 0002:00014b80       _TI2?AVunsupported_os@Concurrency@@ 0000000180057b80     libconcrt:ResourceManager.obj
 0002:00014ba0       _CTA2?AVunsupported_os@Concurrency@@ 0000000180057ba0     libconcrt:ResourceManager.obj
 0002:00014bb8       _CT??_R0?AVunsupported_os@Concurrency@@@8??0unsupported_os@Concurrency@@QEAA@AEBV01@@Z24 0000000180057bb8     libconcrt:ResourceManager.obj
 0002:00014be0       _TI2?AVinvalid_operation@Concurrency@@ 0000000180057be0     libconcrt:ResourceManager.obj
 0002:00014c00       _CTA2?AVinvalid_operation@Concurrency@@ 0000000180057c00     libconcrt:ResourceManager.obj
 0002:00014c18       _CT??_R0?AVinvalid_operation@Concurrency@@@8??0invalid_operation@Concurrency@@QEAA@AEBV01@@Z24 0000000180057c18     libconcrt:ResourceManager.obj
 0002:00014c40       _TI2?AVimproper_scheduler_reference@Concurrency@@ 0000000180057c40     libconcrt:SchedulerBase.obj
 0002:00014c60       _CTA2?AVimproper_scheduler_reference@Concurrency@@ 0000000180057c60     libconcrt:SchedulerBase.obj
 0002:00014c78       _CT??_R0?AVimproper_scheduler_reference@Concurrency@@@8??0improper_scheduler_reference@Concurrency@@QEAA@AEBV01@@Z24 0000000180057c78     libconcrt:SchedulerBase.obj
 0002:00014ca0       _TI2?AVimproper_scheduler_attach@Concurrency@@ 0000000180057ca0     libconcrt:SchedulerBase.obj
 0002:00014cc0       _CTA2?AVimproper_scheduler_attach@Concurrency@@ 0000000180057cc0     libconcrt:SchedulerBase.obj
 0002:00014cd8       _CT??_R0?AVimproper_scheduler_attach@Concurrency@@@8??0improper_scheduler_attach@Concurrency@@QEAA@AEBV01@@Z24 0000000180057cd8     libconcrt:SchedulerBase.obj
 0002:00014d00       _TI2?AVmissing_wait@Concurrency@@ 0000000180057d00     libconcrt:TaskCollection.obj
 0002:00014d20       _CTA2?AVmissing_wait@Concurrency@@ 0000000180057d20     libconcrt:TaskCollection.obj
 0002:00014d38       _CT??_R0?AVmissing_wait@Concurrency@@@8??0missing_wait@Concurrency@@QEAA@AEBV01@@Z24 0000000180057d38     libconcrt:TaskCollection.obj
 0002:00014d60       _TI2?AV_Interruption_exception@details@Concurrency@@ 0000000180057d60     libconcrt:TaskCollection.obj
 0002:00014d80       _CTA2?AV_Interruption_exception@details@Concurrency@@ 0000000180057d80     libconcrt:TaskCollection.obj
 0002:00014d98       _CT??_R0?AV_Interruption_exception@details@Concurrency@@@8??0_Interruption_exception@details@Concurrency@@QEAA@AEBV012@@Z24 0000000180057d98     libconcrt:TaskCollection.obj
 0002:00014dc0       _TI2?AVinvalid_scheduler_policy_key@Concurrency@@ 0000000180057dc0     libconcrt:SchedulerPolicyBase.obj
 0002:00014de0       _CTA2?AVinvalid_scheduler_policy_key@Concurrency@@ 0000000180057de0     libconcrt:SchedulerPolicyBase.obj
 0002:00014df8       _CT??_R0?AVinvalid_scheduler_policy_key@Concurrency@@@8??0invalid_scheduler_policy_key@Concurrency@@QEAA@AEBV01@@Z24 0000000180057df8     libconcrt:SchedulerPolicyBase.obj
 0002:00014e20       _TI2?AVinvalid_scheduler_policy_value@Concurrency@@ 0000000180057e20     libconcrt:SchedulerPolicyBase.obj
 0002:00014e40       _CTA2?AVinvalid_scheduler_policy_value@Concurrency@@ 0000000180057e40     libconcrt:SchedulerPolicyBase.obj
 0002:00014e58       _CT??_R0?AVinvalid_scheduler_policy_value@Concurrency@@@8??0invalid_scheduler_policy_value@Concurrency@@QEAA@AEBV01@@Z24 0000000180057e58     libconcrt:SchedulerPolicyBase.obj
 0002:00014e80       _TI2?AVinvalid_scheduler_policy_thread_specification@Concurrency@@ 0000000180057e80     libconcrt:SchedulerPolicyBase.obj
 0002:00014ea0       _CTA2?AVinvalid_scheduler_policy_thread_specification@Concurrency@@ 0000000180057ea0     libconcrt:SchedulerPolicyBase.obj
 0002:00014eb8       _CT??_R0?AVinvalid_scheduler_policy_thread_specification@Concurrency@@@8??0invalid_scheduler_policy_thread_specification@Concurrency@@QEAA@AEBV01@@Z24 0000000180057eb8     libconcrt:SchedulerPolicyBase.obj
 0002:00014ee0       _TI2?AVcontext_unblock_unbalanced@Concurrency@@ 0000000180057ee0     libconcrt:InternalContextBase.obj
 0002:00014f00       _CTA2?AVcontext_unblock_unbalanced@Concurrency@@ 0000000180057f00     libconcrt:InternalContextBase.obj
 0002:00014f18       _CT??_R0?AVcontext_unblock_unbalanced@Concurrency@@@8??0context_unblock_unbalanced@Concurrency@@QEAA@AEBV01@@Z24 0000000180057f18     libconcrt:InternalContextBase.obj
 0002:00014f40       _TI2?AVcontext_self_unblock@Concurrency@@ 0000000180057f40     libconcrt:InternalContextBase.obj
 0002:00014f60       _CTA2?AVcontext_self_unblock@Concurrency@@ 0000000180057f60     libconcrt:InternalContextBase.obj
 0002:00014f78       _CT??_R0?AVcontext_self_unblock@Concurrency@@@8??0context_self_unblock@Concurrency@@QEAA@AEBV01@@Z24 0000000180057f78     libconcrt:InternalContextBase.obj
 0002:00014fa0       _TI2?AVinvalid_oversubscribe_operation@Concurrency@@ 0000000180057fa0     libconcrt:InternalContextBase.obj
 0002:00014fc0       _CTA2?AVinvalid_oversubscribe_operation@Concurrency@@ 0000000180057fc0     libconcrt:InternalContextBase.obj
 0002:00014fd8       _CT??_R0?AVinvalid_oversubscribe_operation@Concurrency@@@8??0invalid_oversubscribe_operation@Concurrency@@QEAA@AEBV01@@Z24 0000000180057fd8     libconcrt:InternalContextBase.obj
 0002:00015000       _TI2?AVnested_scheduler_missing_detach@Concurrency@@ 0000000180058000     libconcrt:InternalContextBase.obj
 0002:00015020       _CTA2?AVnested_scheduler_missing_detach@Concurrency@@ 0000000180058020     libconcrt:InternalContextBase.obj
 0002:00015038       _CT??_R0?AVnested_scheduler_missing_detach@Concurrency@@@8??0nested_scheduler_missing_detach@Concurrency@@QEAA@AEBV01@@Z24 0000000180058038     libconcrt:InternalContextBase.obj
 0002:00015060       _TI3?AVscheduler_worker_creation_error@Concurrency@@ 0000000180058060     libconcrt:ThreadProxy.obj
 0002:00015080       _CTA3?AVscheduler_worker_creation_error@Concurrency@@ 0000000180058080     libconcrt:ThreadProxy.obj
 0002:000150a0       _CT??_R0?AVscheduler_worker_creation_error@Concurrency@@@8??0scheduler_worker_creation_error@Concurrency@@QEAA@AEBV01@@Z32 00000001800580a0     libconcrt:ThreadProxy.obj
 0002:000150c8       _TI2?AVbad_exception@std@@ 00000001800580c8     libvcruntime:frame.obj
 0002:000150e8       _CTA2?AVbad_exception@std@@ 00000001800580e8     libvcruntime:frame.obj
 0002:00015100       _CT??_R0?AVbad_exception@std@@@8??0bad_exception@std@@QEAA@AEBV01@@Z24 0000000180058100     libvcruntime:frame.obj
 0002:00015128       _TI3?AV__non_rtti_object@std@@ 0000000180058128     libvcruntime:rtti.obj
 0002:00015148       _CTA3?AV__non_rtti_object@std@@ 0000000180058148     libvcruntime:rtti.obj
 0002:00015168       _CT??_R0?AV__non_rtti_object@std@@@8??0__non_rtti_object@std@@QEAA@AEBV01@@Z24 0000000180058168     libvcruntime:rtti.obj
 0002:00015190       _CT??_R0?AVbad_typeid@std@@@8??0bad_typeid@std@@QEAA@AEBV01@@Z24 0000000180058190     libvcruntime:rtti.obj
 0002:000151b8       _TI2?AVbad_cast@std@@      00000001800581b8     libvcruntime:rtti.obj
 0002:000151d8       _CTA2?AVbad_cast@std@@     00000001800581d8     libvcruntime:rtti.obj
 0002:000151f0       _CT??_R0?AVbad_cast@std@@@8??0bad_cast@std@@QEAA@AEBV01@@Z24 00000001800581f0     libvcruntime:rtti.obj
 0002:00015214       __DELAY_IMPORT_DESCRIPTOR_node_exe 0000000180058214     node:node.exe
 0002:00015234       __NULL_DELAY_IMPORT_DESCRIPTOR 0000000180058234     node:node.exe
 0002:000154d0       \177node_NULL_THUNK_DATA_DLN 00000001800584d0     node:node.exe
 0002:000160a8       \177node_NULL_THUNK_DATA_DLB 00000001800590a8     node:node.exe
 0002:00018518       __IMPORT_DESCRIPTOR_KERNEL32 000000018005b518     kernel32:KERNEL32.dll
 0002:0001852c       __IMPORT_DESCRIPTOR_WS2_32 000000018005b52c     Ws2_32:WS2_32.dll
 0002:00018540       __IMPORT_DESCRIPTOR_ADVAPI32 000000018005b540     advapi32:ADVAPI32.dll
 0002:00018554       __NULL_IMPORT_DESCRIPTOR   000000018005b554     kernel32:KERNEL32.dll
 0003:00000000       __scrt_native_dllmain_reason 000000018005d000     LIBCMT:utility.obj
 0003:00000008       __security_cookie          000000018005d008     LIBCMT:gs_cookie.obj
 0003:00000010       __security_cookie_complement 000000018005d010     LIBCMT:gs_cookie.obj
 0003:00000018       __isa_available            000000018005d018     LIBCMT:_cpu_disp_.obj
 0003:0000001c       __isa_enabled              000000018005d01c     LIBCMT:_cpu_disp_.obj
 0003:00000020       __memcpy_nt_iters          000000018005d020     LIBCMT:_cpu_disp_.obj
 0003:00000030       ?_S_spinCount@_SpinCount@details@Concurrency@@2IA 000000018005d030     libconcrt:rtlocks.obj
 0003:00000038       ?s_schedulerIdCount@ResourceManager@details@Concurrency@@0JC 000000018005d038     libconcrt:ResourceManager.obj
 0003:0000003c       ?s_executionContextIdCount@ResourceManager@details@Concurrency@@0JC 000000018005d03c     libconcrt:ResourceManager.obj
 0003:00000040       ?s_threadProxyIdCount@ResourceManager@details@Concurrency@@0JC 000000018005d040     libconcrt:ResourceManager.obj
 0003:00000044       ?s_oneShotInitializationState@SchedulerBase@details@Concurrency@@0JA 000000018005d044     libconcrt:SchedulerBase.obj
 0003:00000050       ?PolicyDefaults@details@Concurrency@@3PAIA 000000018005d050     libconcrt:SchedulerPolicyBase.obj
 0003:00000080       ?PolicyElementKeyStrings@details@Concurrency@@3PAPEADA 000000018005d080     libconcrt:SchedulerPolicyBase.obj
 0003:000001c0       _iob                       000000018005d1c0     libucrt:_file.obj
 0003:000002d0       __abort_behavior           000000018005d2d0     libucrt:abort.obj
 0003:000002e0       __acrt_initial_locale_data 000000018005d2e0     libucrt:nlsdata.obj
 0003:00000438       __acrt_initial_locale_pointers 000000018005d438     libucrt:nlsdata.obj
 0003:00000448       __acrt_wide_c_locale_string 000000018005d448     libucrt:nlsdata.obj
 0003:00000450       __acrt_initial_multibyte_data 000000018005d450     libucrt:mbctype.obj
 0003:00000678       __acrt_current_multibyte_data 000000018005d678     libucrt:mbctype.obj
 0003:00000780       _mbctype                   000000018005d780     libucrt:mbctype.obj
 0003:00000890       _mbcasemap                 000000018005d890     libucrt:mbctype.obj
 0003:00000990       __globallocalestatus       000000018005d990     libucrt:glstatus.obj
 0003:000009a0       __acrt_lconv_c             000000018005d9a0     libucrt:localeconv.obj
 0003:00000a38       __acrt_lconv_static_decimal 000000018005da38     libucrt:localeconv.obj
 0003:00000a3c       __acrt_lconv_static_W_decimal 000000018005da3c     libucrt:localeconv.obj
 0003:00000a50       __dcrt_lowio_console_output_handle 000000018005da50     libucrt:initcon.obj
 0003:00000a60       _fltused                   000000018005da60     LIBCMT:fltused.obj
 0003:00000a70       ?stamp@?4??upgrade@?$HTTPSocket@$00@uWS@@QEAA_NPEBD0_K01@Z@4PADA 000000018005da70     HTTPSocket.obj
 0003:00000af0       __pfnDliNotifyHook2        000000018005daf0     win_delay_load_hook.obj
 0003:00000b00       ??_R0?AVbad_alloc@std@@@8  000000018005db00     libcpmt:xthrow.obj
 0003:00000b28       ??_R0?AVexception@std@@@8  000000018005db28     libcpmt:xthrow.obj
 0003:00000b50       ??_R0?AVinvalid_argument@std@@@8 000000018005db50     libcpmt:xthrow.obj
 0003:00000b80       ??_R0?AVlogic_error@std@@@8 000000018005db80     libcpmt:xthrow.obj
 0003:00000ba8       ??_R0?AVlength_error@std@@@8 000000018005dba8     libcpmt:xthrow.obj
 0003:00000bd0       ??_R0?AVout_of_range@std@@@8 000000018005dbd0     libcpmt:xthrow.obj
 0003:00000bf8       ??_R0?AVruntime_error@std@@@8 000000018005dbf8     libcpmt:xthrow.obj
 0003:00000c20       ??_R0?AVbad_function_call@std@@@8 000000018005dc20     libcpmt:xthrow.obj
 0003:00000c50       ??_R0?AVsystem_error@std@@@8 000000018005dc50     libcpmt:thread0.obj
 0003:00000c78       ??_R0?AV_System_error@std@@@8 000000018005dc78     libcpmt:thread0.obj
 0003:00000ca0       ??_R0?AVerror_category@std@@@8 000000018005dca0     libcpmt:thread0.obj
 0003:00000cd0       ??_R0?AV_Generic_error_category@std@@@8 000000018005dcd0     libcpmt:thread0.obj
 0003:00000d10       ??_R0?AVstl_critical_section_interface@details@Concurrency@@@8 000000018005dd10     libcpmt:mutex.obj
 0003:00000d60       ??_R0?AVstl_critical_section_vista@details@Concurrency@@@8 000000018005dd60     libcpmt:mutex.obj
 0003:00000db0       ??_R0?AVstl_critical_section_win7@details@Concurrency@@@8 000000018005ddb0     libcpmt:mutex.obj
 0003:00000e00       ??_R0?AVstl_critical_section_concrt@details@Concurrency@@@8 000000018005de00     libcpmt:mutex.obj
 0003:00000e48       ??_R0?AVtype_info@@@8      000000018005de48     LIBCMT:std_type_info_static.obj
 0003:00000e68       ??_R0?AVbad_array_new_length@std@@@8 000000018005de68     LIBCMT:throw_bad_alloc.obj
 0003:00000e98       ??_R0?AVimproper_lock@Concurrency@@@8 000000018005de98     libconcrt:rtlocks.obj
 0003:00000ed0       ??_R0?AVscheduler_resource_allocation_error@Concurrency@@@8 000000018005ded0     libconcrt:Platform.obj
 0003:00000f20       ??_R0?AVscheduler_worker_creation_error@Concurrency@@@8 000000018005df20     libconcrt:Exceptions.obj
 0003:00000f68       ??_R0?AVunsupported_os@Concurrency@@@8 000000018005df68     libconcrt:Exceptions.obj
 0003:00000fa0       ??_R0?AVimproper_scheduler_attach@Concurrency@@@8 000000018005dfa0     libconcrt:Exceptions.obj
 0003:00000fe0       ??_R0?AVimproper_scheduler_reference@Concurrency@@@8 000000018005dfe0     libconcrt:Exceptions.obj
 0003:00001020       ??_R0?AVcontext_unblock_unbalanced@Concurrency@@@8 000000018005e020     libconcrt:Exceptions.obj
 0003:00001060       ??_R0?AVcontext_self_unblock@Concurrency@@@8 000000018005e060     libconcrt:Exceptions.obj
 0003:00001098       ??_R0?AVmissing_wait@Concurrency@@@8 000000018005e098     libconcrt:Exceptions.obj
 0003:000010c8       ??_R0?AVinvalid_scheduler_policy_key@Concurrency@@@8 000000018005e0c8     libconcrt:Exceptions.obj
 0003:00001110       ??_R0?AVinvalid_scheduler_policy_value@Concurrency@@@8 000000018005e110     libconcrt:Exceptions.obj
 0003:00001160       ??_R0?AVinvalid_scheduler_policy_thread_specification@Concurrency@@@8 000000018005e160     libconcrt:Exceptions.obj
 0003:000011b0       ??_R0?AVnested_scheduler_missing_detach@Concurrency@@@8 000000018005e1b0     libconcrt:Exceptions.obj
 0003:00001200       ??_R0?AVinvalid_oversubscribe_operation@Concurrency@@@8 000000018005e200     libconcrt:Exceptions.obj
 0003:00001248       ??_R0?AVinvalid_operation@Concurrency@@@8 000000018005e248     libconcrt:ResourceManager.obj
 0003:00001280       ??_R0?AVResourceManager@details@Concurrency@@@8 000000018005e280     libconcrt:ResourceManager.obj
 0003:000012c0       ??_R0?AUIResourceManager@Concurrency@@@8 000000018005e2c0     libconcrt:ResourceManager.obj
 0003:000012f8       ??_R0?AUITopologyExecutionResource@Concurrency@@@8 000000018005e2f8     libconcrt:ResourceManager.obj
 0003:00001338       ??_R0?AUITopologyNode@Concurrency@@@8 000000018005e338     libconcrt:ResourceManager.obj
 0003:00001370       ??_R0?AUTopologyObject@GlobalCore@details@Concurrency@@@8 000000018005e370     libconcrt:ResourceManager.obj
 0003:000013c0       ??_R0?AUTopologyObject@GlobalNode@details@Concurrency@@@8 000000018005e3c0     libconcrt:ResourceManager.obj
 0003:00001408       ??_R0?AVScheduleGroupBase@details@Concurrency@@@8 000000018005e408     libconcrt:SchedulerBase.obj
 0003:00001448       ??_R0?AVScheduleGroup@Concurrency@@@8 000000018005e448     libconcrt:SchedulerBase.obj
 0003:00001480       ??_R0?AVCacheLocalScheduleGroup@details@Concurrency@@@8 000000018005e480     libconcrt:SchedulerBase.obj
 0003:000014c8       ??_R0?AVFairScheduleGroup@details@Concurrency@@@8 000000018005e4c8     libconcrt:SchedulerBase.obj
 0003:00001508       ??_R0?AVSchedulerBase@details@Concurrency@@@8 000000018005e508     libconcrt:SchedulerBase.obj
 0003:00001540       ??_R0?AVScheduler@Concurrency@@@8 000000018005e540     libconcrt:SchedulerBase.obj
 0003:00001570       ??_R0?AU_Chore@details@Concurrency@@@8 000000018005e570     libconcrt:SchedulerBase.obj
 0003:000015a8       ??_R0?AVRealizedChore@details@Concurrency@@@8 000000018005e5a8     libconcrt:SchedulerBase.obj
 0003:000015e0       ??_R0?AVCacheLocalScheduleGroupSegment@details@Concurrency@@@8 000000018005e5e0     libconcrt:SchedulerBase.obj
 0003:00001630       ??_R0?AVScheduleGroupSegmentBase@details@Concurrency@@@8 000000018005e630     libconcrt:SchedulerBase.obj
 0003:00001680       ??_R0?AVFairScheduleGroupSegment@details@Concurrency@@@8 000000018005e680     libconcrt:SchedulerBase.obj
 0003:000016c8       ??_R0?AVWaitBlock@details@Concurrency@@@8 000000018005e6c8     libconcrt:event.obj
 0003:00001700       ??_R0?AVSingleWaitBlock@details@Concurrency@@@8 000000018005e700     libconcrt:event.obj
 0003:00001740       ??_R0?AVMultiWaitBlock@details@Concurrency@@@8 000000018005e740     libconcrt:event.obj
 0003:00001780       ??_R0?AVWaitAllBlock@details@Concurrency@@@8 000000018005e780     libconcrt:event.obj
 0003:000017b8       ??_R0?AVWaitAnyBlock@details@Concurrency@@@8 000000018005e7b8     libconcrt:event.obj
 0003:000017f0       ??_R0?AVTimedSingleWaitBlock@details@Concurrency@@@8 000000018005e7f0     libconcrt:event.obj
 0003:00001830       ??_R0?AV?$_MallocaArrayHolder@PEAVContext@Concurrency@@@details@Concurrency@@@8 000000018005e830     libconcrt:event.obj
 0003:00001890       ??_R0?AVContextBase@details@Concurrency@@@8 000000018005e890     libconcrt:ContextBase.obj
 0003:000018c8       ??_R0?AVContext@Concurrency@@@8 000000018005e8c8     libconcrt:ContextBase.obj
 0003:00001900       ??_R0?AV_Interruption_exception@details@Concurrency@@@8 000000018005e900     libconcrt:TaskCollection.obj
 0003:00001948       ??_R0?AV_RefCounter@details@Concurrency@@@8 000000018005e948     libconcrt:TaskCollection.obj
 0003:00001980       ??_R0?AV_CancellationTokenRegistration@details@Concurrency@@@8 000000018005e980     libconcrt:TaskCollection.obj
 0003:000019d0       ??_R0?AVCancellationTokenRegistration_TaskProc@details@Concurrency@@@8 000000018005e9d0     libconcrt:TaskCollection.obj
 0003:00001a30       ??_R0?AV?$_MallocaArrayHolder@PEAVevent@Concurrency@@@details@Concurrency@@@8 000000018005ea30     libconcrt:TaskCollection.obj
 0003:00001a88       ??_R0?AVExecutionResource@details@Concurrency@@@8 000000018005ea88     libconcrt:ExecutionResource.obj
 0003:00001ac8       ??_R0?AUIExecutionResource@Concurrency@@@8 000000018005eac8     libconcrt:ExecutionResource.obj
 0003:00001b00       ??_R0?AVSchedulerProxy@details@Concurrency@@@8 000000018005eb00     libconcrt:SchedulerProxy.obj
 0003:00001b40       ??_R0?AUISchedulerProxy@Concurrency@@@8 000000018005eb40     libconcrt:SchedulerProxy.obj
 0003:00001b78       ??_R0?AVFreeThreadProxy@details@Concurrency@@@8 000000018005eb78     libconcrt:ThreadProxyFactoryManager.obj
 0003:00001bb8       ??_R0?AVThreadProxy@details@Concurrency@@@8 000000018005ebb8     libconcrt:ThreadProxyFactoryManager.obj
 0003:00001bf0       ??_R0?AUIThreadProxy@Concurrency@@@8 000000018005ebf0     libconcrt:ThreadProxyFactoryManager.obj
 0003:00001c20       ??_R0?AUIThreadProxyFactory@details@Concurrency@@@8 000000018005ec20     libconcrt:ThreadProxyFactoryManager.obj
 0003:00001c60       ??_R0?AVFreeThreadProxyFactory@details@Concurrency@@@8 000000018005ec60     libconcrt:ThreadProxyFactoryManager.obj
 0003:00001cb0       ??_R0?AV?$ThreadProxyFactory@VFreeThreadProxy@details@Concurrency@@@details@Concurrency@@@8 000000018005ecb0     libconcrt:ThreadProxyFactoryManager.obj
 0003:00001d18       ??_R0?AVVirtualProcessor@details@Concurrency@@@8 000000018005ed18     libconcrt:VirtualProcessor.obj
 0003:00001d58       ??_R0?AVInternalContextBase@details@Concurrency@@@8 000000018005ed58     libconcrt:InternalContextBase.obj
 0003:00001d98       ??_R0?AUIExecutionContext@Concurrency@@@8 000000018005ed98     libconcrt:InternalContextBase.obj
 0003:00001dd0       ??_R0?AVExternalContextBase@details@Concurrency@@@8 000000018005edd0     libconcrt:ExternalContextBase.obj
 0003:00001e10       ??_R0?AVThreadScheduler@details@Concurrency@@@8 000000018005ee10     libconcrt:ThreadScheduler.obj
 0003:00001e50       ??_R0?AUIScheduler@Concurrency@@@8 000000018005ee50     libconcrt:ThreadScheduler.obj
 0003:00001e80       ??_R0?AVThreadInternalContext@details@Concurrency@@@8 000000018005ee80     libconcrt:ThreadScheduler.obj
 0003:00001ec0       ??_R0?AVVirtualProcessorRoot@details@Concurrency@@@8 000000018005eec0     libconcrt:VirtualProcessorRoot.obj
 0003:00001f00       ??_R0?AUIVirtualProcessorRoot@Concurrency@@@8 000000018005ef00     libconcrt:VirtualProcessorRoot.obj
 0003:00001f40       ??_R0?AVFreeVirtualProcessorRoot@details@Concurrency@@@8 000000018005ef40     libconcrt:FreeVirtualProcessorRoot.obj
 0003:00001f90       ??_R0?AVThreadVirtualProcessor@details@Concurrency@@@8 000000018005ef90     libconcrt:ThreadVirtualProcessor.obj
 0003:00001fd8       ??_R0?AVbad_exception@std@@@8 000000018005efd8     libvcruntime:frame.obj
 0003:00002000       ??_R0?AV__non_rtti_object@std@@@8 000000018005f000     libvcruntime:rtti.obj
 0003:00002030       ??_R0?AVbad_typeid@std@@@8 000000018005f030     libvcruntime:rtti.obj
 0003:00002058       ??_R0?AVbad_cast@std@@@8   000000018005f058     libvcruntime:rtti.obj
 0003:00002080       ??_R0P6AXPEAV__ExceptionPtr@@@Z@8 000000018005f080     libcpmt:excptptr.obj
 0003:000020b0       ??_R0?AV_Ref_count_base@std@@@8 000000018005f0b0     libcpmt:excptptr.obj
 0003:000020e0       ??_R0?AV?$_Ref_count@V__ExceptionPtr@@@std@@@8 000000018005f0e0     libcpmt:excptptr.obj
 0003:00002120       ??_R0?AV?$_Ref_count_del_alloc@V__ExceptionPtr@@P6AXPEAV1@@ZU?$_DebugMallocator@H@@@std@@@8 000000018005f120     libcpmt:excptptr.obj
 0003:00002190       ??_R0?AVstl_condition_variable_interface@details@Concurrency@@@8 000000018005f190     libcpmt:cond.obj
 0003:000021e0       ??_R0?AVstl_condition_variable_vista@details@Concurrency@@@8 000000018005f1e0     libcpmt:cond.obj
 0003:00002230       ??_R0?AVstl_condition_variable_win7@details@Concurrency@@@8 000000018005f230     libcpmt:cond.obj
 0003:00002280       ??_R0?AVstl_condition_variable_concrt@details@Concurrency@@@8 000000018005f280     libcpmt:cond.obj
 0003:000022d0       ??_R0?AV<lambda_3d86c511e010b43e6f8203b61383b85c>@@@8 000000018005f2d0     Group.obj
 0003:00002310       ??_R0?AV<lambda_6cf58e420d6c310e5678e01e82a10463>@@@8 000000018005f310     Group.obj
 0003:00002350       ??_R0?AV<lambda_f05790a8ac7f1f0c4e43cd67fdc7b60b>@@@8 000000018005f350     Group.obj
 0003:00002390       ??_R0?AV<lambda_8a3e0fb102bfd2d8e0f223fe18fbe897>@@@8 000000018005f390     Group.obj
 0003:000023d0       ??_R0?AV<lambda_5736c457d53447cfc1bfb3a81f663ee9>@@@8 000000018005f3d0     Group.obj
 0003:00002410       ??_R0?AV<lambda_daa4108c0f85d8cc00ee44b5f15cb0cf>@@@8 000000018005f410     Group.obj
 0003:00002450       ??_R0?AV<lambda_caac1bcd1aa04a978a1724d6bfd6f36e>@@@8 000000018005f450     Group.obj
 0003:00002490       ??_R0?AV<lambda_920f95ed73d1043375081833dac2d3c1>@@@8 000000018005f490     Group.obj
 0003:000024d0       ??_R0?AV<lambda_13e57b1e6f46784fe5e88169e8d03d4a>@@@8 000000018005f4d0     Group.obj
 0003:00002510       ??_R0?AV<lambda_e603fd495cf5a235430e5b5080b4caa2>@@@8 000000018005f510     Group.obj
 0003:00002550       ??_R0?AV<lambda_9f4f12a84d8f5559c2caf0fccde4cecf>@@@8 000000018005f550     addon.obj
 0003:00002590       ??_R0?AV<lambda_5340ffcb4045c7e221e6ed34d69e440b>@@@8 000000018005f590     addon.obj
 0003:000025d0       ??_R0?AV<lambda_253b4a1404c612c2f71c88eb2317caa4>@@@8 000000018005f5d0     addon.obj
 0003:00002610       ??_R0?AV<lambda_1df6e9150329589b41c0fe6f8b1f264e>@@@8 000000018005f610     addon.obj
 0003:00002650       ??_R0?AV<lambda_30da2cf7fb27dca016834439ea08639b>@@@8 000000018005f650     addon.obj
 0003:00002690       ??_R0?AV<lambda_c9a652ce08ab70a880491b309a6e9b7f>@@@8 000000018005f690     addon.obj
 0003:000026d0       ??_R0?AV<lambda_185a28332b424bb2e46d1162c88273d4>@@@8 000000018005f6d0     addon.obj
 0003:00002710       ??_R0?AV<lambda_a0d45c30ed7d53f13017b910323e74db>@@@8 000000018005f710     addon.obj
 0003:00002750       ??_R0?AV<lambda_2084e076f6151854c0db1be6acabce48>@@@8 000000018005f750     addon.obj
 0003:00002790       ??_R0?AV<lambda_d7bdfb5a58f2c1f8ad741cf189cc386b>@@@8 000000018005f790     addon.obj
 0003:000027d0       ??_R0?AV<lambda_a6cfd1bcc674317fad83658b5d0786e9>@@@8 000000018005f7d0     addon.obj
 0003:00002810       __imp_uv_close             000000018005f810     node:node.exe
 0003:00002818       __imp_SSL_free             000000018005f818     node:node.exe
 0003:00002820       __imp_uv_poll_stop         000000018005f820     node:node.exe
 0003:00002828       __imp_uv_timer_init        000000018005f828     node:node.exe
 0003:00002830       __imp_uv_timer_stop        000000018005f830     node:node.exe
 0003:00002838       __imp_uv_is_closing        000000018005f838     node:node.exe
 0003:00002840       __imp_SSL_set_fd           000000018005f840     node:node.exe
 0003:00002848       __imp_uv_fileno            000000018005f848     node:node.exe
 0003:00002850       __imp_uv_timer_start       000000018005f850     node:node.exe
 0003:00002858       __imp_uv_poll_init_socket  000000018005f858     node:node.exe
 0003:00002860       __imp_SSL_write            000000018005f860     node:node.exe
 0003:00002868       __imp_SSL_ctrl             000000018005f868     node:node.exe
 0003:00002870       __imp_uv_async_send        000000018005f870     node:node.exe
 0003:00002878       __imp_uv_poll_start        000000018005f878     node:node.exe
 0003:00002880       __imp_SSL_shutdown         000000018005f880     node:node.exe
 0003:00002888       __imp_SSL_get_error        000000018005f888     node:node.exe
 0003:00002890       __imp_inflateEnd           000000018005f890     node:node.exe
 0003:00002898       __imp_inflateInit2_        000000018005f898     node:node.exe
 0003:000028a0       __imp_SSL_CTX_free         000000018005f8a0     node:node.exe
 0003:000028a8       __imp_SSL_CTX_ctrl         000000018005f8a8     node:node.exe
 0003:000028b0       __imp_SSL_library_init     000000018005f8b0     node:node.exe
 0003:000028b8       __imp_SSL_CTX_new          000000018005f8b8     node:node.exe
 0003:000028c0       __imp_SSL_new              000000018005f8c0     node:node.exe
 0003:000028c8       __imp_SSL_want             000000018005f8c8     node:node.exe
 0003:000028d0       __imp_inflate              000000018005f8d0     node:node.exe
 0003:000028d8       __imp_SSL_pending          000000018005f8d8     node:node.exe
 0003:000028e0       __imp_SSL_read             000000018005f8e0     node:node.exe
 0003:000028e8       __imp_SSL_set_accept_state 000000018005f8e8     node:node.exe
 0003:000028f0       __imp_inflateReset         000000018005f8f0     node:node.exe
 0003:000028f8       __imp_SSL_set_connect_state 000000018005f8f8     node:node.exe
 0003:00002900       __imp_uv_run               000000018005f900     node:node.exe
 0003:00002908       __imp_uv_loop_new          000000018005f908     node:node.exe
 0003:00002910       __imp_SSLv23_client_method 000000018005f910     node:node.exe
 0003:00002918       __imp_uv_loop_delete       000000018005f918     node:node.exe
 0003:00002920       __imp_uv_default_loop      000000018005f920     node:node.exe
 0003:00002928       __imp_SHA1                 000000018005f928     node:node.exe
 0003:00002930       __imp_uv_unref             000000018005f930     node:node.exe
 0003:00002938       __imp_?Global@Context@v8@@QEAA?AV?$Local@VObject@v8@@@2@XZ 000000018005f938     node:node.exe
